
./test-b/selftest-O3.exe:     file format elf32-i386

Disassembly of section .init:

08048420 <_init>:
 8048420:	55                   	push   %ebp
 8048421:	89 e5                	mov    %esp,%ebp
 8048423:	83 ec 08             	sub    $0x8,%esp
 8048426:	e8 29 01 00 00       	call   8048554 <call_gmon_start>
 804842b:	e8 b0 01 00 00       	call   80485e0 <frame_dummy>
 8048430:	e8 1b b7 00 00       	call   8053b50 <__do_global_ctors_aux>
 8048435:	c9                   	leave  
 8048436:	c3                   	ret    
Disassembly of section .plt:

08048438 <random@plt-0x10>:
 8048438:	ff 35 74 5a 05 08    	pushl  0x8055a74
 804843e:	ff 25 78 5a 05 08    	jmp    *0x8055a78
 8048444:	00 00                	add    %al,(%eax)
	...

08048448 <random@plt>:
 8048448:	ff 25 7c 5a 05 08    	jmp    *0x8055a7c
 804844e:	68 00 00 00 00       	push   $0x0
 8048453:	e9 e0 ff ff ff       	jmp    8048438 <_init+0x18>

08048458 <__gmon_start__@plt>:
 8048458:	ff 25 80 5a 05 08    	jmp    *0x8055a80
 804845e:	68 08 00 00 00       	push   $0x8
 8048463:	e9 d0 ff ff ff       	jmp    8048438 <_init+0x18>

08048468 <putchar@plt>:
 8048468:	ff 25 84 5a 05 08    	jmp    *0x8055a84
 804846e:	68 10 00 00 00       	push   $0x10
 8048473:	e9 c0 ff ff ff       	jmp    8048438 <_init+0x18>

08048478 <memset@plt>:
 8048478:	ff 25 88 5a 05 08    	jmp    *0x8055a88
 804847e:	68 18 00 00 00       	push   $0x18
 8048483:	e9 b0 ff ff ff       	jmp    8048438 <_init+0x18>

08048488 <__libc_start_main@plt>:
 8048488:	ff 25 8c 5a 05 08    	jmp    *0x8055a8c
 804848e:	68 20 00 00 00       	push   $0x20
 8048493:	e9 a0 ff ff ff       	jmp    8048438 <_init+0x18>

08048498 <__assert_fail@plt>:
 8048498:	ff 25 90 5a 05 08    	jmp    *0x8055a90
 804849e:	68 28 00 00 00       	push   $0x28
 80484a3:	e9 90 ff ff ff       	jmp    8048438 <_init+0x18>

080484a8 <free@plt>:
 80484a8:	ff 25 94 5a 05 08    	jmp    *0x8055a94
 80484ae:	68 30 00 00 00       	push   $0x30
 80484b3:	e9 80 ff ff ff       	jmp    8048438 <_init+0x18>

080484b8 <fflush@plt>:
 80484b8:	ff 25 98 5a 05 08    	jmp    *0x8055a98
 80484be:	68 38 00 00 00       	push   $0x38
 80484c3:	e9 70 ff ff ff       	jmp    8048438 <_init+0x18>

080484c8 <printf@plt>:
 80484c8:	ff 25 9c 5a 05 08    	jmp    *0x8055a9c
 80484ce:	68 40 00 00 00       	push   $0x40
 80484d3:	e9 60 ff ff ff       	jmp    8048438 <_init+0x18>

080484d8 <srandom@plt>:
 80484d8:	ff 25 a0 5a 05 08    	jmp    *0x8055aa0
 80484de:	68 48 00 00 00       	push   $0x48
 80484e3:	e9 50 ff ff ff       	jmp    8048438 <_init+0x18>

080484e8 <fwrite@plt>:
 80484e8:	ff 25 a4 5a 05 08    	jmp    *0x8055aa4
 80484ee:	68 50 00 00 00       	push   $0x50
 80484f3:	e9 40 ff ff ff       	jmp    8048438 <_init+0x18>

080484f8 <fprintf@plt>:
 80484f8:	ff 25 a8 5a 05 08    	jmp    *0x8055aa8
 80484fe:	68 58 00 00 00       	push   $0x58
 8048503:	e9 30 ff ff ff       	jmp    8048438 <_init+0x18>

08048508 <time@plt>:
 8048508:	ff 25 ac 5a 05 08    	jmp    *0x8055aac
 804850e:	68 60 00 00 00       	push   $0x60
 8048513:	e9 20 ff ff ff       	jmp    8048438 <_init+0x18>

08048518 <malloc@plt>:
 8048518:	ff 25 b0 5a 05 08    	jmp    *0x8055ab0
 804851e:	68 68 00 00 00       	push   $0x68
 8048523:	e9 10 ff ff ff       	jmp    8048438 <_init+0x18>
Disassembly of section .text:

08048530 <_start>:
 8048530:	31 ed                	xor    %ebp,%ebp
 8048532:	5e                   	pop    %esi
 8048533:	89 e1                	mov    %esp,%ecx
 8048535:	83 e4 f0             	and    $0xfffffff0,%esp
 8048538:	50                   	push   %eax
 8048539:	54                   	push   %esp
 804853a:	52                   	push   %edx
 804853b:	68 d0 3a 05 08       	push   $0x8053ad0
 8048540:	68 e0 3a 05 08       	push   $0x8053ae0
 8048545:	51                   	push   %ecx
 8048546:	56                   	push   %esi
 8048547:	68 50 3a 05 08       	push   $0x8053a50
 804854c:	e8 37 ff ff ff       	call   8048488 <__libc_start_main@plt>
 8048551:	f4                   	hlt    
 8048552:	90                   	nop    
 8048553:	90                   	nop    

08048554 <call_gmon_start>:
 8048554:	55                   	push   %ebp
 8048555:	89 e5                	mov    %esp,%ebp
 8048557:	53                   	push   %ebx
 8048558:	83 ec 04             	sub    $0x4,%esp
 804855b:	e8 00 00 00 00       	call   8048560 <call_gmon_start+0xc>
 8048560:	5b                   	pop    %ebx
 8048561:	81 c3 10 d5 00 00    	add    $0xd510,%ebx
 8048567:	8b 93 fc ff ff ff    	mov    0xfffffffc(%ebx),%edx
 804856d:	85 d2                	test   %edx,%edx
 804856f:	74 05                	je     8048576 <call_gmon_start+0x22>
 8048571:	e8 e2 fe ff ff       	call   8048458 <__gmon_start__@plt>
 8048576:	58                   	pop    %eax
 8048577:	5b                   	pop    %ebx
 8048578:	c9                   	leave  
 8048579:	c3                   	ret    
 804857a:	90                   	nop    
 804857b:	90                   	nop    
 804857c:	90                   	nop    
 804857d:	90                   	nop    
 804857e:	90                   	nop    
 804857f:	90                   	nop    

08048580 <__do_global_dtors_aux>:
 8048580:	55                   	push   %ebp
 8048581:	89 e5                	mov    %esp,%ebp
 8048583:	53                   	push   %ebx
 8048584:	83 ec 04             	sub    $0x4,%esp
 8048587:	80 3d cc 5a 05 08 00 	cmpb   $0x0,0x8055acc
 804858e:	75 3f                	jne    80485cf <__do_global_dtors_aux+0x4f>
 8048590:	b8 9c 59 05 08       	mov    $0x805599c,%eax
 8048595:	2d 98 59 05 08       	sub    $0x8055998,%eax
 804859a:	c1 f8 02             	sar    $0x2,%eax
 804859d:	8d 58 ff             	lea    0xffffffff(%eax),%ebx
 80485a0:	a1 c8 5a 05 08       	mov    0x8055ac8,%eax
 80485a5:	39 c3                	cmp    %eax,%ebx
 80485a7:	76 1f                	jbe    80485c8 <__do_global_dtors_aux+0x48>
 80485a9:	8d b4 26 00 00 00 00 	lea    0x0(%esi),%esi
 80485b0:	83 c0 01             	add    $0x1,%eax
 80485b3:	a3 c8 5a 05 08       	mov    %eax,0x8055ac8
 80485b8:	ff 14 85 98 59 05 08 	call   *0x8055998(,%eax,4)
 80485bf:	a1 c8 5a 05 08       	mov    0x8055ac8,%eax
 80485c4:	39 c3                	cmp    %eax,%ebx
 80485c6:	77 e8                	ja     80485b0 <__do_global_dtors_aux+0x30>
 80485c8:	c6 05 cc 5a 05 08 01 	movb   $0x1,0x8055acc
 80485cf:	83 c4 04             	add    $0x4,%esp
 80485d2:	5b                   	pop    %ebx
 80485d3:	5d                   	pop    %ebp
 80485d4:	c3                   	ret    
 80485d5:	8d 74 26 00          	lea    0x0(%esi),%esi
 80485d9:	8d bc 27 00 00 00 00 	lea    0x0(%edi),%edi

080485e0 <frame_dummy>:
 80485e0:	55                   	push   %ebp
 80485e1:	89 e5                	mov    %esp,%ebp
 80485e3:	83 ec 08             	sub    $0x8,%esp
 80485e6:	a1 a0 59 05 08       	mov    0x80559a0,%eax
 80485eb:	85 c0                	test   %eax,%eax
 80485ed:	74 12                	je     8048601 <frame_dummy+0x21>
 80485ef:	b8 00 00 00 00       	mov    $0x0,%eax
 80485f4:	85 c0                	test   %eax,%eax
 80485f6:	74 09                	je     8048601 <frame_dummy+0x21>
 80485f8:	c7 04 24 a0 59 05 08 	movl   $0x80559a0,(%esp)
 80485ff:	ff d0                	call   *%eax
 8048601:	c9                   	leave  
 8048602:	c3                   	ret    
 8048603:	90                   	nop    
 8048604:	90                   	nop    
 8048605:	90                   	nop    
 8048606:	90                   	nop    
 8048607:	90                   	nop    
 8048608:	90                   	nop    
 8048609:	90                   	nop    
 804860a:	90                   	nop    
 804860b:	90                   	nop    
 804860c:	90                   	nop    
 804860d:	90                   	nop    
 804860e:	90                   	nop    
 804860f:	90                   	nop    

08048610 <myListCmp>:
 8048610:	55                   	push   %ebp
 8048611:	89 e5                	mov    %esp,%ebp
 8048613:	8b 45 08             	mov    0x8(%ebp),%eax
 8048616:	8b 55 0c             	mov    0xc(%ebp),%edx
 8048619:	5d                   	pop    %ebp
 804861a:	8b 00                	mov    (%eax),%eax
 804861c:	2b 02                	sub    (%edx),%eax
 804861e:	c3                   	ret    
 804861f:	90                   	nop    

08048620 <slistHashFunction>:
 8048620:	55                   	push   %ebp
 8048621:	89 e5                	mov    %esp,%ebp
 8048623:	8b 45 08             	mov    0x8(%ebp),%eax
 8048626:	5d                   	pop    %ebp
 8048627:	8b 00                	mov    (%eax),%eax
 8048629:	c3                   	ret    
 804862a:	8d b6 00 00 00 00    	lea    0x0(%esi),%esi

08048630 <sglib_SimpleList_is_member>:
 8048630:	55                   	push   %ebp
 8048631:	89 e5                	mov    %esp,%ebp
 8048633:	8b 55 08             	mov    0x8(%ebp),%edx
 8048636:	8b 4d 0c             	mov    0xc(%ebp),%ecx
 8048639:	85 d2                	test   %edx,%edx
 804863b:	74 1b                	je     8048658 <sglib_SimpleList_is_member+0x28>
 804863d:	39 ca                	cmp    %ecx,%edx
 804863f:	89 d0                	mov    %edx,%eax
 8048641:	74 15                	je     8048658 <sglib_SimpleList_is_member+0x28>
 8048643:	8b 40 04             	mov    0x4(%eax),%eax
 8048646:	85 c0                	test   %eax,%eax
 8048648:	74 04                	je     804864e <sglib_SimpleList_is_member+0x1e>
 804864a:	39 c1                	cmp    %eax,%ecx
 804864c:	75 f5                	jne    8048643 <sglib_SimpleList_is_member+0x13>
 804864e:	85 c0                	test   %eax,%eax
 8048650:	5d                   	pop    %ebp
 8048651:	0f 95 c0             	setne  %al
 8048654:	0f b6 c0             	movzbl %al,%eax
 8048657:	c3                   	ret    
 8048658:	89 d0                	mov    %edx,%eax
 804865a:	85 c0                	test   %eax,%eax
 804865c:	5d                   	pop    %ebp
 804865d:	0f 95 c0             	setne  %al
 8048660:	0f b6 c0             	movzbl %al,%eax
 8048663:	c3                   	ret    
 8048664:	8d b6 00 00 00 00    	lea    0x0(%esi),%esi
 804866a:	8d bf 00 00 00 00    	lea    0x0(%edi),%edi

08048670 <sglib_SimpleList_find_member>:
 8048670:	55                   	push   %ebp
 8048671:	89 e5                	mov    %esp,%ebp
 8048673:	8b 4d 08             	mov    0x8(%ebp),%ecx
 8048676:	85 c9                	test   %ecx,%ecx
 8048678:	74 1a                	je     8048694 <sglib_SimpleList_find_member+0x24>
 804867a:	8b 45 0c             	mov    0xc(%ebp),%eax
 804867d:	8b 10                	mov    (%eax),%edx
 804867f:	39 11                	cmp    %edx,(%ecx)
 8048681:	74 11                	je     8048694 <sglib_SimpleList_find_member+0x24>
 8048683:	89 c8                	mov    %ecx,%eax
 8048685:	eb 04                	jmp    804868b <sglib_SimpleList_find_member+0x1b>
 8048687:	39 10                	cmp    %edx,(%eax)
 8048689:	74 07                	je     8048692 <sglib_SimpleList_find_member+0x22>
 804868b:	8b 40 04             	mov    0x4(%eax),%eax
 804868e:	85 c0                	test   %eax,%eax
 8048690:	75 f5                	jne    8048687 <sglib_SimpleList_find_member+0x17>
 8048692:	5d                   	pop    %ebp
 8048693:	c3                   	ret    
 8048694:	5d                   	pop    %ebp
 8048695:	89 c8                	mov    %ecx,%eax
 8048697:	c3                   	ret    
 8048698:	90                   	nop    
 8048699:	8d b4 26 00 00 00 00 	lea    0x0(%esi),%esi

080486a0 <sglib_SimpleList_add_if_not_member>:
 80486a0:	55                   	push   %ebp
 80486a1:	89 e5                	mov    %esp,%ebp
 80486a3:	56                   	push   %esi
 80486a4:	53                   	push   %ebx
 80486a5:	8b 5d 08             	mov    0x8(%ebp),%ebx
 80486a8:	8b 4d 0c             	mov    0xc(%ebp),%ecx
 80486ab:	8b 75 10             	mov    0x10(%ebp),%esi
 80486ae:	8b 03                	mov    (%ebx),%eax
 80486b0:	85 c0                	test   %eax,%eax
 80486b2:	74 1d                	je     80486d1 <sglib_SimpleList_add_if_not_member+0x31>
 80486b4:	8b 11                	mov    (%ecx),%edx
 80486b6:	eb 07                	jmp    80486bf <sglib_SimpleList_add_if_not_member+0x1f>
 80486b8:	8b 40 04             	mov    0x4(%eax),%eax
 80486bb:	85 c0                	test   %eax,%eax
 80486bd:	74 12                	je     80486d1 <sglib_SimpleList_add_if_not_member+0x31>
 80486bf:	39 10                	cmp    %edx,(%eax)
 80486c1:	75 f5                	jne    80486b8 <sglib_SimpleList_add_if_not_member+0x18>
 80486c3:	89 06                	mov    %eax,(%esi)
 80486c5:	31 c0                	xor    %eax,%eax
 80486c7:	83 3e 00             	cmpl   $0x0,(%esi)
 80486ca:	5b                   	pop    %ebx
 80486cb:	5e                   	pop    %esi
 80486cc:	5d                   	pop    %ebp
 80486cd:	0f 94 c0             	sete   %al
 80486d0:	c3                   	ret    
 80486d1:	c7 06 00 00 00 00    	movl   $0x0,(%esi)
 80486d7:	8b 03                	mov    (%ebx),%eax
 80486d9:	89 41 04             	mov    %eax,0x4(%ecx)
 80486dc:	31 c0                	xor    %eax,%eax
 80486de:	89 0b                	mov    %ecx,(%ebx)
 80486e0:	83 3e 00             	cmpl   $0x0,(%esi)
 80486e3:	5b                   	pop    %ebx
 80486e4:	5e                   	pop    %esi
 80486e5:	5d                   	pop    %ebp
 80486e6:	0f 94 c0             	sete   %al
 80486e9:	c3                   	ret    
 80486ea:	8d b6 00 00 00 00    	lea    0x0(%esi),%esi

080486f0 <sglib_SimpleList_add>:
 80486f0:	55                   	push   %ebp
 80486f1:	89 e5                	mov    %esp,%ebp
 80486f3:	8b 4d 08             	mov    0x8(%ebp),%ecx
 80486f6:	8b 55 0c             	mov    0xc(%ebp),%edx
 80486f9:	8b 01                	mov    (%ecx),%eax
 80486fb:	89 42 04             	mov    %eax,0x4(%edx)
 80486fe:	89 11                	mov    %edx,(%ecx)
 8048700:	5d                   	pop    %ebp
 8048701:	c3                   	ret    
 8048702:	8d b4 26 00 00 00 00 	lea    0x0(%esi),%esi
 8048709:	8d bc 27 00 00 00 00 	lea    0x0(%edi),%edi

08048710 <sglib_SimpleList_concat>:
 8048710:	55                   	push   %ebp
 8048711:	89 e5                	mov    %esp,%ebp
 8048713:	8b 45 08             	mov    0x8(%ebp),%eax
 8048716:	8b 4d 0c             	mov    0xc(%ebp),%ecx
 8048719:	8b 10                	mov    (%eax),%edx
 804871b:	85 d2                	test   %edx,%edx
 804871d:	75 04                	jne    8048723 <sglib_SimpleList_concat+0x13>
 804871f:	eb 10                	jmp    8048731 <sglib_SimpleList_concat+0x21>
 8048721:	89 c2                	mov    %eax,%edx
 8048723:	8b 42 04             	mov    0x4(%edx),%eax
 8048726:	85 c0                	test   %eax,%eax
 8048728:	75 f7                	jne    8048721 <sglib_SimpleList_concat+0x11>
 804872a:	89 4a 04             	mov    %ecx,0x4(%edx)
 804872d:	5d                   	pop    %ebp
 804872e:	66 90                	xchg   %ax,%ax
 8048730:	c3                   	ret    
 8048731:	89 08                	mov    %ecx,(%eax)
 8048733:	5d                   	pop    %ebp
 8048734:	c3                   	ret    
 8048735:	8d 74 26 00          	lea    0x0(%esi),%esi
 8048739:	8d bc 27 00 00 00 00 	lea    0x0(%edi),%edi

08048740 <sglib_SimpleList_delete_if_member>:
 8048740:	55                   	push   %ebp
 8048741:	89 e5                	mov    %esp,%ebp
 8048743:	8b 4d 08             	mov    0x8(%ebp),%ecx
 8048746:	53                   	push   %ebx
 8048747:	8b 5d 10             	mov    0x10(%ebp),%ebx
 804874a:	8b 11                	mov    (%ecx),%edx
 804874c:	85 d2                	test   %edx,%edx
 804874e:	74 15                	je     8048765 <sglib_SimpleList_delete_if_member+0x25>
 8048750:	8b 45 0c             	mov    0xc(%ebp),%eax
 8048753:	8b 00                	mov    (%eax),%eax
 8048755:	eb 0a                	jmp    8048761 <sglib_SimpleList_delete_if_member+0x21>
 8048757:	8d 4a 04             	lea    0x4(%edx),%ecx
 804875a:	8b 52 04             	mov    0x4(%edx),%edx
 804875d:	85 d2                	test   %edx,%edx
 804875f:	74 04                	je     8048765 <sglib_SimpleList_delete_if_member+0x25>
 8048761:	39 02                	cmp    %eax,(%edx)
 8048763:	75 f2                	jne    8048757 <sglib_SimpleList_delete_if_member+0x17>
 8048765:	89 13                	mov    %edx,(%ebx)
 8048767:	8b 01                	mov    (%ecx),%eax
 8048769:	85 c0                	test   %eax,%eax
 804876b:	74 05                	je     8048772 <sglib_SimpleList_delete_if_member+0x32>
 804876d:	8b 40 04             	mov    0x4(%eax),%eax
 8048770:	89 01                	mov    %eax,(%ecx)
 8048772:	31 c0                	xor    %eax,%eax
 8048774:	83 3b 00             	cmpl   $0x0,(%ebx)
 8048777:	5b                   	pop    %ebx
 8048778:	5d                   	pop    %ebp
 8048779:	0f 95 c0             	setne  %al
 804877c:	c3                   	ret    
 804877d:	8d 76 00             	lea    0x0(%esi),%esi

08048780 <sglib_SimpleList_sort>:
 8048780:	55                   	push   %ebp
 8048781:	89 e5                	mov    %esp,%ebp
 8048783:	57                   	push   %edi
 8048784:	bf 01 00 00 00       	mov    $0x1,%edi
 8048789:	56                   	push   %esi
 804878a:	53                   	push   %ebx
 804878b:	83 ec 18             	sub    $0x18,%esp
 804878e:	8b 55 08             	mov    0x8(%ebp),%edx
 8048791:	8b 02                	mov    (%edx),%eax
 8048793:	89 c3                	mov    %eax,%ebx
 8048795:	89 45 f0             	mov    %eax,0xfffffff0(%ebp)
 8048798:	31 c0                	xor    %eax,%eax
 804879a:	85 db                	test   %ebx,%ebx
 804879c:	c7 45 f0 00 00 00 00 	movl   $0x0,0xfffffff0(%ebp)
 80487a3:	74 4f                	je     80487f4 <sglib_SimpleList_sort+0x74>
 80487a5:	83 ff 01             	cmp    $0x1,%edi
 80487a8:	89 d8                	mov    %ebx,%eax
 80487aa:	0f 9f 45 e3          	setg   0xffffffe3(%ebp)
 80487ae:	8d 75 f0             	lea    0xfffffff0(%ebp),%esi
 80487b1:	c7 45 dc 00 00 00 00 	movl   $0x0,0xffffffdc(%ebp)
 80487b8:	80 7d e3 00          	cmpb   $0x0,0xffffffe3(%ebp)
 80487bc:	74 43                	je     8048801 <sglib_SimpleList_sort+0x81>
 80487be:	85 c0                	test   %eax,%eax
 80487c0:	74 13                	je     80487d5 <sglib_SimpleList_sort+0x55>
 80487c2:	ba 01 00 00 00       	mov    $0x1,%edx
 80487c7:	83 c2 01             	add    $0x1,%edx
 80487ca:	8b 40 04             	mov    0x4(%eax),%eax
 80487cd:	39 d7                	cmp    %edx,%edi
 80487cf:	7e 30                	jle    8048801 <sglib_SimpleList_sort+0x81>
 80487d1:	85 c0                	test   %eax,%eax
 80487d3:	75 f2                	jne    80487c7 <sglib_SimpleList_sort+0x47>
 80487d5:	8b 45 dc             	mov    0xffffffdc(%ebp),%eax
 80487d8:	89 1e                	mov    %ebx,(%esi)
 80487da:	85 c0                	test   %eax,%eax
 80487dc:	0f 84 b8 00 00 00    	je     804889a <sglib_SimpleList_sort+0x11a>
 80487e2:	8b 5d f0             	mov    0xfffffff0(%ebp),%ebx
 80487e5:	01 ff                	add    %edi,%edi
 80487e7:	31 c0                	xor    %eax,%eax
 80487e9:	c7 45 f0 00 00 00 00 	movl   $0x0,0xfffffff0(%ebp)
 80487f0:	85 db                	test   %ebx,%ebx
 80487f2:	75 b1                	jne    80487a5 <sglib_SimpleList_sort+0x25>
 80487f4:	8b 55 08             	mov    0x8(%ebp),%edx
 80487f7:	89 02                	mov    %eax,(%edx)
 80487f9:	83 c4 18             	add    $0x18,%esp
 80487fc:	5b                   	pop    %ebx
 80487fd:	5e                   	pop    %esi
 80487fe:	5f                   	pop    %edi
 80487ff:	5d                   	pop    %ebp
 8048800:	c3                   	ret    
 8048801:	85 c0                	test   %eax,%eax
 8048803:	74 d0                	je     80487d5 <sglib_SimpleList_sort+0x55>
 8048805:	80 7d e3 00          	cmpb   $0x0,0xffffffe3(%ebp)
 8048809:	8b 50 04             	mov    0x4(%eax),%edx
 804880c:	c7 40 04 00 00 00 00 	movl   $0x0,0x4(%eax)
 8048813:	74 5b                	je     8048870 <sglib_SimpleList_sort+0xf0>
 8048815:	85 d2                	test   %edx,%edx
 8048817:	89 d0                	mov    %edx,%eax
 8048819:	b9 01 00 00 00       	mov    $0x1,%ecx
 804881e:	74 50                	je     8048870 <sglib_SimpleList_sort+0xf0>
 8048820:	83 c1 01             	add    $0x1,%ecx
 8048823:	8b 40 04             	mov    0x4(%eax),%eax
 8048826:	39 cf                	cmp    %ecx,%edi
 8048828:	7e 48                	jle    8048872 <sglib_SimpleList_sort+0xf2>
 804882a:	85 c0                	test   %eax,%eax
 804882c:	75 f2                	jne    8048820 <sglib_SimpleList_sort+0xa0>
 804882e:	31 c9                	xor    %ecx,%ecx
 8048830:	89 d8                	mov    %ebx,%eax
 8048832:	85 c0                	test   %eax,%eax
 8048834:	74 1a                	je     8048850 <sglib_SimpleList_sort+0xd0>
 8048836:	85 d2                	test   %edx,%edx
 8048838:	74 48                	je     8048882 <sglib_SimpleList_sort+0x102>
 804883a:	8b 1a                	mov    (%edx),%ebx
 804883c:	39 18                	cmp    %ebx,(%eax)
 804883e:	78 50                	js     8048890 <sglib_SimpleList_sort+0x110>
 8048840:	85 c0                	test   %eax,%eax
 8048842:	89 16                	mov    %edx,(%esi)
 8048844:	8d 72 04             	lea    0x4(%edx),%esi
 8048847:	8b 52 04             	mov    0x4(%edx),%edx
 804884a:	75 ea                	jne    8048836 <sglib_SimpleList_sort+0xb6>
 804884c:	8d 74 26 00          	lea    0x0(%esi),%esi
 8048850:	85 d2                	test   %edx,%edx
 8048852:	89 16                	mov    %edx,(%esi)
 8048854:	75 54                	jne    80488aa <sglib_SimpleList_sort+0x12a>
 8048856:	85 c9                	test   %ecx,%ecx
 8048858:	89 c8                	mov    %ecx,%eax
 804885a:	c7 45 dc 01 00 00 00 	movl   $0x1,0xffffffdc(%ebp)
 8048861:	0f 84 7b ff ff ff    	je     80487e2 <sglib_SimpleList_sort+0x62>
 8048867:	89 cb                	mov    %ecx,%ebx
 8048869:	e9 4a ff ff ff       	jmp    80487b8 <sglib_SimpleList_sort+0x38>
 804886e:	66 90                	xchg   %ax,%ax
 8048870:	89 d0                	mov    %edx,%eax
 8048872:	85 c0                	test   %eax,%eax
 8048874:	74 b8                	je     804882e <sglib_SimpleList_sort+0xae>
 8048876:	8b 48 04             	mov    0x4(%eax),%ecx
 8048879:	c7 40 04 00 00 00 00 	movl   $0x0,0x4(%eax)
 8048880:	eb ae                	jmp    8048830 <sglib_SimpleList_sort+0xb0>
 8048882:	89 06                	mov    %eax,(%esi)
 8048884:	8d 70 04             	lea    0x4(%eax),%esi
 8048887:	8b 40 04             	mov    0x4(%eax),%eax
 804888a:	85 c0                	test   %eax,%eax
 804888c:	74 c8                	je     8048856 <sglib_SimpleList_sort+0xd6>
 804888e:	eb f4                	jmp    8048884 <sglib_SimpleList_sort+0x104>
 8048890:	89 06                	mov    %eax,(%esi)
 8048892:	8d 70 04             	lea    0x4(%eax),%esi
 8048895:	8b 40 04             	mov    0x4(%eax),%eax
 8048898:	eb 98                	jmp    8048832 <sglib_SimpleList_sort+0xb2>
 804889a:	8b 45 f0             	mov    0xfffffff0(%ebp),%eax
 804889d:	8b 55 08             	mov    0x8(%ebp),%edx
 80488a0:	89 02                	mov    %eax,(%edx)
 80488a2:	83 c4 18             	add    $0x18,%esp
 80488a5:	5b                   	pop    %ebx
 80488a6:	5e                   	pop    %esi
 80488a7:	5f                   	pop    %edi
 80488a8:	5d                   	pop    %ebp
 80488a9:	c3                   	ret    
 80488aa:	89 d0                	mov    %edx,%eax
 80488ac:	eb d6                	jmp    8048884 <sglib_SimpleList_sort+0x104>
 80488ae:	66 90                	xchg   %ax,%ax

080488b0 <sglib_SimpleList_len>:
 80488b0:	55                   	push   %ebp
 80488b1:	31 d2                	xor    %edx,%edx
 80488b3:	89 e5                	mov    %esp,%ebp
 80488b5:	8b 45 08             	mov    0x8(%ebp),%eax
 80488b8:	85 c0                	test   %eax,%eax
 80488ba:	74 0e                	je     80488ca <sglib_SimpleList_len+0x1a>
 80488bc:	8d 74 26 00          	lea    0x0(%esi),%esi
 80488c0:	8b 40 04             	mov    0x4(%eax),%eax
 80488c3:	83 c2 01             	add    $0x1,%edx
 80488c6:	85 c0                	test   %eax,%eax
 80488c8:	75 f6                	jne    80488c0 <sglib_SimpleList_len+0x10>
 80488ca:	5d                   	pop    %ebp
 80488cb:	89 d0                	mov    %edx,%eax
 80488cd:	c3                   	ret    
 80488ce:	66 90                	xchg   %ax,%ax

080488d0 <sglib_SimpleList_reverse>:
 80488d0:	55                   	push   %ebp
 80488d1:	31 d2                	xor    %edx,%edx
 80488d3:	89 e5                	mov    %esp,%ebp
 80488d5:	53                   	push   %ebx
 80488d6:	8b 5d 08             	mov    0x8(%ebp),%ebx
 80488d9:	8b 03                	mov    (%ebx),%eax
 80488db:	85 c0                	test   %eax,%eax
 80488dd:	74 14                	je     80488f3 <sglib_SimpleList_reverse+0x23>
 80488df:	31 c9                	xor    %ecx,%ecx
 80488e1:	eb 02                	jmp    80488e5 <sglib_SimpleList_reverse+0x15>
 80488e3:	89 d0                	mov    %edx,%eax
 80488e5:	8b 50 04             	mov    0x4(%eax),%edx
 80488e8:	89 48 04             	mov    %ecx,0x4(%eax)
 80488eb:	89 c1                	mov    %eax,%ecx
 80488ed:	85 d2                	test   %edx,%edx
 80488ef:	75 f2                	jne    80488e3 <sglib_SimpleList_reverse+0x13>
 80488f1:	89 c2                	mov    %eax,%edx
 80488f3:	89 13                	mov    %edx,(%ebx)
 80488f5:	5b                   	pop    %ebx
 80488f6:	5d                   	pop    %ebp
 80488f7:	c3                   	ret    
 80488f8:	90                   	nop    
 80488f9:	8d b4 26 00 00 00 00 	lea    0x0(%esi),%esi

08048900 <sglib_SimpleList_it_current>:
 8048900:	55                   	push   %ebp
 8048901:	89 e5                	mov    %esp,%ebp
 8048903:	8b 45 08             	mov    0x8(%ebp),%eax
 8048906:	5d                   	pop    %ebp
 8048907:	8b 00                	mov    (%eax),%eax
 8048909:	c3                   	ret    
 804890a:	8d b6 00 00 00 00    	lea    0x0(%esi),%esi

08048910 <sglib_SimpleList_it_next>:
 8048910:	55                   	push   %ebp
 8048911:	89 e5                	mov    %esp,%ebp
 8048913:	57                   	push   %edi
 8048914:	56                   	push   %esi
 8048915:	53                   	push   %ebx
 8048916:	83 ec 0c             	sub    $0xc,%esp
 8048919:	8b 45 08             	mov    0x8(%ebp),%eax
 804891c:	8b 78 08             	mov    0x8(%eax),%edi
 804891f:	8b 58 04             	mov    0x4(%eax),%ebx
 8048922:	c7 40 04 00 00 00 00 	movl   $0x0,0x4(%eax)
 8048929:	85 ff                	test   %edi,%edi
 804892b:	74 41                	je     804896e <sglib_SimpleList_it_next+0x5e>
 804892d:	85 db                	test   %ebx,%ebx
 804892f:	8b 70 0c             	mov    0xc(%eax),%esi
 8048932:	75 09                	jne    804893d <sglib_SimpleList_it_next+0x2d>
 8048934:	eb 29                	jmp    804895f <sglib_SimpleList_it_next+0x4f>
 8048936:	8b 5b 04             	mov    0x4(%ebx),%ebx
 8048939:	85 db                	test   %ebx,%ebx
 804893b:	74 22                	je     804895f <sglib_SimpleList_it_next+0x4f>
 804893d:	89 74 24 04          	mov    %esi,0x4(%esp)
 8048941:	89 1c 24             	mov    %ebx,(%esp)
 8048944:	ff d7                	call   *%edi
 8048946:	85 c0                	test   %eax,%eax
 8048948:	75 ec                	jne    8048936 <sglib_SimpleList_it_next+0x26>
 804894a:	8b 55 08             	mov    0x8(%ebp),%edx
 804894d:	89 1a                	mov    %ebx,(%edx)
 804894f:	8b 43 04             	mov    0x4(%ebx),%eax
 8048952:	89 42 04             	mov    %eax,0x4(%edx)
 8048955:	83 c4 0c             	add    $0xc,%esp
 8048958:	89 d8                	mov    %ebx,%eax
 804895a:	5b                   	pop    %ebx
 804895b:	5e                   	pop    %esi
 804895c:	5f                   	pop    %edi
 804895d:	5d                   	pop    %ebp
 804895e:	c3                   	ret    
 804895f:	8b 45 08             	mov    0x8(%ebp),%eax
 8048962:	89 18                	mov    %ebx,(%eax)
 8048964:	83 c4 0c             	add    $0xc,%esp
 8048967:	89 d8                	mov    %ebx,%eax
 8048969:	5b                   	pop    %ebx
 804896a:	5e                   	pop    %esi
 804896b:	5f                   	pop    %edi
 804896c:	5d                   	pop    %ebp
 804896d:	c3                   	ret    
 804896e:	85 db                	test   %ebx,%ebx
 8048970:	89 c2                	mov    %eax,%edx
 8048972:	89 18                	mov    %ebx,(%eax)
 8048974:	75 d9                	jne    804894f <sglib_SimpleList_it_next+0x3f>
 8048976:	eb dd                	jmp    8048955 <sglib_SimpleList_it_next+0x45>
 8048978:	90                   	nop    
 8048979:	8d b4 26 00 00 00 00 	lea    0x0(%esi),%esi

08048980 <sglib_DoubleLinkedList_add>:
 8048980:	55                   	push   %ebp
 8048981:	89 e5                	mov    %esp,%ebp
 8048983:	8b 4d 08             	mov    0x8(%ebp),%ecx
 8048986:	8b 55 0c             	mov    0xc(%ebp),%edx
 8048989:	8b 01                	mov    (%ecx),%eax
 804898b:	85 c0                	test   %eax,%eax
 804898d:	74 21                	je     80489b0 <sglib_DoubleLinkedList_add+0x30>
 804898f:	89 42 04             	mov    %eax,0x4(%edx)
 8048992:	8b 01                	mov    (%ecx),%eax
 8048994:	8b 40 08             	mov    0x8(%eax),%eax
 8048997:	89 42 08             	mov    %eax,0x8(%edx)
 804899a:	8b 01                	mov    (%ecx),%eax
 804899c:	89 50 08             	mov    %edx,0x8(%eax)
 804899f:	8b 42 08             	mov    0x8(%edx),%eax
 80489a2:	85 c0                	test   %eax,%eax
 80489a4:	74 03                	je     80489a9 <sglib_DoubleLinkedList_add+0x29>
 80489a6:	89 50 04             	mov    %edx,0x4(%eax)
 80489a9:	5d                   	pop    %ebp
 80489aa:	c3                   	ret    
 80489ab:	90                   	nop    
 80489ac:	8d 74 26 00          	lea    0x0(%esi),%esi
 80489b0:	89 11                	mov    %edx,(%ecx)
 80489b2:	c7 42 08 00 00 00 00 	movl   $0x0,0x8(%edx)
 80489b9:	c7 42 04 00 00 00 00 	movl   $0x0,0x4(%edx)
 80489c0:	5d                   	pop    %ebp
 80489c1:	c3                   	ret    
 80489c2:	8d b4 26 00 00 00 00 	lea    0x0(%esi),%esi
 80489c9:	8d bc 27 00 00 00 00 	lea    0x0(%edi),%edi

080489d0 <sglib_DoubleLinkedList_add_after>:
 80489d0:	55                   	push   %ebp
 80489d1:	89 e5                	mov    %esp,%ebp
 80489d3:	8b 4d 08             	mov    0x8(%ebp),%ecx
 80489d6:	8b 55 0c             	mov    0xc(%ebp),%edx
 80489d9:	8b 01                	mov    (%ecx),%eax
 80489db:	85 c0                	test   %eax,%eax
 80489dd:	74 21                	je     8048a00 <sglib_DoubleLinkedList_add_after+0x30>
 80489df:	8b 40 04             	mov    0x4(%eax),%eax
 80489e2:	89 42 04             	mov    %eax,0x4(%edx)
 80489e5:	8b 01                	mov    (%ecx),%eax
 80489e7:	89 42 08             	mov    %eax,0x8(%edx)
 80489ea:	8b 01                	mov    (%ecx),%eax
 80489ec:	89 50 04             	mov    %edx,0x4(%eax)
 80489ef:	8b 42 04             	mov    0x4(%edx),%eax
 80489f2:	85 c0                	test   %eax,%eax
 80489f4:	74 03                	je     80489f9 <sglib_DoubleLinkedList_add_after+0x29>
 80489f6:	89 50 08             	mov    %edx,0x8(%eax)
 80489f9:	5d                   	pop    %ebp
 80489fa:	c3                   	ret    
 80489fb:	90                   	nop    
 80489fc:	8d 74 26 00          	lea    0x0(%esi),%esi
 8048a00:	89 11                	mov    %edx,(%ecx)
 8048a02:	c7 42 08 00 00 00 00 	movl   $0x0,0x8(%edx)
 8048a09:	c7 42 04 00 00 00 00 	movl   $0x0,0x4(%edx)
 8048a10:	5d                   	pop    %ebp
 8048a11:	c3                   	ret    
 8048a12:	8d b4 26 00 00 00 00 	lea    0x0(%esi),%esi
 8048a19:	8d bc 27 00 00 00 00 	lea    0x0(%edi),%edi

08048a20 <sglib_DoubleLinkedList_add_before>:
 8048a20:	55                   	push   %ebp
 8048a21:	89 e5                	mov    %esp,%ebp
 8048a23:	8b 4d 08             	mov    0x8(%ebp),%ecx
 8048a26:	8b 55 0c             	mov    0xc(%ebp),%edx
 8048a29:	8b 01                	mov    (%ecx),%eax
 8048a2b:	85 c0                	test   %eax,%eax
 8048a2d:	74 21                	je     8048a50 <sglib_DoubleLinkedList_add_before+0x30>
 8048a2f:	89 42 04             	mov    %eax,0x4(%edx)
 8048a32:	8b 01                	mov    (%ecx),%eax
 8048a34:	8b 40 08             	mov    0x8(%eax),%eax
 8048a37:	89 42 08             	mov    %eax,0x8(%edx)
 8048a3a:	8b 01                	mov    (%ecx),%eax
 8048a3c:	89 50 08             	mov    %edx,0x8(%eax)
 8048a3f:	8b 42 08             	mov    0x8(%edx),%eax
 8048a42:	85 c0                	test   %eax,%eax
 8048a44:	74 03                	je     8048a49 <sglib_DoubleLinkedList_add_before+0x29>
 8048a46:	89 50 04             	mov    %edx,0x4(%eax)
 8048a49:	5d                   	pop    %ebp
 8048a4a:	c3                   	ret    
 8048a4b:	90                   	nop    
 8048a4c:	8d 74 26 00          	lea    0x0(%esi),%esi
 8048a50:	89 11                	mov    %edx,(%ecx)
 8048a52:	c7 42 08 00 00 00 00 	movl   $0x0,0x8(%edx)
 8048a59:	c7 42 04 00 00 00 00 	movl   $0x0,0x4(%edx)
 8048a60:	5d                   	pop    %ebp
 8048a61:	c3                   	ret    
 8048a62:	8d b4 26 00 00 00 00 	lea    0x0(%esi),%esi
 8048a69:	8d bc 27 00 00 00 00 	lea    0x0(%edi),%edi

08048a70 <sglib_DoubleLinkedList_add_if_not_member>:
 8048a70:	55                   	push   %ebp
 8048a71:	89 e5                	mov    %esp,%ebp
 8048a73:	57                   	push   %edi
 8048a74:	56                   	push   %esi
 8048a75:	53                   	push   %ebx
 8048a76:	8b 75 08             	mov    0x8(%ebp),%esi
 8048a79:	8b 5d 0c             	mov    0xc(%ebp),%ebx
 8048a7c:	8b 7d 10             	mov    0x10(%ebp),%edi
 8048a7f:	8b 16                	mov    (%esi),%edx
 8048a81:	85 d2                	test   %edx,%edx
 8048a83:	74 2d                	je     8048ab2 <sglib_DoubleLinkedList_add_if_not_member+0x42>
 8048a85:	8b 0b                	mov    (%ebx),%ecx
 8048a87:	39 0a                	cmp    %ecx,(%edx)
 8048a89:	74 58                	je     8048ae3 <sglib_DoubleLinkedList_add_if_not_member+0x73>
 8048a8b:	89 d0                	mov    %edx,%eax
 8048a8d:	eb 05                	jmp    8048a94 <sglib_DoubleLinkedList_add_if_not_member+0x24>
 8048a8f:	90                   	nop    
 8048a90:	39 08                	cmp    %ecx,(%eax)
 8048a92:	74 4d                	je     8048ae1 <sglib_DoubleLinkedList_add_if_not_member+0x71>
 8048a94:	8b 40 08             	mov    0x8(%eax),%eax
 8048a97:	85 c0                	test   %eax,%eax
 8048a99:	75 f5                	jne    8048a90 <sglib_DoubleLinkedList_add_if_not_member+0x20>
 8048a9b:	90                   	nop    
 8048a9c:	8d 74 26 00          	lea    0x0(%esi),%esi
 8048aa0:	eb 04                	jmp    8048aa6 <sglib_DoubleLinkedList_add_if_not_member+0x36>
 8048aa2:	39 0a                	cmp    %ecx,(%edx)
 8048aa4:	74 3d                	je     8048ae3 <sglib_DoubleLinkedList_add_if_not_member+0x73>
 8048aa6:	8b 52 04             	mov    0x4(%edx),%edx
 8048aa9:	85 d2                	test   %edx,%edx
 8048aab:	90                   	nop    
 8048aac:	8d 74 26 00          	lea    0x0(%esi),%esi
 8048ab0:	75 f0                	jne    8048aa2 <sglib_DoubleLinkedList_add_if_not_member+0x32>
 8048ab2:	89 17                	mov    %edx,(%edi)
 8048ab4:	8b 06                	mov    (%esi),%eax
 8048ab6:	85 c0                	test   %eax,%eax
 8048ab8:	74 38                	je     8048af2 <sglib_DoubleLinkedList_add_if_not_member+0x82>
 8048aba:	89 43 04             	mov    %eax,0x4(%ebx)
 8048abd:	8b 06                	mov    (%esi),%eax
 8048abf:	8b 40 08             	mov    0x8(%eax),%eax
 8048ac2:	89 43 08             	mov    %eax,0x8(%ebx)
 8048ac5:	8b 06                	mov    (%esi),%eax
 8048ac7:	89 58 08             	mov    %ebx,0x8(%eax)
 8048aca:	8b 43 08             	mov    0x8(%ebx),%eax
 8048acd:	85 c0                	test   %eax,%eax
 8048acf:	74 14                	je     8048ae5 <sglib_DoubleLinkedList_add_if_not_member+0x75>
 8048ad1:	89 58 04             	mov    %ebx,0x4(%eax)
 8048ad4:	31 c0                	xor    %eax,%eax
 8048ad6:	83 3f 00             	cmpl   $0x0,(%edi)
 8048ad9:	5b                   	pop    %ebx
 8048ada:	5e                   	pop    %esi
 8048adb:	5f                   	pop    %edi
 8048adc:	0f 94 c0             	sete   %al
 8048adf:	5d                   	pop    %ebp
 8048ae0:	c3                   	ret    
 8048ae1:	89 c2                	mov    %eax,%edx
 8048ae3:	89 17                	mov    %edx,(%edi)
 8048ae5:	31 c0                	xor    %eax,%eax
 8048ae7:	83 3f 00             	cmpl   $0x0,(%edi)
 8048aea:	5b                   	pop    %ebx
 8048aeb:	5e                   	pop    %esi
 8048aec:	5f                   	pop    %edi
 8048aed:	0f 94 c0             	sete   %al
 8048af0:	5d                   	pop    %ebp
 8048af1:	c3                   	ret    
 8048af2:	89 1e                	mov    %ebx,(%esi)
 8048af4:	c7 43 08 00 00 00 00 	movl   $0x0,0x8(%ebx)
 8048afb:	c7 43 04 00 00 00 00 	movl   $0x0,0x4(%ebx)
 8048b02:	eb e1                	jmp    8048ae5 <sglib_DoubleLinkedList_add_if_not_member+0x75>
 8048b04:	8d b6 00 00 00 00    	lea    0x0(%esi),%esi
 8048b0a:	8d bf 00 00 00 00    	lea    0x0(%edi),%edi

08048b10 <sglib_DoubleLinkedList_add_after_if_not_member>:
 8048b10:	55                   	push   %ebp
 8048b11:	89 e5                	mov    %esp,%ebp
 8048b13:	57                   	push   %edi
 8048b14:	56                   	push   %esi
 8048b15:	53                   	push   %ebx
 8048b16:	8b 75 08             	mov    0x8(%ebp),%esi
 8048b19:	8b 5d 0c             	mov    0xc(%ebp),%ebx
 8048b1c:	8b 7d 10             	mov    0x10(%ebp),%edi
 8048b1f:	8b 16                	mov    (%esi),%edx
 8048b21:	85 d2                	test   %edx,%edx
 8048b23:	74 2d                	je     8048b52 <sglib_DoubleLinkedList_add_after_if_not_member+0x42>
 8048b25:	8b 0b                	mov    (%ebx),%ecx
 8048b27:	39 0a                	cmp    %ecx,(%edx)
 8048b29:	74 58                	je     8048b83 <sglib_DoubleLinkedList_add_after_if_not_member+0x73>
 8048b2b:	89 d0                	mov    %edx,%eax
 8048b2d:	eb 05                	jmp    8048b34 <sglib_DoubleLinkedList_add_after_if_not_member+0x24>
 8048b2f:	90                   	nop    
 8048b30:	39 08                	cmp    %ecx,(%eax)
 8048b32:	74 4d                	je     8048b81 <sglib_DoubleLinkedList_add_after_if_not_member+0x71>
 8048b34:	8b 40 08             	mov    0x8(%eax),%eax
 8048b37:	85 c0                	test   %eax,%eax
 8048b39:	75 f5                	jne    8048b30 <sglib_DoubleLinkedList_add_after_if_not_member+0x20>
 8048b3b:	90                   	nop    
 8048b3c:	8d 74 26 00          	lea    0x0(%esi),%esi
 8048b40:	eb 04                	jmp    8048b46 <sglib_DoubleLinkedList_add_after_if_not_member+0x36>
 8048b42:	39 0a                	cmp    %ecx,(%edx)
 8048b44:	74 3d                	je     8048b83 <sglib_DoubleLinkedList_add_after_if_not_member+0x73>
 8048b46:	8b 52 04             	mov    0x4(%edx),%edx
 8048b49:	85 d2                	test   %edx,%edx
 8048b4b:	90                   	nop    
 8048b4c:	8d 74 26 00          	lea    0x0(%esi),%esi
 8048b50:	75 f0                	jne    8048b42 <sglib_DoubleLinkedList_add_after_if_not_member+0x32>
 8048b52:	89 17                	mov    %edx,(%edi)
 8048b54:	8b 06                	mov    (%esi),%eax
 8048b56:	85 c0                	test   %eax,%eax
 8048b58:	74 38                	je     8048b92 <sglib_DoubleLinkedList_add_after_if_not_member+0x82>
 8048b5a:	8b 40 04             	mov    0x4(%eax),%eax
 8048b5d:	89 43 04             	mov    %eax,0x4(%ebx)
 8048b60:	8b 06                	mov    (%esi),%eax
 8048b62:	89 43 08             	mov    %eax,0x8(%ebx)
 8048b65:	8b 06                	mov    (%esi),%eax
 8048b67:	89 58 04             	mov    %ebx,0x4(%eax)
 8048b6a:	8b 43 04             	mov    0x4(%ebx),%eax
 8048b6d:	85 c0                	test   %eax,%eax
 8048b6f:	74 14                	je     8048b85 <sglib_DoubleLinkedList_add_after_if_not_member+0x75>
 8048b71:	89 58 08             	mov    %ebx,0x8(%eax)
 8048b74:	31 c0                	xor    %eax,%eax
 8048b76:	83 3f 00             	cmpl   $0x0,(%edi)
 8048b79:	5b                   	pop    %ebx
 8048b7a:	5e                   	pop    %esi
 8048b7b:	5f                   	pop    %edi
 8048b7c:	0f 94 c0             	sete   %al
 8048b7f:	5d                   	pop    %ebp
 8048b80:	c3                   	ret    
 8048b81:	89 c2                	mov    %eax,%edx
 8048b83:	89 17                	mov    %edx,(%edi)
 8048b85:	31 c0                	xor    %eax,%eax
 8048b87:	83 3f 00             	cmpl   $0x0,(%edi)
 8048b8a:	5b                   	pop    %ebx
 8048b8b:	5e                   	pop    %esi
 8048b8c:	5f                   	pop    %edi
 8048b8d:	0f 94 c0             	sete   %al
 8048b90:	5d                   	pop    %ebp
 8048b91:	c3                   	ret    
 8048b92:	89 1e                	mov    %ebx,(%esi)
 8048b94:	c7 43 08 00 00 00 00 	movl   $0x0,0x8(%ebx)
 8048b9b:	c7 43 04 00 00 00 00 	movl   $0x0,0x4(%ebx)
 8048ba2:	eb e1                	jmp    8048b85 <sglib_DoubleLinkedList_add_after_if_not_member+0x75>
 8048ba4:	8d b6 00 00 00 00    	lea    0x0(%esi),%esi
 8048baa:	8d bf 00 00 00 00    	lea    0x0(%edi),%edi

08048bb0 <sglib_DoubleLinkedList_add_before_if_not_member>:
 8048bb0:	55                   	push   %ebp
 8048bb1:	89 e5                	mov    %esp,%ebp
 8048bb3:	57                   	push   %edi
 8048bb4:	56                   	push   %esi
 8048bb5:	53                   	push   %ebx
 8048bb6:	8b 75 08             	mov    0x8(%ebp),%esi
 8048bb9:	8b 5d 0c             	mov    0xc(%ebp),%ebx
 8048bbc:	8b 7d 10             	mov    0x10(%ebp),%edi
 8048bbf:	8b 16                	mov    (%esi),%edx
 8048bc1:	85 d2                	test   %edx,%edx
 8048bc3:	74 2d                	je     8048bf2 <sglib_DoubleLinkedList_add_before_if_not_member+0x42>
 8048bc5:	8b 0b                	mov    (%ebx),%ecx
 8048bc7:	39 0a                	cmp    %ecx,(%edx)
 8048bc9:	74 58                	je     8048c23 <sglib_DoubleLinkedList_add_before_if_not_member+0x73>
 8048bcb:	89 d0                	mov    %edx,%eax
 8048bcd:	eb 05                	jmp    8048bd4 <sglib_DoubleLinkedList_add_before_if_not_member+0x24>
 8048bcf:	90                   	nop    
 8048bd0:	39 08                	cmp    %ecx,(%eax)
 8048bd2:	74 4d                	je     8048c21 <sglib_DoubleLinkedList_add_before_if_not_member+0x71>
 8048bd4:	8b 40 08             	mov    0x8(%eax),%eax
 8048bd7:	85 c0                	test   %eax,%eax
 8048bd9:	75 f5                	jne    8048bd0 <sglib_DoubleLinkedList_add_before_if_not_member+0x20>
 8048bdb:	90                   	nop    
 8048bdc:	8d 74 26 00          	lea    0x0(%esi),%esi
 8048be0:	eb 04                	jmp    8048be6 <sglib_DoubleLinkedList_add_before_if_not_member+0x36>
 8048be2:	39 0a                	cmp    %ecx,(%edx)
 8048be4:	74 3d                	je     8048c23 <sglib_DoubleLinkedList_add_before_if_not_member+0x73>
 8048be6:	8b 52 04             	mov    0x4(%edx),%edx
 8048be9:	85 d2                	test   %edx,%edx
 8048beb:	90                   	nop    
 8048bec:	8d 74 26 00          	lea    0x0(%esi),%esi
 8048bf0:	75 f0                	jne    8048be2 <sglib_DoubleLinkedList_add_before_if_not_member+0x32>
 8048bf2:	89 17                	mov    %edx,(%edi)
 8048bf4:	8b 06                	mov    (%esi),%eax
 8048bf6:	85 c0                	test   %eax,%eax
 8048bf8:	74 38                	je     8048c32 <sglib_DoubleLinkedList_add_before_if_not_member+0x82>
 8048bfa:	89 43 04             	mov    %eax,0x4(%ebx)
 8048bfd:	8b 06                	mov    (%esi),%eax
 8048bff:	8b 40 08             	mov    0x8(%eax),%eax
 8048c02:	89 43 08             	mov    %eax,0x8(%ebx)
 8048c05:	8b 06                	mov    (%esi),%eax
 8048c07:	89 58 08             	mov    %ebx,0x8(%eax)
 8048c0a:	8b 43 08             	mov    0x8(%ebx),%eax
 8048c0d:	85 c0                	test   %eax,%eax
 8048c0f:	74 14                	je     8048c25 <sglib_DoubleLinkedList_add_before_if_not_member+0x75>
 8048c11:	89 58 04             	mov    %ebx,0x4(%eax)
 8048c14:	31 c0                	xor    %eax,%eax
 8048c16:	83 3f 00             	cmpl   $0x0,(%edi)
 8048c19:	5b                   	pop    %ebx
 8048c1a:	5e                   	pop    %esi
 8048c1b:	5f                   	pop    %edi
 8048c1c:	0f 94 c0             	sete   %al
 8048c1f:	5d                   	pop    %ebp
 8048c20:	c3                   	ret    
 8048c21:	89 c2                	mov    %eax,%edx
 8048c23:	89 17                	mov    %edx,(%edi)
 8048c25:	31 c0                	xor    %eax,%eax
 8048c27:	83 3f 00             	cmpl   $0x0,(%edi)
 8048c2a:	5b                   	pop    %ebx
 8048c2b:	5e                   	pop    %esi
 8048c2c:	5f                   	pop    %edi
 8048c2d:	0f 94 c0             	sete   %al
 8048c30:	5d                   	pop    %ebp
 8048c31:	c3                   	ret    
 8048c32:	89 1e                	mov    %ebx,(%esi)
 8048c34:	c7 43 08 00 00 00 00 	movl   $0x0,0x8(%ebx)
 8048c3b:	c7 43 04 00 00 00 00 	movl   $0x0,0x4(%ebx)
 8048c42:	eb e1                	jmp    8048c25 <sglib_DoubleLinkedList_add_before_if_not_member+0x75>
 8048c44:	8d b6 00 00 00 00    	lea    0x0(%esi),%esi
 8048c4a:	8d bf 00 00 00 00    	lea    0x0(%edi),%edi

08048c50 <sglib_DoubleLinkedList_concat>:
 8048c50:	55                   	push   %ebp
 8048c51:	89 e5                	mov    %esp,%ebp
 8048c53:	8b 45 08             	mov    0x8(%ebp),%eax
 8048c56:	8b 4d 0c             	mov    0xc(%ebp),%ecx
 8048c59:	8b 10                	mov    (%eax),%edx
 8048c5b:	85 d2                	test   %edx,%edx
 8048c5d:	74 28                	je     8048c87 <sglib_DoubleLinkedList_concat+0x37>
 8048c5f:	85 c9                	test   %ecx,%ecx
 8048c61:	75 04                	jne    8048c67 <sglib_DoubleLinkedList_concat+0x17>
 8048c63:	eb 20                	jmp    8048c85 <sglib_DoubleLinkedList_concat+0x35>
 8048c65:	89 c2                	mov    %eax,%edx
 8048c67:	8b 42 04             	mov    0x4(%edx),%eax
 8048c6a:	85 c0                	test   %eax,%eax
 8048c6c:	75 f7                	jne    8048c65 <sglib_DoubleLinkedList_concat+0x15>
 8048c6e:	c7 41 04 00 00 00 00 	movl   $0x0,0x4(%ecx)
 8048c75:	89 4a 04             	mov    %ecx,0x4(%edx)
 8048c78:	8b 41 04             	mov    0x4(%ecx),%eax
 8048c7b:	89 51 08             	mov    %edx,0x8(%ecx)
 8048c7e:	85 c0                	test   %eax,%eax
 8048c80:	74 03                	je     8048c85 <sglib_DoubleLinkedList_concat+0x35>
 8048c82:	89 48 08             	mov    %ecx,0x8(%eax)
 8048c85:	5d                   	pop    %ebp
 8048c86:	c3                   	ret    
 8048c87:	89 08                	mov    %ecx,(%eax)
 8048c89:	5d                   	pop    %ebp
 8048c8a:	c3                   	ret    
 8048c8b:	90                   	nop    
 8048c8c:	8d 74 26 00          	lea    0x0(%esi),%esi

08048c90 <sglib_DoubleLinkedList_delete>:
 8048c90:	55                   	push   %ebp
 8048c91:	89 e5                	mov    %esp,%ebp
 8048c93:	83 ec 08             	sub    $0x8,%esp
 8048c96:	89 74 24 04          	mov    %esi,0x4(%esp)
 8048c9a:	8b 75 08             	mov    0x8(%ebp),%esi
 8048c9d:	89 1c 24             	mov    %ebx,(%esp)
 8048ca0:	8b 5d 0c             	mov    0xc(%ebp),%ebx
 8048ca3:	8b 0e                	mov    (%esi),%ecx
 8048ca5:	39 d9                	cmp    %ebx,%ecx
 8048ca7:	74 27                	je     8048cd0 <sglib_DoubleLinkedList_delete+0x40>
 8048ca9:	8b 53 04             	mov    0x4(%ebx),%edx
 8048cac:	85 d2                	test   %edx,%edx
 8048cae:	74 06                	je     8048cb6 <sglib_DoubleLinkedList_delete+0x26>
 8048cb0:	8b 43 08             	mov    0x8(%ebx),%eax
 8048cb3:	89 42 08             	mov    %eax,0x8(%edx)
 8048cb6:	8b 43 08             	mov    0x8(%ebx),%eax
 8048cb9:	85 c0                	test   %eax,%eax
 8048cbb:	74 03                	je     8048cc0 <sglib_DoubleLinkedList_delete+0x30>
 8048cbd:	89 50 04             	mov    %edx,0x4(%eax)
 8048cc0:	89 0e                	mov    %ecx,(%esi)
 8048cc2:	8b 1c 24             	mov    (%esp),%ebx
 8048cc5:	8b 74 24 04          	mov    0x4(%esp),%esi
 8048cc9:	89 ec                	mov    %ebp,%esp
 8048ccb:	5d                   	pop    %ebp
 8048ccc:	c3                   	ret    
 8048ccd:	8d 76 00             	lea    0x0(%esi),%esi
 8048cd0:	8b 41 08             	mov    0x8(%ecx),%eax
 8048cd3:	85 c0                	test   %eax,%eax
 8048cd5:	74 04                	je     8048cdb <sglib_DoubleLinkedList_delete+0x4b>
 8048cd7:	89 c1                	mov    %eax,%ecx
 8048cd9:	eb ce                	jmp    8048ca9 <sglib_DoubleLinkedList_delete+0x19>
 8048cdb:	8b 49 04             	mov    0x4(%ecx),%ecx
 8048cde:	66 90                	xchg   %ax,%ax
 8048ce0:	eb c7                	jmp    8048ca9 <sglib_DoubleLinkedList_delete+0x19>
 8048ce2:	8d b4 26 00 00 00 00 	lea    0x0(%esi),%esi
 8048ce9:	8d bc 27 00 00 00 00 	lea    0x0(%edi),%edi

08048cf0 <sglib_DoubleLinkedList_delete_if_member>:
 8048cf0:	55                   	push   %ebp
 8048cf1:	89 e5                	mov    %esp,%ebp
 8048cf3:	57                   	push   %edi
 8048cf4:	56                   	push   %esi
 8048cf5:	53                   	push   %ebx
 8048cf6:	8b 75 08             	mov    0x8(%ebp),%esi
 8048cf9:	8b 7d 10             	mov    0x10(%ebp),%edi
 8048cfc:	8b 0e                	mov    (%esi),%ecx
 8048cfe:	85 c9                	test   %ecx,%ecx
 8048d00:	74 30                	je     8048d32 <sglib_DoubleLinkedList_delete_if_member+0x42>
 8048d02:	8b 45 0c             	mov    0xc(%ebp),%eax
 8048d05:	89 ca                	mov    %ecx,%edx
 8048d07:	8b 00                	mov    (%eax),%eax
 8048d09:	39 01                	cmp    %eax,(%ecx)
 8048d0b:	75 07                	jne    8048d14 <sglib_DoubleLinkedList_delete_if_member+0x24>
 8048d0d:	eb 34                	jmp    8048d43 <sglib_DoubleLinkedList_delete_if_member+0x53>
 8048d0f:	90                   	nop    
 8048d10:	39 02                	cmp    %eax,(%edx)
 8048d12:	74 2d                	je     8048d41 <sglib_DoubleLinkedList_delete_if_member+0x51>
 8048d14:	8b 52 08             	mov    0x8(%edx),%edx
 8048d17:	85 d2                	test   %edx,%edx
 8048d19:	75 f5                	jne    8048d10 <sglib_DoubleLinkedList_delete_if_member+0x20>
 8048d1b:	90                   	nop    
 8048d1c:	8d 74 26 00          	lea    0x0(%esi),%esi
 8048d20:	eb 04                	jmp    8048d26 <sglib_DoubleLinkedList_delete_if_member+0x36>
 8048d22:	39 01                	cmp    %eax,(%ecx)
 8048d24:	74 4b                	je     8048d71 <sglib_DoubleLinkedList_delete_if_member+0x81>
 8048d26:	8b 49 04             	mov    0x4(%ecx),%ecx
 8048d29:	85 c9                	test   %ecx,%ecx
 8048d2b:	90                   	nop    
 8048d2c:	8d 74 26 00          	lea    0x0(%esi),%esi
 8048d30:	75 f0                	jne    8048d22 <sglib_DoubleLinkedList_delete_if_member+0x32>
 8048d32:	89 0f                	mov    %ecx,(%edi)
 8048d34:	31 c0                	xor    %eax,%eax
 8048d36:	83 3f 00             	cmpl   $0x0,(%edi)
 8048d39:	5b                   	pop    %ebx
 8048d3a:	5e                   	pop    %esi
 8048d3b:	5f                   	pop    %edi
 8048d3c:	0f 95 c0             	setne  %al
 8048d3f:	5d                   	pop    %ebp
 8048d40:	c3                   	ret    
 8048d41:	89 d1                	mov    %edx,%ecx
 8048d43:	89 0f                	mov    %ecx,(%edi)
 8048d45:	8b 1e                	mov    (%esi),%ebx
 8048d47:	39 d3                	cmp    %edx,%ebx
 8048d49:	74 30                	je     8048d7b <sglib_DoubleLinkedList_delete_if_member+0x8b>
 8048d4b:	8b 42 08             	mov    0x8(%edx),%eax
 8048d4e:	8b 4a 04             	mov    0x4(%edx),%ecx
 8048d51:	85 c9                	test   %ecx,%ecx
 8048d53:	74 06                	je     8048d5b <sglib_DoubleLinkedList_delete_if_member+0x6b>
 8048d55:	89 41 08             	mov    %eax,0x8(%ecx)
 8048d58:	8b 42 08             	mov    0x8(%edx),%eax
 8048d5b:	85 c0                	test   %eax,%eax
 8048d5d:	74 03                	je     8048d62 <sglib_DoubleLinkedList_delete_if_member+0x72>
 8048d5f:	89 48 04             	mov    %ecx,0x4(%eax)
 8048d62:	89 1e                	mov    %ebx,(%esi)
 8048d64:	31 c0                	xor    %eax,%eax
 8048d66:	83 3f 00             	cmpl   $0x0,(%edi)
 8048d69:	5b                   	pop    %ebx
 8048d6a:	5e                   	pop    %esi
 8048d6b:	5f                   	pop    %edi
 8048d6c:	0f 95 c0             	setne  %al
 8048d6f:	5d                   	pop    %ebp
 8048d70:	c3                   	ret    
 8048d71:	89 0f                	mov    %ecx,(%edi)
 8048d73:	8b 1e                	mov    (%esi),%ebx
 8048d75:	89 ca                	mov    %ecx,%edx
 8048d77:	39 d3                	cmp    %edx,%ebx
 8048d79:	75 d0                	jne    8048d4b <sglib_DoubleLinkedList_delete_if_member+0x5b>
 8048d7b:	8b 42 08             	mov    0x8(%edx),%eax
 8048d7e:	85 c0                	test   %eax,%eax
 8048d80:	74 07                	je     8048d89 <sglib_DoubleLinkedList_delete_if_member+0x99>
 8048d82:	8b 4a 04             	mov    0x4(%edx),%ecx
 8048d85:	89 c3                	mov    %eax,%ebx
 8048d87:	eb c8                	jmp    8048d51 <sglib_DoubleLinkedList_delete_if_member+0x61>
 8048d89:	8b 5a 04             	mov    0x4(%edx),%ebx
 8048d8c:	89 d9                	mov    %ebx,%ecx
 8048d8e:	eb c1                	jmp    8048d51 <sglib_DoubleLinkedList_delete_if_member+0x61>

08048d90 <sglib_DoubleLinkedList_is_member>:
 8048d90:	55                   	push   %ebp
 8048d91:	89 e5                	mov    %esp,%ebp
 8048d93:	8b 55 08             	mov    0x8(%ebp),%edx
 8048d96:	53                   	push   %ebx
 8048d97:	8b 5d 0c             	mov    0xc(%ebp),%ebx
 8048d9a:	85 d2                	test   %edx,%edx
 8048d9c:	0f 95 c1             	setne  %cl
 8048d9f:	84 c9                	test   %cl,%cl
 8048da1:	74 4d                	je     8048df0 <sglib_DoubleLinkedList_is_member+0x60>
 8048da3:	39 da                	cmp    %ebx,%edx
 8048da5:	89 d0                	mov    %edx,%eax
 8048da7:	74 47                	je     8048df0 <sglib_DoubleLinkedList_is_member+0x60>
 8048da9:	8b 40 08             	mov    0x8(%eax),%eax
 8048dac:	85 c0                	test   %eax,%eax
 8048dae:	74 04                	je     8048db4 <sglib_DoubleLinkedList_is_member+0x24>
 8048db0:	39 c3                	cmp    %eax,%ebx
 8048db2:	75 f5                	jne    8048da9 <sglib_DoubleLinkedList_is_member+0x19>
 8048db4:	85 c0                	test   %eax,%eax
 8048db6:	0f 95 c0             	setne  %al
 8048db9:	0f b6 c0             	movzbl %al,%eax
 8048dbc:	85 c0                	test   %eax,%eax
 8048dbe:	75 28                	jne    8048de8 <sglib_DoubleLinkedList_is_member+0x58>
 8048dc0:	84 c9                	test   %cl,%cl
 8048dc2:	74 24                	je     8048de8 <sglib_DoubleLinkedList_is_member+0x58>
 8048dc4:	8b 52 04             	mov    0x4(%edx),%edx
 8048dc7:	85 d2                	test   %edx,%edx
 8048dc9:	74 29                	je     8048df4 <sglib_DoubleLinkedList_is_member+0x64>
 8048dcb:	39 d3                	cmp    %edx,%ebx
 8048dcd:	89 d0                	mov    %edx,%eax
 8048dcf:	74 23                	je     8048df4 <sglib_DoubleLinkedList_is_member+0x64>
 8048dd1:	8b 40 04             	mov    0x4(%eax),%eax
 8048dd4:	85 c0                	test   %eax,%eax
 8048dd6:	74 08                	je     8048de0 <sglib_DoubleLinkedList_is_member+0x50>
 8048dd8:	39 c3                	cmp    %eax,%ebx
 8048dda:	75 f5                	jne    8048dd1 <sglib_DoubleLinkedList_is_member+0x41>
 8048ddc:	8d 74 26 00          	lea    0x0(%esi),%esi
 8048de0:	85 c0                	test   %eax,%eax
 8048de2:	0f 95 c0             	setne  %al
 8048de5:	0f b6 c0             	movzbl %al,%eax
 8048de8:	5b                   	pop    %ebx
 8048de9:	5d                   	pop    %ebp
 8048dea:	c3                   	ret    
 8048deb:	90                   	nop    
 8048dec:	8d 74 26 00          	lea    0x0(%esi),%esi
 8048df0:	89 d0                	mov    %edx,%eax
 8048df2:	eb c0                	jmp    8048db4 <sglib_DoubleLinkedList_is_member+0x24>
 8048df4:	89 d0                	mov    %edx,%eax
 8048df6:	eb e8                	jmp    8048de0 <sglib_DoubleLinkedList_is_member+0x50>
 8048df8:	90                   	nop    
 8048df9:	8d b4 26 00 00 00 00 	lea    0x0(%esi),%esi

08048e00 <sglib_DoubleLinkedList_find_member>:
 8048e00:	55                   	push   %ebp
 8048e01:	31 c0                	xor    %eax,%eax
 8048e03:	89 e5                	mov    %esp,%ebp
 8048e05:	8b 4d 08             	mov    0x8(%ebp),%ecx
 8048e08:	85 c9                	test   %ecx,%ecx
 8048e0a:	74 36                	je     8048e42 <sglib_DoubleLinkedList_find_member+0x42>
 8048e0c:	8b 45 0c             	mov    0xc(%ebp),%eax
 8048e0f:	8b 10                	mov    (%eax),%edx
 8048e11:	89 c8                	mov    %ecx,%eax
 8048e13:	39 11                	cmp    %edx,(%ecx)
 8048e15:	74 2b                	je     8048e42 <sglib_DoubleLinkedList_find_member+0x42>
 8048e17:	89 c8                	mov    %ecx,%eax
 8048e19:	eb 09                	jmp    8048e24 <sglib_DoubleLinkedList_find_member+0x24>
 8048e1b:	90                   	nop    
 8048e1c:	8d 74 26 00          	lea    0x0(%esi),%esi
 8048e20:	39 10                	cmp    %edx,(%eax)
 8048e22:	74 1e                	je     8048e42 <sglib_DoubleLinkedList_find_member+0x42>
 8048e24:	8b 40 08             	mov    0x8(%eax),%eax
 8048e27:	85 c0                	test   %eax,%eax
 8048e29:	75 f5                	jne    8048e20 <sglib_DoubleLinkedList_find_member+0x20>
 8048e2b:	8b 41 04             	mov    0x4(%ecx),%eax
 8048e2e:	85 c0                	test   %eax,%eax
 8048e30:	75 09                	jne    8048e3b <sglib_DoubleLinkedList_find_member+0x3b>
 8048e32:	eb 0e                	jmp    8048e42 <sglib_DoubleLinkedList_find_member+0x42>
 8048e34:	8b 40 04             	mov    0x4(%eax),%eax
 8048e37:	85 c0                	test   %eax,%eax
 8048e39:	74 07                	je     8048e42 <sglib_DoubleLinkedList_find_member+0x42>
 8048e3b:	39 10                	cmp    %edx,(%eax)
 8048e3d:	8d 76 00             	lea    0x0(%esi),%esi
 8048e40:	75 f2                	jne    8048e34 <sglib_DoubleLinkedList_find_member+0x34>
 8048e42:	5d                   	pop    %ebp
 8048e43:	c3                   	ret    
 8048e44:	8d b6 00 00 00 00    	lea    0x0(%esi),%esi
 8048e4a:	8d bf 00 00 00 00    	lea    0x0(%edi),%edi

08048e50 <sglib_DoubleLinkedList_get_first>:
 8048e50:	55                   	push   %ebp
 8048e51:	89 e5                	mov    %esp,%ebp
 8048e53:	8b 45 08             	mov    0x8(%ebp),%eax
 8048e56:	85 c0                	test   %eax,%eax
 8048e58:	89 c2                	mov    %eax,%edx
 8048e5a:	75 06                	jne    8048e62 <sglib_DoubleLinkedList_get_first+0x12>
 8048e5c:	eb 0b                	jmp    8048e69 <sglib_DoubleLinkedList_get_first+0x19>
 8048e5e:	66 90                	xchg   %ax,%ax
 8048e60:	89 c2                	mov    %eax,%edx
 8048e62:	8b 42 08             	mov    0x8(%edx),%eax
 8048e65:	85 c0                	test   %eax,%eax
 8048e67:	75 f7                	jne    8048e60 <sglib_DoubleLinkedList_get_first+0x10>
 8048e69:	5d                   	pop    %ebp
 8048e6a:	89 d0                	mov    %edx,%eax
 8048e6c:	c3                   	ret    
 8048e6d:	8d 76 00             	lea    0x0(%esi),%esi

08048e70 <sglib_DoubleLinkedList_get_last>:
 8048e70:	55                   	push   %ebp
 8048e71:	89 e5                	mov    %esp,%ebp
 8048e73:	8b 45 08             	mov    0x8(%ebp),%eax
 8048e76:	85 c0                	test   %eax,%eax
 8048e78:	89 c2                	mov    %eax,%edx
 8048e7a:	75 06                	jne    8048e82 <sglib_DoubleLinkedList_get_last+0x12>
 8048e7c:	eb 0b                	jmp    8048e89 <sglib_DoubleLinkedList_get_last+0x19>
 8048e7e:	66 90                	xchg   %ax,%ax
 8048e80:	89 c2                	mov    %eax,%edx
 8048e82:	8b 42 04             	mov    0x4(%edx),%eax
 8048e85:	85 c0                	test   %eax,%eax
 8048e87:	75 f7                	jne    8048e80 <sglib_DoubleLinkedList_get_last+0x10>
 8048e89:	5d                   	pop    %ebp
 8048e8a:	89 d0                	mov    %edx,%eax
 8048e8c:	c3                   	ret    
 8048e8d:	8d 76 00             	lea    0x0(%esi),%esi

08048e90 <sglib_DoubleLinkedList_sort>:
 8048e90:	55                   	push   %ebp
 8048e91:	89 e5                	mov    %esp,%ebp
 8048e93:	57                   	push   %edi
 8048e94:	56                   	push   %esi
 8048e95:	53                   	push   %ebx
 8048e96:	83 ec 18             	sub    $0x18,%esp
 8048e99:	8b 45 08             	mov    0x8(%ebp),%eax
 8048e9c:	8b 10                	mov    (%eax),%edx
 8048e9e:	85 d2                	test   %edx,%edx
 8048ea0:	75 04                	jne    8048ea6 <sglib_DoubleLinkedList_sort+0x16>
 8048ea2:	eb 70                	jmp    8048f14 <sglib_DoubleLinkedList_sort+0x84>
 8048ea4:	89 c2                	mov    %eax,%edx
 8048ea6:	8b 42 08             	mov    0x8(%edx),%eax
 8048ea9:	85 c0                	test   %eax,%eax
 8048eab:	75 f7                	jne    8048ea4 <sglib_DoubleLinkedList_sort+0x14>
 8048ead:	c7 45 f0 00 00 00 00 	movl   $0x0,0xfffffff0(%ebp)
 8048eb4:	89 d0                	mov    %edx,%eax
 8048eb6:	89 d6                	mov    %edx,%esi
 8048eb8:	bf 01 00 00 00       	mov    $0x1,%edi
 8048ebd:	8d 76 00             	lea    0x0(%esi),%esi
 8048ec0:	83 ff 01             	cmp    $0x1,%edi
 8048ec3:	0f 9f 45 e3          	setg   0xffffffe3(%ebp)
 8048ec7:	8d 5d f0             	lea    0xfffffff0(%ebp),%ebx
 8048eca:	c7 45 dc 00 00 00 00 	movl   $0x0,0xffffffdc(%ebp)
 8048ed1:	80 7d e3 00          	cmpb   $0x0,0xffffffe3(%ebp)
 8048ed5:	74 49                	je     8048f20 <sglib_DoubleLinkedList_sort+0x90>
 8048ed7:	85 c0                	test   %eax,%eax
 8048ed9:	74 13                	je     8048eee <sglib_DoubleLinkedList_sort+0x5e>
 8048edb:	ba 01 00 00 00       	mov    $0x1,%edx
 8048ee0:	83 c2 01             	add    $0x1,%edx
 8048ee3:	8b 40 04             	mov    0x4(%eax),%eax
 8048ee6:	39 d7                	cmp    %edx,%edi
 8048ee8:	7e 36                	jle    8048f20 <sglib_DoubleLinkedList_sort+0x90>
 8048eea:	85 c0                	test   %eax,%eax
 8048eec:	75 f2                	jne    8048ee0 <sglib_DoubleLinkedList_sort+0x50>
 8048eee:	8b 55 dc             	mov    0xffffffdc(%ebp),%edx
 8048ef1:	89 33                	mov    %esi,(%ebx)
 8048ef3:	85 d2                	test   %edx,%edx
 8048ef5:	0f 84 bf 00 00 00    	je     8048fba <sglib_DoubleLinkedList_sort+0x12a>
 8048efb:	8b 75 f0             	mov    0xfffffff0(%ebp),%esi
 8048efe:	01 ff                	add    %edi,%edi
 8048f00:	c7 45 f0 00 00 00 00 	movl   $0x0,0xfffffff0(%ebp)
 8048f07:	85 f6                	test   %esi,%esi
 8048f09:	89 f0                	mov    %esi,%eax
 8048f0b:	75 b3                	jne    8048ec0 <sglib_DoubleLinkedList_sort+0x30>
 8048f0d:	31 db                	xor    %ebx,%ebx
 8048f0f:	8b 45 08             	mov    0x8(%ebp),%eax
 8048f12:	89 18                	mov    %ebx,(%eax)
 8048f14:	83 c4 18             	add    $0x18,%esp
 8048f17:	5b                   	pop    %ebx
 8048f18:	5e                   	pop    %esi
 8048f19:	5f                   	pop    %edi
 8048f1a:	5d                   	pop    %ebp
 8048f1b:	c3                   	ret    
 8048f1c:	8d 74 26 00          	lea    0x0(%esi),%esi
 8048f20:	85 c0                	test   %eax,%eax
 8048f22:	74 ca                	je     8048eee <sglib_DoubleLinkedList_sort+0x5e>
 8048f24:	80 7d e3 00          	cmpb   $0x0,0xffffffe3(%ebp)
 8048f28:	8b 50 04             	mov    0x4(%eax),%edx
 8048f2b:	c7 40 04 00 00 00 00 	movl   $0x0,0x4(%eax)
 8048f32:	74 5c                	je     8048f90 <sglib_DoubleLinkedList_sort+0x100>
 8048f34:	85 d2                	test   %edx,%edx
 8048f36:	89 d0                	mov    %edx,%eax
 8048f38:	b9 01 00 00 00       	mov    $0x1,%ecx
 8048f3d:	74 51                	je     8048f90 <sglib_DoubleLinkedList_sort+0x100>
 8048f3f:	83 c1 01             	add    $0x1,%ecx
 8048f42:	8b 40 04             	mov    0x4(%eax),%eax
 8048f45:	39 cf                	cmp    %ecx,%edi
 8048f47:	7e 49                	jle    8048f92 <sglib_DoubleLinkedList_sort+0x102>
 8048f49:	85 c0                	test   %eax,%eax
 8048f4b:	75 f2                	jne    8048f3f <sglib_DoubleLinkedList_sort+0xaf>
 8048f4d:	31 c9                	xor    %ecx,%ecx
 8048f4f:	90                   	nop    
 8048f50:	89 f0                	mov    %esi,%eax
 8048f52:	85 c0                	test   %eax,%eax
 8048f54:	74 1a                	je     8048f70 <sglib_DoubleLinkedList_sort+0xe0>
 8048f56:	85 d2                	test   %edx,%edx
 8048f58:	74 48                	je     8048fa2 <sglib_DoubleLinkedList_sort+0x112>
 8048f5a:	8b 32                	mov    (%edx),%esi
 8048f5c:	39 30                	cmp    %esi,(%eax)
 8048f5e:	78 50                	js     8048fb0 <sglib_DoubleLinkedList_sort+0x120>
 8048f60:	85 c0                	test   %eax,%eax
 8048f62:	89 13                	mov    %edx,(%ebx)
 8048f64:	8d 5a 04             	lea    0x4(%edx),%ebx
 8048f67:	8b 52 04             	mov    0x4(%edx),%edx
 8048f6a:	75 ea                	jne    8048f56 <sglib_DoubleLinkedList_sort+0xc6>
 8048f6c:	8d 74 26 00          	lea    0x0(%esi),%esi
 8048f70:	85 d2                	test   %edx,%edx
 8048f72:	89 13                	mov    %edx,(%ebx)
 8048f74:	75 72                	jne    8048fe8 <sglib_DoubleLinkedList_sort+0x158>
 8048f76:	85 c9                	test   %ecx,%ecx
 8048f78:	89 c8                	mov    %ecx,%eax
 8048f7a:	c7 45 dc 01 00 00 00 	movl   $0x1,0xffffffdc(%ebp)
 8048f81:	0f 84 74 ff ff ff    	je     8048efb <sglib_DoubleLinkedList_sort+0x6b>
 8048f87:	89 ce                	mov    %ecx,%esi
 8048f89:	e9 43 ff ff ff       	jmp    8048ed1 <sglib_DoubleLinkedList_sort+0x41>
 8048f8e:	66 90                	xchg   %ax,%ax
 8048f90:	89 d0                	mov    %edx,%eax
 8048f92:	85 c0                	test   %eax,%eax
 8048f94:	74 b7                	je     8048f4d <sglib_DoubleLinkedList_sort+0xbd>
 8048f96:	8b 48 04             	mov    0x4(%eax),%ecx
 8048f99:	c7 40 04 00 00 00 00 	movl   $0x0,0x4(%eax)
 8048fa0:	eb ae                	jmp    8048f50 <sglib_DoubleLinkedList_sort+0xc0>
 8048fa2:	89 03                	mov    %eax,(%ebx)
 8048fa4:	8d 58 04             	lea    0x4(%eax),%ebx
 8048fa7:	8b 40 04             	mov    0x4(%eax),%eax
 8048faa:	85 c0                	test   %eax,%eax
 8048fac:	74 c8                	je     8048f76 <sglib_DoubleLinkedList_sort+0xe6>
 8048fae:	eb f4                	jmp    8048fa4 <sglib_DoubleLinkedList_sort+0x114>
 8048fb0:	89 03                	mov    %eax,(%ebx)
 8048fb2:	8d 58 04             	lea    0x4(%eax),%ebx
 8048fb5:	8b 40 04             	mov    0x4(%eax),%eax
 8048fb8:	eb 98                	jmp    8048f52 <sglib_DoubleLinkedList_sort+0xc2>
 8048fba:	8b 5d f0             	mov    0xfffffff0(%ebp),%ebx
 8048fbd:	85 db                	test   %ebx,%ebx
 8048fbf:	0f 84 4a ff ff ff    	je     8048f0f <sglib_DoubleLinkedList_sort+0x7f>
 8048fc5:	89 d8                	mov    %ebx,%eax
 8048fc7:	31 c9                	xor    %ecx,%ecx
 8048fc9:	eb 07                	jmp    8048fd2 <sglib_DoubleLinkedList_sort+0x142>
 8048fcb:	90                   	nop    
 8048fcc:	8d 74 26 00          	lea    0x0(%esi),%esi
 8048fd0:	89 d0                	mov    %edx,%eax
 8048fd2:	8b 50 04             	mov    0x4(%eax),%edx
 8048fd5:	89 48 08             	mov    %ecx,0x8(%eax)
 8048fd8:	89 c1                	mov    %eax,%ecx
 8048fda:	85 d2                	test   %edx,%edx
 8048fdc:	75 f2                	jne    8048fd0 <sglib_DoubleLinkedList_sort+0x140>
 8048fde:	8b 45 08             	mov    0x8(%ebp),%eax
 8048fe1:	89 18                	mov    %ebx,(%eax)
 8048fe3:	e9 2c ff ff ff       	jmp    8048f14 <sglib_DoubleLinkedList_sort+0x84>
 8048fe8:	89 d0                	mov    %edx,%eax
 8048fea:	eb b8                	jmp    8048fa4 <sglib_DoubleLinkedList_sort+0x114>
 8048fec:	8d 74 26 00          	lea    0x0(%esi),%esi

08048ff0 <sglib_DoubleLinkedList_len>:
 8048ff0:	55                   	push   %ebp
 8048ff1:	31 c0                	xor    %eax,%eax
 8048ff3:	89 e5                	mov    %esp,%ebp
 8048ff5:	8b 4d 08             	mov    0x8(%ebp),%ecx
 8048ff8:	85 c9                	test   %ecx,%ecx
 8048ffa:	74 24                	je     8049020 <sglib_DoubleLinkedList_len+0x30>
 8048ffc:	89 c8                	mov    %ecx,%eax
 8048ffe:	31 d2                	xor    %edx,%edx
 8049000:	8b 40 08             	mov    0x8(%eax),%eax
 8049003:	83 c2 01             	add    $0x1,%edx
 8049006:	85 c0                	test   %eax,%eax
 8049008:	75 f6                	jne    8049000 <sglib_DoubleLinkedList_len+0x10>
 804900a:	8b 41 04             	mov    0x4(%ecx),%eax
 804900d:	31 c9                	xor    %ecx,%ecx
 804900f:	85 c0                	test   %eax,%eax
 8049011:	74 0a                	je     804901d <sglib_DoubleLinkedList_len+0x2d>
 8049013:	8b 40 04             	mov    0x4(%eax),%eax
 8049016:	83 c1 01             	add    $0x1,%ecx
 8049019:	85 c0                	test   %eax,%eax
 804901b:	75 f6                	jne    8049013 <sglib_DoubleLinkedList_len+0x23>
 804901d:	8d 04 11             	lea    (%ecx,%edx,1),%eax
 8049020:	5d                   	pop    %ebp
 8049021:	c3                   	ret    
 8049022:	8d b4 26 00 00 00 00 	lea    0x0(%esi),%esi
 8049029:	8d bc 27 00 00 00 00 	lea    0x0(%edi),%edi

08049030 <sglib_DoubleLinkedList_reverse>:
 8049030:	55                   	push   %ebp
 8049031:	89 e5                	mov    %esp,%ebp
 8049033:	8b 45 08             	mov    0x8(%ebp),%eax
 8049036:	53                   	push   %ebx
 8049037:	8b 00                	mov    (%eax),%eax
 8049039:	85 c0                	test   %eax,%eax
 804903b:	74 35                	je     8049072 <sglib_DoubleLinkedList_reverse+0x42>
 804903d:	8b 48 04             	mov    0x4(%eax),%ecx
 8049040:	89 cb                	mov    %ecx,%ebx
 8049042:	eb 03                	jmp    8049047 <sglib_DoubleLinkedList_reverse+0x17>
 8049044:	8b 5a 04             	mov    0x4(%edx),%ebx
 8049047:	8b 50 08             	mov    0x8(%eax),%edx
 804904a:	89 58 08             	mov    %ebx,0x8(%eax)
 804904d:	85 d2                	test   %edx,%edx
 804904f:	89 50 04             	mov    %edx,0x4(%eax)
 8049052:	89 d0                	mov    %edx,%eax
 8049054:	75 ee                	jne    8049044 <sglib_DoubleLinkedList_reverse+0x14>
 8049056:	85 c9                	test   %ecx,%ecx
 8049058:	74 18                	je     8049072 <sglib_DoubleLinkedList_reverse+0x42>
 804905a:	8d b6 00 00 00 00    	lea    0x0(%esi),%esi
 8049060:	8b 51 04             	mov    0x4(%ecx),%edx
 8049063:	8b 41 08             	mov    0x8(%ecx),%eax
 8049066:	89 51 08             	mov    %edx,0x8(%ecx)
 8049069:	89 41 04             	mov    %eax,0x4(%ecx)
 804906c:	89 d1                	mov    %edx,%ecx
 804906e:	85 c9                	test   %ecx,%ecx
 8049070:	75 ee                	jne    8049060 <sglib_DoubleLinkedList_reverse+0x30>
 8049072:	5b                   	pop    %ebx
 8049073:	5d                   	pop    %ebp
 8049074:	c3                   	ret    
 8049075:	8d 74 26 00          	lea    0x0(%esi),%esi
 8049079:	8d bc 27 00 00 00 00 	lea    0x0(%edi),%edi

08049080 <sglib_DoubleLinkedList_it_current>:
 8049080:	55                   	push   %ebp
 8049081:	89 e5                	mov    %esp,%ebp
 8049083:	8b 45 08             	mov    0x8(%ebp),%eax
 8049086:	5d                   	pop    %ebp
 8049087:	8b 00                	mov    (%eax),%eax
 8049089:	c3                   	ret    
 804908a:	8d b6 00 00 00 00    	lea    0x0(%esi),%esi

08049090 <sglib_DoubleLinkedList_it_next>:
 8049090:	55                   	push   %ebp
 8049091:	89 e5                	mov    %esp,%ebp
 8049093:	57                   	push   %edi
 8049094:	56                   	push   %esi
 8049095:	53                   	push   %ebx
 8049096:	83 ec 0c             	sub    $0xc,%esp
 8049099:	8b 45 08             	mov    0x8(%ebp),%eax
 804909c:	8b 70 0c             	mov    0xc(%eax),%esi
 804909f:	8b 58 04             	mov    0x4(%eax),%ebx
 80490a2:	c7 40 04 00 00 00 00 	movl   $0x0,0x4(%eax)
 80490a9:	85 f6                	test   %esi,%esi
 80490ab:	0f 84 8d 00 00 00    	je     804913e <sglib_DoubleLinkedList_it_next+0xae>
 80490b1:	85 db                	test   %ebx,%ebx
 80490b3:	8b 78 10             	mov    0x10(%eax),%edi
 80490b6:	75 0f                	jne    80490c7 <sglib_DoubleLinkedList_it_next+0x37>
 80490b8:	eb 3a                	jmp    80490f4 <sglib_DoubleLinkedList_it_next+0x64>
 80490ba:	8d b6 00 00 00 00    	lea    0x0(%esi),%esi
 80490c0:	8b 5b 08             	mov    0x8(%ebx),%ebx
 80490c3:	85 db                	test   %ebx,%ebx
 80490c5:	74 27                	je     80490ee <sglib_DoubleLinkedList_it_next+0x5e>
 80490c7:	89 5c 24 04          	mov    %ebx,0x4(%esp)
 80490cb:	89 3c 24             	mov    %edi,(%esp)
 80490ce:	66 90                	xchg   %ax,%ax
 80490d0:	ff d6                	call   *%esi
 80490d2:	85 c0                	test   %eax,%eax
 80490d4:	75 ea                	jne    80490c0 <sglib_DoubleLinkedList_it_next+0x30>
 80490d6:	8b 43 08             	mov    0x8(%ebx),%eax
 80490d9:	8b 55 08             	mov    0x8(%ebp),%edx
 80490dc:	89 42 04             	mov    %eax,0x4(%edx)
 80490df:	8b 45 08             	mov    0x8(%ebp),%eax
 80490e2:	89 18                	mov    %ebx,(%eax)
 80490e4:	83 c4 0c             	add    $0xc,%esp
 80490e7:	89 d8                	mov    %ebx,%eax
 80490e9:	5b                   	pop    %ebx
 80490ea:	5e                   	pop    %esi
 80490eb:	5f                   	pop    %edi
 80490ec:	5d                   	pop    %ebp
 80490ed:	c3                   	ret    
 80490ee:	8b 45 08             	mov    0x8(%ebp),%eax
 80490f1:	8b 70 0c             	mov    0xc(%eax),%esi
 80490f4:	8b 55 08             	mov    0x8(%ebp),%edx
 80490f7:	85 f6                	test   %esi,%esi
 80490f9:	8b 5a 08             	mov    0x8(%edx),%ebx
 80490fc:	c7 42 08 00 00 00 00 	movl   $0x0,0x8(%edx)
 8049103:	74 3f                	je     8049144 <sglib_DoubleLinkedList_it_next+0xb4>
 8049105:	85 db                	test   %ebx,%ebx
 8049107:	8b 7a 10             	mov    0x10(%edx),%edi
 804910a:	75 0b                	jne    8049117 <sglib_DoubleLinkedList_it_next+0x87>
 804910c:	eb d1                	jmp    80490df <sglib_DoubleLinkedList_it_next+0x4f>
 804910e:	66 90                	xchg   %ax,%ax
 8049110:	8b 5b 04             	mov    0x4(%ebx),%ebx
 8049113:	85 db                	test   %ebx,%ebx
 8049115:	74 c8                	je     80490df <sglib_DoubleLinkedList_it_next+0x4f>
 8049117:	89 7c 24 04          	mov    %edi,0x4(%esp)
 804911b:	89 1c 24             	mov    %ebx,(%esp)
 804911e:	66 90                	xchg   %ax,%ax
 8049120:	ff d6                	call   *%esi
 8049122:	85 c0                	test   %eax,%eax
 8049124:	75 ea                	jne    8049110 <sglib_DoubleLinkedList_it_next+0x80>
 8049126:	8b 43 04             	mov    0x4(%ebx),%eax
 8049129:	8b 55 08             	mov    0x8(%ebp),%edx
 804912c:	89 42 08             	mov    %eax,0x8(%edx)
 804912f:	8b 45 08             	mov    0x8(%ebp),%eax
 8049132:	89 18                	mov    %ebx,(%eax)
 8049134:	83 c4 0c             	add    $0xc,%esp
 8049137:	89 d8                	mov    %ebx,%eax
 8049139:	5b                   	pop    %ebx
 804913a:	5e                   	pop    %esi
 804913b:	5f                   	pop    %edi
 804913c:	5d                   	pop    %ebp
 804913d:	c3                   	ret    
 804913e:	85 db                	test   %ebx,%ebx
 8049140:	75 94                	jne    80490d6 <sglib_DoubleLinkedList_it_next+0x46>
 8049142:	eb b0                	jmp    80490f4 <sglib_DoubleLinkedList_it_next+0x64>
 8049144:	85 db                	test   %ebx,%ebx
 8049146:	75 de                	jne    8049126 <sglib_DoubleLinkedList_it_next+0x96>
 8049148:	90                   	nop    
 8049149:	8d b4 26 00 00 00 00 	lea    0x0(%esi),%esi
 8049150:	eb 8d                	jmp    80490df <sglib_DoubleLinkedList_it_next+0x4f>
 8049152:	8d b4 26 00 00 00 00 	lea    0x0(%esi),%esi
 8049159:	8d bc 27 00 00 00 00 	lea    0x0(%edi),%edi

08049160 <sglib_SortedList_is_member>:
 8049160:	55                   	push   %ebp
 8049161:	31 c0                	xor    %eax,%eax
 8049163:	89 e5                	mov    %esp,%ebp
 8049165:	53                   	push   %ebx
 8049166:	8b 4d 08             	mov    0x8(%ebp),%ecx
 8049169:	8b 5d 0c             	mov    0xc(%ebp),%ebx
 804916c:	85 c9                	test   %ecx,%ecx
 804916e:	74 1b                	je     804918b <sglib_SortedList_is_member+0x2b>
 8049170:	8b 13                	mov    (%ebx),%edx
 8049172:	39 11                	cmp    %edx,(%ecx)
 8049174:	79 20                	jns    8049196 <sglib_SortedList_is_member+0x36>
 8049176:	89 c8                	mov    %ecx,%eax
 8049178:	eb 0a                	jmp    8049184 <sglib_SortedList_is_member+0x24>
 804917a:	8d b6 00 00 00 00    	lea    0x0(%esi),%esi
 8049180:	39 10                	cmp    %edx,(%eax)
 8049182:	79 14                	jns    8049198 <sglib_SortedList_is_member+0x38>
 8049184:	8b 40 04             	mov    0x4(%eax),%eax
 8049187:	85 c0                	test   %eax,%eax
 8049189:	75 f5                	jne    8049180 <sglib_SortedList_is_member+0x20>
 804918b:	39 d8                	cmp    %ebx,%eax
 804918d:	5b                   	pop    %ebx
 804918e:	0f 94 c0             	sete   %al
 8049191:	5d                   	pop    %ebp
 8049192:	0f b6 c0             	movzbl %al,%eax
 8049195:	c3                   	ret    
 8049196:	89 c8                	mov    %ecx,%eax
 8049198:	39 c3                	cmp    %eax,%ebx
 804919a:	74 ef                	je     804918b <sglib_SortedList_is_member+0x2b>
 804919c:	39 10                	cmp    %edx,(%eax)
 804919e:	75 eb                	jne    804918b <sglib_SortedList_is_member+0x2b>
 80491a0:	8b 40 04             	mov    0x4(%eax),%eax
 80491a3:	85 c0                	test   %eax,%eax
 80491a5:	75 f1                	jne    8049198 <sglib_SortedList_is_member+0x38>
 80491a7:	39 d8                	cmp    %ebx,%eax
 80491a9:	5b                   	pop    %ebx
 80491aa:	0f 94 c0             	sete   %al
 80491ad:	5d                   	pop    %ebp
 80491ae:	0f b6 c0             	movzbl %al,%eax
 80491b1:	c3                   	ret    
 80491b2:	8d b4 26 00 00 00 00 	lea    0x0(%esi),%esi
 80491b9:	8d bc 27 00 00 00 00 	lea    0x0(%edi),%edi

080491c0 <sglib_SortedList_find_member>:
 80491c0:	55                   	push   %ebp
 80491c1:	89 e5                	mov    %esp,%ebp
 80491c3:	8b 55 08             	mov    0x8(%ebp),%edx
 80491c6:	85 d2                	test   %edx,%edx
 80491c8:	74 1c                	je     80491e6 <sglib_SortedList_find_member+0x26>
 80491ca:	8b 45 0c             	mov    0xc(%ebp),%eax
 80491cd:	8b 08                	mov    (%eax),%ecx
 80491cf:	eb 07                	jmp    80491d8 <sglib_SortedList_find_member+0x18>
 80491d1:	8b 52 04             	mov    0x4(%edx),%edx
 80491d4:	85 d2                	test   %edx,%edx
 80491d6:	74 06                	je     80491de <sglib_SortedList_find_member+0x1e>
 80491d8:	8b 02                	mov    (%edx),%eax
 80491da:	29 c8                	sub    %ecx,%eax
 80491dc:	78 f3                	js     80491d1 <sglib_SortedList_find_member+0x11>
 80491de:	85 c0                	test   %eax,%eax
 80491e0:	75 04                	jne    80491e6 <sglib_SortedList_find_member+0x26>
 80491e2:	5d                   	pop    %ebp
 80491e3:	89 d0                	mov    %edx,%eax
 80491e5:	c3                   	ret    
 80491e6:	5d                   	pop    %ebp
 80491e7:	31 d2                	xor    %edx,%edx
 80491e9:	89 d0                	mov    %edx,%eax
 80491eb:	c3                   	ret    
 80491ec:	8d 74 26 00          	lea    0x0(%esi),%esi

080491f0 <sglib_SortedList_add_if_not_member>:
 80491f0:	55                   	push   %ebp
 80491f1:	89 e5                	mov    %esp,%ebp
 80491f3:	57                   	push   %edi
 80491f4:	56                   	push   %esi
 80491f5:	53                   	push   %ebx
 80491f6:	8b 75 08             	mov    0x8(%ebp),%esi
 80491f9:	8b 7d 0c             	mov    0xc(%ebp),%edi
 80491fc:	8b 16                	mov    (%esi),%edx
 80491fe:	89 f3                	mov    %esi,%ebx
 8049200:	85 d2                	test   %edx,%edx
 8049202:	74 2c                	je     8049230 <sglib_SortedList_add_if_not_member+0x40>
 8049204:	8b 0f                	mov    (%edi),%ecx
 8049206:	eb 0a                	jmp    8049212 <sglib_SortedList_add_if_not_member+0x22>
 8049208:	8d 5a 04             	lea    0x4(%edx),%ebx
 804920b:	8b 52 04             	mov    0x4(%edx),%edx
 804920e:	85 d2                	test   %edx,%edx
 8049210:	74 06                	je     8049218 <sglib_SortedList_add_if_not_member+0x28>
 8049212:	8b 02                	mov    (%edx),%eax
 8049214:	29 c8                	sub    %ecx,%eax
 8049216:	78 f0                	js     8049208 <sglib_SortedList_add_if_not_member+0x18>
 8049218:	85 c0                	test   %eax,%eax
 804921a:	75 14                	jne    8049230 <sglib_SortedList_add_if_not_member+0x40>
 804921c:	8b 45 10             	mov    0x10(%ebp),%eax
 804921f:	89 10                	mov    %edx,(%eax)
 8049221:	8b 08                	mov    (%eax),%ecx
 8049223:	5b                   	pop    %ebx
 8049224:	5e                   	pop    %esi
 8049225:	5f                   	pop    %edi
 8049226:	85 c9                	test   %ecx,%ecx
 8049228:	5d                   	pop    %ebp
 8049229:	0f 94 c0             	sete   %al
 804922c:	0f b6 c0             	movzbl %al,%eax
 804922f:	c3                   	ret    
 8049230:	8b 45 10             	mov    0x10(%ebp),%eax
 8049233:	89 57 04             	mov    %edx,0x4(%edi)
 8049236:	89 3b                	mov    %edi,(%ebx)
 8049238:	c7 00 00 00 00 00    	movl   $0x0,(%eax)
 804923e:	8b 08                	mov    (%eax),%ecx
 8049240:	5b                   	pop    %ebx
 8049241:	5e                   	pop    %esi
 8049242:	5f                   	pop    %edi
 8049243:	85 c9                	test   %ecx,%ecx
 8049245:	5d                   	pop    %ebp
 8049246:	0f 94 c0             	sete   %al
 8049249:	0f b6 c0             	movzbl %al,%eax
 804924c:	c3                   	ret    
 804924d:	8d 76 00             	lea    0x0(%esi),%esi

08049250 <sglib_SortedList_add>:
 8049250:	55                   	push   %ebp
 8049251:	89 e5                	mov    %esp,%ebp
 8049253:	8b 55 08             	mov    0x8(%ebp),%edx
 8049256:	53                   	push   %ebx
 8049257:	8b 5d 0c             	mov    0xc(%ebp),%ebx
 804925a:	8b 02                	mov    (%edx),%eax
 804925c:	85 c0                	test   %eax,%eax
 804925e:	74 12                	je     8049272 <sglib_SortedList_add+0x22>
 8049260:	8b 0b                	mov    (%ebx),%ecx
 8049262:	eb 0a                	jmp    804926e <sglib_SortedList_add+0x1e>
 8049264:	8d 50 04             	lea    0x4(%eax),%edx
 8049267:	8b 40 04             	mov    0x4(%eax),%eax
 804926a:	85 c0                	test   %eax,%eax
 804926c:	74 04                	je     8049272 <sglib_SortedList_add+0x22>
 804926e:	39 08                	cmp    %ecx,(%eax)
 8049270:	78 f2                	js     8049264 <sglib_SortedList_add+0x14>
 8049272:	89 43 04             	mov    %eax,0x4(%ebx)
 8049275:	89 1a                	mov    %ebx,(%edx)
 8049277:	5b                   	pop    %ebx
 8049278:	5d                   	pop    %ebp
 8049279:	c3                   	ret    
 804927a:	8d b6 00 00 00 00    	lea    0x0(%esi),%esi

08049280 <sglib_SortedList_delete_if_member>:
 8049280:	55                   	push   %ebp
 8049281:	89 e5                	mov    %esp,%ebp
 8049283:	56                   	push   %esi
 8049284:	53                   	push   %ebx
 8049285:	8b 5d 08             	mov    0x8(%ebp),%ebx
 8049288:	8b 75 10             	mov    0x10(%ebp),%esi
 804928b:	8b 13                	mov    (%ebx),%edx
 804928d:	85 d2                	test   %edx,%edx
 804928f:	74 30                	je     80492c1 <sglib_SortedList_delete_if_member+0x41>
 8049291:	8b 45 0c             	mov    0xc(%ebp),%eax
 8049294:	8b 08                	mov    (%eax),%ecx
 8049296:	eb 0a                	jmp    80492a2 <sglib_SortedList_delete_if_member+0x22>
 8049298:	8d 5a 04             	lea    0x4(%edx),%ebx
 804929b:	8b 52 04             	mov    0x4(%edx),%edx
 804929e:	85 d2                	test   %edx,%edx
 80492a0:	74 06                	je     80492a8 <sglib_SortedList_delete_if_member+0x28>
 80492a2:	8b 02                	mov    (%edx),%eax
 80492a4:	29 c8                	sub    %ecx,%eax
 80492a6:	78 f0                	js     8049298 <sglib_SortedList_delete_if_member+0x18>
 80492a8:	85 c0                	test   %eax,%eax
 80492aa:	75 15                	jne    80492c1 <sglib_SortedList_delete_if_member+0x41>
 80492ac:	89 16                	mov    %edx,(%esi)
 80492ae:	8b 03                	mov    (%ebx),%eax
 80492b0:	8b 40 04             	mov    0x4(%eax),%eax
 80492b3:	89 03                	mov    %eax,(%ebx)
 80492b5:	31 c0                	xor    %eax,%eax
 80492b7:	83 3e 00             	cmpl   $0x0,(%esi)
 80492ba:	5b                   	pop    %ebx
 80492bb:	5e                   	pop    %esi
 80492bc:	5d                   	pop    %ebp
 80492bd:	0f 95 c0             	setne  %al
 80492c0:	c3                   	ret    
 80492c1:	c7 06 00 00 00 00    	movl   $0x0,(%esi)
 80492c7:	31 c0                	xor    %eax,%eax
 80492c9:	83 3e 00             	cmpl   $0x0,(%esi)
 80492cc:	5b                   	pop    %ebx
 80492cd:	5e                   	pop    %esi
 80492ce:	5d                   	pop    %ebp
 80492cf:	0f 95 c0             	setne  %al
 80492d2:	c3                   	ret    
 80492d3:	8d b6 00 00 00 00    	lea    0x0(%esi),%esi
 80492d9:	8d bc 27 00 00 00 00 	lea    0x0(%edi),%edi

080492e0 <sglib_SortedList_len>:
 80492e0:	55                   	push   %ebp
 80492e1:	31 d2                	xor    %edx,%edx
 80492e3:	89 e5                	mov    %esp,%ebp
 80492e5:	8b 45 08             	mov    0x8(%ebp),%eax
 80492e8:	85 c0                	test   %eax,%eax
 80492ea:	74 0e                	je     80492fa <sglib_SortedList_len+0x1a>
 80492ec:	8d 74 26 00          	lea    0x0(%esi),%esi
 80492f0:	8b 40 04             	mov    0x4(%eax),%eax
 80492f3:	83 c2 01             	add    $0x1,%edx
 80492f6:	85 c0                	test   %eax,%eax
 80492f8:	75 f6                	jne    80492f0 <sglib_SortedList_len+0x10>
 80492fa:	5d                   	pop    %ebp
 80492fb:	89 d0                	mov    %edx,%eax
 80492fd:	c3                   	ret    
 80492fe:	66 90                	xchg   %ax,%ax

08049300 <sglib_SortedList_sort>:
 8049300:	55                   	push   %ebp
 8049301:	89 e5                	mov    %esp,%ebp
 8049303:	57                   	push   %edi
 8049304:	bf 01 00 00 00       	mov    $0x1,%edi
 8049309:	56                   	push   %esi
 804930a:	53                   	push   %ebx
 804930b:	83 ec 18             	sub    $0x18,%esp
 804930e:	8b 55 08             	mov    0x8(%ebp),%edx
 8049311:	8b 02                	mov    (%edx),%eax
 8049313:	89 c3                	mov    %eax,%ebx
 8049315:	89 45 f0             	mov    %eax,0xfffffff0(%ebp)
 8049318:	31 c0                	xor    %eax,%eax
 804931a:	85 db                	test   %ebx,%ebx
 804931c:	c7 45 f0 00 00 00 00 	movl   $0x0,0xfffffff0(%ebp)
 8049323:	74 4f                	je     8049374 <sglib_SortedList_sort+0x74>
 8049325:	83 ff 01             	cmp    $0x1,%edi
 8049328:	89 d8                	mov    %ebx,%eax
 804932a:	0f 9f 45 e3          	setg   0xffffffe3(%ebp)
 804932e:	8d 75 f0             	lea    0xfffffff0(%ebp),%esi
 8049331:	c7 45 dc 00 00 00 00 	movl   $0x0,0xffffffdc(%ebp)
 8049338:	80 7d e3 00          	cmpb   $0x0,0xffffffe3(%ebp)
 804933c:	74 43                	je     8049381 <sglib_SortedList_sort+0x81>
 804933e:	85 c0                	test   %eax,%eax
 8049340:	74 13                	je     8049355 <sglib_SortedList_sort+0x55>
 8049342:	ba 01 00 00 00       	mov    $0x1,%edx
 8049347:	83 c2 01             	add    $0x1,%edx
 804934a:	8b 40 04             	mov    0x4(%eax),%eax
 804934d:	39 d7                	cmp    %edx,%edi
 804934f:	7e 30                	jle    8049381 <sglib_SortedList_sort+0x81>
 8049351:	85 c0                	test   %eax,%eax
 8049353:	75 f2                	jne    8049347 <sglib_SortedList_sort+0x47>
 8049355:	89 1e                	mov    %ebx,(%esi)
 8049357:	8b 5d dc             	mov    0xffffffdc(%ebp),%ebx
 804935a:	85 db                	test   %ebx,%ebx
 804935c:	0f 84 b8 00 00 00    	je     804941a <sglib_SortedList_sort+0x11a>
 8049362:	8b 5d f0             	mov    0xfffffff0(%ebp),%ebx
 8049365:	01 ff                	add    %edi,%edi
 8049367:	31 c0                	xor    %eax,%eax
 8049369:	c7 45 f0 00 00 00 00 	movl   $0x0,0xfffffff0(%ebp)
 8049370:	85 db                	test   %ebx,%ebx
 8049372:	75 b1                	jne    8049325 <sglib_SortedList_sort+0x25>
 8049374:	8b 55 08             	mov    0x8(%ebp),%edx
 8049377:	89 02                	mov    %eax,(%edx)
 8049379:	83 c4 18             	add    $0x18,%esp
 804937c:	5b                   	pop    %ebx
 804937d:	5e                   	pop    %esi
 804937e:	5f                   	pop    %edi
 804937f:	5d                   	pop    %ebp
 8049380:	c3                   	ret    
 8049381:	85 c0                	test   %eax,%eax
 8049383:	74 d0                	je     8049355 <sglib_SortedList_sort+0x55>
 8049385:	80 7d e3 00          	cmpb   $0x0,0xffffffe3(%ebp)
 8049389:	8b 50 04             	mov    0x4(%eax),%edx
 804938c:	c7 40 04 00 00 00 00 	movl   $0x0,0x4(%eax)
 8049393:	74 5b                	je     80493f0 <sglib_SortedList_sort+0xf0>
 8049395:	85 d2                	test   %edx,%edx
 8049397:	89 d0                	mov    %edx,%eax
 8049399:	b9 01 00 00 00       	mov    $0x1,%ecx
 804939e:	74 50                	je     80493f0 <sglib_SortedList_sort+0xf0>
 80493a0:	83 c1 01             	add    $0x1,%ecx
 80493a3:	8b 40 04             	mov    0x4(%eax),%eax
 80493a6:	39 cf                	cmp    %ecx,%edi
 80493a8:	7e 48                	jle    80493f2 <sglib_SortedList_sort+0xf2>
 80493aa:	85 c0                	test   %eax,%eax
 80493ac:	75 f2                	jne    80493a0 <sglib_SortedList_sort+0xa0>
 80493ae:	31 c9                	xor    %ecx,%ecx
 80493b0:	89 d8                	mov    %ebx,%eax
 80493b2:	85 c0                	test   %eax,%eax
 80493b4:	74 1a                	je     80493d0 <sglib_SortedList_sort+0xd0>
 80493b6:	85 d2                	test   %edx,%edx
 80493b8:	74 48                	je     8049402 <sglib_SortedList_sort+0x102>
 80493ba:	8b 1a                	mov    (%edx),%ebx
 80493bc:	39 18                	cmp    %ebx,(%eax)
 80493be:	78 50                	js     8049410 <sglib_SortedList_sort+0x110>
 80493c0:	85 c0                	test   %eax,%eax
 80493c2:	89 16                	mov    %edx,(%esi)
 80493c4:	8d 72 04             	lea    0x4(%edx),%esi
 80493c7:	8b 52 04             	mov    0x4(%edx),%edx
 80493ca:	75 ea                	jne    80493b6 <sglib_SortedList_sort+0xb6>
 80493cc:	8d 74 26 00          	lea    0x0(%esi),%esi
 80493d0:	85 d2                	test   %edx,%edx
 80493d2:	89 16                	mov    %edx,(%esi)
 80493d4:	75 54                	jne    804942a <sglib_SortedList_sort+0x12a>
 80493d6:	85 c9                	test   %ecx,%ecx
 80493d8:	89 c8                	mov    %ecx,%eax
 80493da:	c7 45 dc 01 00 00 00 	movl   $0x1,0xffffffdc(%ebp)
 80493e1:	0f 84 7b ff ff ff    	je     8049362 <sglib_SortedList_sort+0x62>
 80493e7:	89 cb                	mov    %ecx,%ebx
 80493e9:	e9 4a ff ff ff       	jmp    8049338 <sglib_SortedList_sort+0x38>
 80493ee:	66 90                	xchg   %ax,%ax
 80493f0:	89 d0                	mov    %edx,%eax
 80493f2:	85 c0                	test   %eax,%eax
 80493f4:	74 b8                	je     80493ae <sglib_SortedList_sort+0xae>
 80493f6:	8b 48 04             	mov    0x4(%eax),%ecx
 80493f9:	c7 40 04 00 00 00 00 	movl   $0x0,0x4(%eax)
 8049400:	eb ae                	jmp    80493b0 <sglib_SortedList_sort+0xb0>
 8049402:	89 06                	mov    %eax,(%esi)
 8049404:	8d 70 04             	lea    0x4(%eax),%esi
 8049407:	8b 40 04             	mov    0x4(%eax),%eax
 804940a:	85 c0                	test   %eax,%eax
 804940c:	74 c8                	je     80493d6 <sglib_SortedList_sort+0xd6>
 804940e:	eb f4                	jmp    8049404 <sglib_SortedList_sort+0x104>
 8049410:	89 06                	mov    %eax,(%esi)
 8049412:	8d 70 04             	lea    0x4(%eax),%esi
 8049415:	8b 40 04             	mov    0x4(%eax),%eax
 8049418:	eb 98                	jmp    80493b2 <sglib_SortedList_sort+0xb2>
 804941a:	8b 45 f0             	mov    0xfffffff0(%ebp),%eax
 804941d:	8b 55 08             	mov    0x8(%ebp),%edx
 8049420:	89 02                	mov    %eax,(%edx)
 8049422:	83 c4 18             	add    $0x18,%esp
 8049425:	5b                   	pop    %ebx
 8049426:	5e                   	pop    %esi
 8049427:	5f                   	pop    %edi
 8049428:	5d                   	pop    %ebp
 8049429:	c3                   	ret    
 804942a:	89 d0                	mov    %edx,%eax
 804942c:	eb d6                	jmp    8049404 <sglib_SortedList_sort+0x104>
 804942e:	66 90                	xchg   %ax,%ax

08049430 <sglib_SortedList_it_current>:
 8049430:	55                   	push   %ebp
 8049431:	89 e5                	mov    %esp,%ebp
 8049433:	8b 45 08             	mov    0x8(%ebp),%eax
 8049436:	5d                   	pop    %ebp
 8049437:	8b 00                	mov    (%eax),%eax
 8049439:	c3                   	ret    
 804943a:	8d b6 00 00 00 00    	lea    0x0(%esi),%esi

08049440 <sglib_SortedList_it_next>:
 8049440:	55                   	push   %ebp
 8049441:	89 e5                	mov    %esp,%ebp
 8049443:	57                   	push   %edi
 8049444:	56                   	push   %esi
 8049445:	53                   	push   %ebx
 8049446:	83 ec 0c             	sub    $0xc,%esp
 8049449:	8b 45 08             	mov    0x8(%ebp),%eax
 804944c:	8b 78 08             	mov    0x8(%eax),%edi
 804944f:	8b 58 04             	mov    0x4(%eax),%ebx
 8049452:	c7 40 04 00 00 00 00 	movl   $0x0,0x4(%eax)
 8049459:	85 ff                	test   %edi,%edi
 804945b:	74 46                	je     80494a3 <sglib_SortedList_it_next+0x63>
 804945d:	85 db                	test   %ebx,%ebx
 804945f:	8b 70 0c             	mov    0xc(%eax),%esi
 8049462:	75 09                	jne    804946d <sglib_SortedList_it_next+0x2d>
 8049464:	eb 2e                	jmp    8049494 <sglib_SortedList_it_next+0x54>
 8049466:	8b 5b 04             	mov    0x4(%ebx),%ebx
 8049469:	85 db                	test   %ebx,%ebx
 804946b:	74 27                	je     8049494 <sglib_SortedList_it_next+0x54>
 804946d:	89 74 24 04          	mov    %esi,0x4(%esp)
 8049471:	89 1c 24             	mov    %ebx,(%esp)
 8049474:	ff d7                	call   *%edi
 8049476:	83 f8 00             	cmp    $0x0,%eax
 8049479:	7c eb                	jl     8049466 <sglib_SortedList_it_next+0x26>
 804947b:	7f 30                	jg     80494ad <sglib_SortedList_it_next+0x6d>
 804947d:	8b 45 08             	mov    0x8(%ebp),%eax
 8049480:	89 18                	mov    %ebx,(%eax)
 8049482:	89 c2                	mov    %eax,%edx
 8049484:	8b 43 04             	mov    0x4(%ebx),%eax
 8049487:	89 42 04             	mov    %eax,0x4(%edx)
 804948a:	83 c4 0c             	add    $0xc,%esp
 804948d:	89 d8                	mov    %ebx,%eax
 804948f:	5b                   	pop    %ebx
 8049490:	5e                   	pop    %esi
 8049491:	5f                   	pop    %edi
 8049492:	5d                   	pop    %ebp
 8049493:	c3                   	ret    
 8049494:	8b 45 08             	mov    0x8(%ebp),%eax
 8049497:	89 18                	mov    %ebx,(%eax)
 8049499:	83 c4 0c             	add    $0xc,%esp
 804949c:	89 d8                	mov    %ebx,%eax
 804949e:	5b                   	pop    %ebx
 804949f:	5e                   	pop    %esi
 80494a0:	5f                   	pop    %edi
 80494a1:	5d                   	pop    %ebp
 80494a2:	c3                   	ret    
 80494a3:	85 db                	test   %ebx,%ebx
 80494a5:	89 c2                	mov    %eax,%edx
 80494a7:	89 18                	mov    %ebx,(%eax)
 80494a9:	75 d9                	jne    8049484 <sglib_SortedList_it_next+0x44>
 80494ab:	eb dd                	jmp    804948a <sglib_SortedList_it_next+0x4a>
 80494ad:	8b 55 08             	mov    0x8(%ebp),%edx
 80494b0:	31 db                	xor    %ebx,%ebx
 80494b2:	c7 02 00 00 00 00    	movl   $0x0,(%edx)
 80494b8:	eb d0                	jmp    804948a <sglib_SortedList_it_next+0x4a>
 80494ba:	8d b6 00 00 00 00    	lea    0x0(%esi),%esi

080494c0 <sglib_ReverseSortedList_is_member>:
 80494c0:	55                   	push   %ebp
 80494c1:	89 e5                	mov    %esp,%ebp
 80494c3:	8b 45 08             	mov    0x8(%ebp),%eax
 80494c6:	8b 55 0c             	mov    0xc(%ebp),%edx
 80494c9:	85 c0                	test   %eax,%eax
 80494cb:	74 19                	je     80494e6 <sglib_ReverseSortedList_is_member+0x26>
 80494cd:	39 d0                	cmp    %edx,%eax
 80494cf:	74 15                	je     80494e6 <sglib_ReverseSortedList_is_member+0x26>
 80494d1:	8b 0a                	mov    (%edx),%ecx
 80494d3:	3b 08                	cmp    (%eax),%ecx
 80494d5:	75 0f                	jne    80494e6 <sglib_ReverseSortedList_is_member+0x26>
 80494d7:	8b 40 04             	mov    0x4(%eax),%eax
 80494da:	85 c0                	test   %eax,%eax
 80494dc:	74 08                	je     80494e6 <sglib_ReverseSortedList_is_member+0x26>
 80494de:	39 c2                	cmp    %eax,%edx
 80494e0:	74 04                	je     80494e6 <sglib_ReverseSortedList_is_member+0x26>
 80494e2:	39 08                	cmp    %ecx,(%eax)
 80494e4:	74 f1                	je     80494d7 <sglib_ReverseSortedList_is_member+0x17>
 80494e6:	39 d0                	cmp    %edx,%eax
 80494e8:	5d                   	pop    %ebp
 80494e9:	0f 94 c0             	sete   %al
 80494ec:	0f b6 c0             	movzbl %al,%eax
 80494ef:	c3                   	ret    

080494f0 <sglib_ReverseSortedList_find_member>:
 80494f0:	55                   	push   %ebp
 80494f1:	89 e5                	mov    %esp,%ebp
 80494f3:	53                   	push   %ebx
 80494f4:	8b 5d 08             	mov    0x8(%ebp),%ebx
 80494f7:	85 db                	test   %ebx,%ebx
 80494f9:	74 29                	je     8049524 <sglib_ReverseSortedList_find_member+0x34>
 80494fb:	8b 45 0c             	mov    0xc(%ebp),%eax
 80494fe:	8b 10                	mov    (%eax),%edx
 8049500:	89 d1                	mov    %edx,%ecx
 8049502:	2b 0b                	sub    (%ebx),%ecx
 8049504:	79 23                	jns    8049529 <sglib_ReverseSortedList_find_member+0x39>
 8049506:	89 d8                	mov    %ebx,%eax
 8049508:	eb 0c                	jmp    8049516 <sglib_ReverseSortedList_find_member+0x26>
 804950a:	8d b6 00 00 00 00    	lea    0x0(%esi),%esi
 8049510:	89 d1                	mov    %edx,%ecx
 8049512:	2b 08                	sub    (%eax),%ecx
 8049514:	79 07                	jns    804951d <sglib_ReverseSortedList_find_member+0x2d>
 8049516:	8b 40 04             	mov    0x4(%eax),%eax
 8049519:	85 c0                	test   %eax,%eax
 804951b:	75 f3                	jne    8049510 <sglib_ReverseSortedList_find_member+0x20>
 804951d:	85 c9                	test   %ecx,%ecx
 804951f:	75 03                	jne    8049524 <sglib_ReverseSortedList_find_member+0x34>
 8049521:	5b                   	pop    %ebx
 8049522:	5d                   	pop    %ebp
 8049523:	c3                   	ret    
 8049524:	5b                   	pop    %ebx
 8049525:	31 c0                	xor    %eax,%eax
 8049527:	5d                   	pop    %ebp
 8049528:	c3                   	ret    
 8049529:	89 d8                	mov    %ebx,%eax
 804952b:	90                   	nop    
 804952c:	8d 74 26 00          	lea    0x0(%esi),%esi
 8049530:	eb eb                	jmp    804951d <sglib_ReverseSortedList_find_member+0x2d>
 8049532:	8d b4 26 00 00 00 00 	lea    0x0(%esi),%esi
 8049539:	8d bc 27 00 00 00 00 	lea    0x0(%edi),%edi

08049540 <sglib_ReverseSortedList_add_if_not_member>:
 8049540:	55                   	push   %ebp
 8049541:	89 e5                	mov    %esp,%ebp
 8049543:	57                   	push   %edi
 8049544:	56                   	push   %esi
 8049545:	53                   	push   %ebx
 8049546:	8b 75 08             	mov    0x8(%ebp),%esi
 8049549:	8b 7d 0c             	mov    0xc(%ebp),%edi
 804954c:	8b 06                	mov    (%esi),%eax
 804954e:	89 f1                	mov    %esi,%ecx
 8049550:	85 c0                	test   %eax,%eax
 8049552:	74 2e                	je     8049582 <sglib_ReverseSortedList_add_if_not_member+0x42>
 8049554:	8b 17                	mov    (%edi),%edx
 8049556:	eb 0a                	jmp    8049562 <sglib_ReverseSortedList_add_if_not_member+0x22>
 8049558:	8d 48 04             	lea    0x4(%eax),%ecx
 804955b:	8b 40 04             	mov    0x4(%eax),%eax
 804955e:	85 c0                	test   %eax,%eax
 8049560:	74 06                	je     8049568 <sglib_ReverseSortedList_add_if_not_member+0x28>
 8049562:	89 d3                	mov    %edx,%ebx
 8049564:	2b 18                	sub    (%eax),%ebx
 8049566:	78 f0                	js     8049558 <sglib_ReverseSortedList_add_if_not_member+0x18>
 8049568:	85 db                	test   %ebx,%ebx
 804956a:	75 16                	jne    8049582 <sglib_ReverseSortedList_add_if_not_member+0x42>
 804956c:	8b 55 10             	mov    0x10(%ebp),%edx
 804956f:	89 02                	mov    %eax,(%edx)
 8049571:	89 d0                	mov    %edx,%eax
 8049573:	8b 30                	mov    (%eax),%esi
 8049575:	5b                   	pop    %ebx
 8049576:	85 f6                	test   %esi,%esi
 8049578:	5e                   	pop    %esi
 8049579:	0f 94 c0             	sete   %al
 804957c:	5f                   	pop    %edi
 804957d:	0f b6 c0             	movzbl %al,%eax
 8049580:	5d                   	pop    %ebp
 8049581:	c3                   	ret    
 8049582:	89 47 04             	mov    %eax,0x4(%edi)
 8049585:	8b 45 10             	mov    0x10(%ebp),%eax
 8049588:	89 39                	mov    %edi,(%ecx)
 804958a:	c7 00 00 00 00 00    	movl   $0x0,(%eax)
 8049590:	8b 30                	mov    (%eax),%esi
 8049592:	5b                   	pop    %ebx
 8049593:	85 f6                	test   %esi,%esi
 8049595:	5e                   	pop    %esi
 8049596:	0f 94 c0             	sete   %al
 8049599:	5f                   	pop    %edi
 804959a:	0f b6 c0             	movzbl %al,%eax
 804959d:	5d                   	pop    %ebp
 804959e:	c3                   	ret    
 804959f:	90                   	nop    

080495a0 <sglib_ReverseSortedList_add>:
 80495a0:	55                   	push   %ebp
 80495a1:	89 e5                	mov    %esp,%ebp
 80495a3:	8b 55 08             	mov    0x8(%ebp),%edx
 80495a6:	53                   	push   %ebx
 80495a7:	8b 5d 0c             	mov    0xc(%ebp),%ebx
 80495aa:	8b 02                	mov    (%edx),%eax
 80495ac:	85 c0                	test   %eax,%eax
 80495ae:	74 12                	je     80495c2 <sglib_ReverseSortedList_add+0x22>
 80495b0:	8b 0b                	mov    (%ebx),%ecx
 80495b2:	eb 0a                	jmp    80495be <sglib_ReverseSortedList_add+0x1e>
 80495b4:	8d 50 04             	lea    0x4(%eax),%edx
 80495b7:	8b 40 04             	mov    0x4(%eax),%eax
 80495ba:	85 c0                	test   %eax,%eax
 80495bc:	74 04                	je     80495c2 <sglib_ReverseSortedList_add+0x22>
 80495be:	3b 08                	cmp    (%eax),%ecx
 80495c0:	78 f2                	js     80495b4 <sglib_ReverseSortedList_add+0x14>
 80495c2:	89 43 04             	mov    %eax,0x4(%ebx)
 80495c5:	89 1a                	mov    %ebx,(%edx)
 80495c7:	5b                   	pop    %ebx
 80495c8:	5d                   	pop    %ebp
 80495c9:	c3                   	ret    
 80495ca:	8d b6 00 00 00 00    	lea    0x0(%esi),%esi

080495d0 <sglib_ReverseSortedList_delete_if_member>:
 80495d0:	55                   	push   %ebp
 80495d1:	89 e5                	mov    %esp,%ebp
 80495d3:	56                   	push   %esi
 80495d4:	53                   	push   %ebx
 80495d5:	8b 4d 08             	mov    0x8(%ebp),%ecx
 80495d8:	8b 75 10             	mov    0x10(%ebp),%esi
 80495db:	8b 11                	mov    (%ecx),%edx
 80495dd:	85 d2                	test   %edx,%edx
 80495df:	74 30                	je     8049611 <sglib_ReverseSortedList_delete_if_member+0x41>
 80495e1:	8b 45 0c             	mov    0xc(%ebp),%eax
 80495e4:	8b 00                	mov    (%eax),%eax
 80495e6:	eb 0a                	jmp    80495f2 <sglib_ReverseSortedList_delete_if_member+0x22>
 80495e8:	8d 4a 04             	lea    0x4(%edx),%ecx
 80495eb:	8b 52 04             	mov    0x4(%edx),%edx
 80495ee:	85 d2                	test   %edx,%edx
 80495f0:	74 06                	je     80495f8 <sglib_ReverseSortedList_delete_if_member+0x28>
 80495f2:	89 c3                	mov    %eax,%ebx
 80495f4:	2b 1a                	sub    (%edx),%ebx
 80495f6:	78 f0                	js     80495e8 <sglib_ReverseSortedList_delete_if_member+0x18>
 80495f8:	85 db                	test   %ebx,%ebx
 80495fa:	75 15                	jne    8049611 <sglib_ReverseSortedList_delete_if_member+0x41>
 80495fc:	89 16                	mov    %edx,(%esi)
 80495fe:	8b 01                	mov    (%ecx),%eax
 8049600:	8b 40 04             	mov    0x4(%eax),%eax
 8049603:	89 01                	mov    %eax,(%ecx)
 8049605:	31 c0                	xor    %eax,%eax
 8049607:	83 3e 00             	cmpl   $0x0,(%esi)
 804960a:	5b                   	pop    %ebx
 804960b:	5e                   	pop    %esi
 804960c:	5d                   	pop    %ebp
 804960d:	0f 95 c0             	setne  %al
 8049610:	c3                   	ret    
 8049611:	c7 06 00 00 00 00    	movl   $0x0,(%esi)
 8049617:	31 c0                	xor    %eax,%eax
 8049619:	83 3e 00             	cmpl   $0x0,(%esi)
 804961c:	5b                   	pop    %ebx
 804961d:	5e                   	pop    %esi
 804961e:	5d                   	pop    %ebp
 804961f:	0f 95 c0             	setne  %al
 8049622:	c3                   	ret    
 8049623:	8d b6 00 00 00 00    	lea    0x0(%esi),%esi
 8049629:	8d bc 27 00 00 00 00 	lea    0x0(%edi),%edi

08049630 <sglib_ReverseSortedList_len>:
 8049630:	55                   	push   %ebp
 8049631:	31 d2                	xor    %edx,%edx
 8049633:	89 e5                	mov    %esp,%ebp
 8049635:	8b 45 08             	mov    0x8(%ebp),%eax
 8049638:	85 c0                	test   %eax,%eax
 804963a:	74 0e                	je     804964a <sglib_ReverseSortedList_len+0x1a>
 804963c:	8d 74 26 00          	lea    0x0(%esi),%esi
 8049640:	8b 40 04             	mov    0x4(%eax),%eax
 8049643:	83 c2 01             	add    $0x1,%edx
 8049646:	85 c0                	test   %eax,%eax
 8049648:	75 f6                	jne    8049640 <sglib_ReverseSortedList_len+0x10>
 804964a:	5d                   	pop    %ebp
 804964b:	89 d0                	mov    %edx,%eax
 804964d:	c3                   	ret    
 804964e:	66 90                	xchg   %ax,%ax

08049650 <sglib_ReverseSortedList_sort>:
 8049650:	55                   	push   %ebp
 8049651:	89 e5                	mov    %esp,%ebp
 8049653:	57                   	push   %edi
 8049654:	56                   	push   %esi
 8049655:	53                   	push   %ebx
 8049656:	83 ec 1c             	sub    $0x1c,%esp
 8049659:	8b 55 08             	mov    0x8(%ebp),%edx
 804965c:	c7 45 dc 01 00 00 00 	movl   $0x1,0xffffffdc(%ebp)
 8049663:	8b 02                	mov    (%edx),%eax
 8049665:	89 c2                	mov    %eax,%edx
 8049667:	89 45 f0             	mov    %eax,0xfffffff0(%ebp)
 804966a:	31 c0                	xor    %eax,%eax
 804966c:	85 d2                	test   %edx,%edx
 804966e:	c7 45 f0 00 00 00 00 	movl   $0x0,0xfffffff0(%ebp)
 8049675:	74 4a                	je     80496c1 <sglib_ReverseSortedList_sort+0x71>
 8049677:	83 7d dc 01          	cmpl   $0x1,0xffffffdc(%ebp)
 804967b:	89 d1                	mov    %edx,%ecx
 804967d:	8d 5d f0             	lea    0xfffffff0(%ebp),%ebx
 8049680:	0f 9f 45 e3          	setg   0xffffffe3(%ebp)
 8049684:	31 ff                	xor    %edi,%edi
 8049686:	85 c9                	test   %ecx,%ecx
 8049688:	74 1a                	je     80496a4 <sglib_ReverseSortedList_sort+0x54>
 804968a:	80 7d e3 00          	cmpb   $0x0,0xffffffe3(%ebp)
 804968e:	b8 01 00 00 00       	mov    $0x1,%eax
 8049693:	74 3b                	je     80496d0 <sglib_ReverseSortedList_sort+0x80>
 8049695:	83 c0 01             	add    $0x1,%eax
 8049698:	8b 49 04             	mov    0x4(%ecx),%ecx
 804969b:	3b 45 dc             	cmp    0xffffffdc(%ebp),%eax
 804969e:	7d 30                	jge    80496d0 <sglib_ReverseSortedList_sort+0x80>
 80496a0:	85 c9                	test   %ecx,%ecx
 80496a2:	75 f1                	jne    8049695 <sglib_ReverseSortedList_sort+0x45>
 80496a4:	85 ff                	test   %edi,%edi
 80496a6:	89 13                	mov    %edx,(%ebx)
 80496a8:	0f 84 af 00 00 00    	je     804975d <sglib_ReverseSortedList_sort+0x10d>
 80496ae:	8b 55 f0             	mov    0xfffffff0(%ebp),%edx
 80496b1:	31 c0                	xor    %eax,%eax
 80496b3:	d1 65 dc             	shll   0xffffffdc(%ebp)
 80496b6:	c7 45 f0 00 00 00 00 	movl   $0x0,0xfffffff0(%ebp)
 80496bd:	85 d2                	test   %edx,%edx
 80496bf:	75 b6                	jne    8049677 <sglib_ReverseSortedList_sort+0x27>
 80496c1:	8b 55 08             	mov    0x8(%ebp),%edx
 80496c4:	89 02                	mov    %eax,(%edx)
 80496c6:	83 c4 1c             	add    $0x1c,%esp
 80496c9:	5b                   	pop    %ebx
 80496ca:	5e                   	pop    %esi
 80496cb:	5f                   	pop    %edi
 80496cc:	5d                   	pop    %ebp
 80496cd:	c3                   	ret    
 80496ce:	66 90                	xchg   %ax,%ax
 80496d0:	85 c9                	test   %ecx,%ecx
 80496d2:	74 d0                	je     80496a4 <sglib_ReverseSortedList_sort+0x54>
 80496d4:	8b 41 04             	mov    0x4(%ecx),%eax
 80496d7:	c7 41 04 00 00 00 00 	movl   $0x0,0x4(%ecx)
 80496de:	85 c0                	test   %eax,%eax
 80496e0:	0f 95 c1             	setne  %cl
 80496e3:	80 7d e3 00          	cmpb   $0x0,0xffffffe3(%ebp)
 80496e7:	89 cf                	mov    %ecx,%edi
 80496e9:	74 59                	je     8049744 <sglib_ReverseSortedList_sort+0xf4>
 80496eb:	84 c9                	test   %cl,%cl
 80496ed:	be 01 00 00 00       	mov    $0x1,%esi
 80496f2:	89 45 d8             	mov    %eax,0xffffffd8(%ebp)
 80496f5:	74 4d                	je     8049744 <sglib_ReverseSortedList_sort+0xf4>
 80496f7:	8b 4d d8             	mov    0xffffffd8(%ebp),%ecx
 80496fa:	83 c6 01             	add    $0x1,%esi
 80496fd:	3b 75 dc             	cmp    0xffffffdc(%ebp),%esi
 8049700:	8b 49 04             	mov    0x4(%ecx),%ecx
 8049703:	89 4d d8             	mov    %ecx,0xffffffd8(%ebp)
 8049706:	7d 3f                	jge    8049747 <sglib_ReverseSortedList_sort+0xf7>
 8049708:	85 c9                	test   %ecx,%ecx
 804970a:	75 eb                	jne    80496f7 <sglib_ReverseSortedList_sort+0xa7>
 804970c:	31 f6                	xor    %esi,%esi
 804970e:	66 90                	xchg   %ax,%ax
 8049710:	89 f9                	mov    %edi,%ecx
 8049712:	84 c9                	test   %cl,%cl
 8049714:	74 0c                	je     8049722 <sglib_ReverseSortedList_sort+0xd2>
 8049716:	89 03                	mov    %eax,(%ebx)
 8049718:	8d 58 04             	lea    0x4(%eax),%ebx
 804971b:	8b 40 04             	mov    0x4(%eax),%eax
 804971e:	85 c0                	test   %eax,%eax
 8049720:	75 f4                	jne    8049716 <sglib_ReverseSortedList_sort+0xc6>
 8049722:	89 13                	mov    %edx,(%ebx)
 8049724:	8d 5a 04             	lea    0x4(%edx),%ebx
 8049727:	8b 52 04             	mov    0x4(%edx),%edx
 804972a:	85 d2                	test   %edx,%edx
 804972c:	75 f6                	jne    8049724 <sglib_ReverseSortedList_sort+0xd4>
 804972e:	85 f6                	test   %esi,%esi
 8049730:	bf 01 00 00 00       	mov    $0x1,%edi
 8049735:	89 f1                	mov    %esi,%ecx
 8049737:	0f 84 71 ff ff ff    	je     80496ae <sglib_ReverseSortedList_sort+0x5e>
 804973d:	89 f2                	mov    %esi,%edx
 804973f:	e9 42 ff ff ff       	jmp    8049686 <sglib_ReverseSortedList_sort+0x36>
 8049744:	89 45 d8             	mov    %eax,0xffffffd8(%ebp)
 8049747:	8b 4d d8             	mov    0xffffffd8(%ebp),%ecx
 804974a:	85 c9                	test   %ecx,%ecx
 804974c:	74 be                	je     804970c <sglib_ReverseSortedList_sort+0xbc>
 804974e:	8b 4d d8             	mov    0xffffffd8(%ebp),%ecx
 8049751:	8b 71 04             	mov    0x4(%ecx),%esi
 8049754:	c7 41 04 00 00 00 00 	movl   $0x0,0x4(%ecx)
 804975b:	eb b3                	jmp    8049710 <sglib_ReverseSortedList_sort+0xc0>
 804975d:	8b 45 f0             	mov    0xfffffff0(%ebp),%eax
 8049760:	8b 55 08             	mov    0x8(%ebp),%edx
 8049763:	89 02                	mov    %eax,(%edx)
 8049765:	83 c4 1c             	add    $0x1c,%esp
 8049768:	5b                   	pop    %ebx
 8049769:	5e                   	pop    %esi
 804976a:	5f                   	pop    %edi
 804976b:	5d                   	pop    %ebp
 804976c:	c3                   	ret    
 804976d:	8d 76 00             	lea    0x0(%esi),%esi

08049770 <sglib_ReverseSortedList_it_current>:
 8049770:	55                   	push   %ebp
 8049771:	89 e5                	mov    %esp,%ebp
 8049773:	8b 45 08             	mov    0x8(%ebp),%eax
 8049776:	5d                   	pop    %ebp
 8049777:	8b 00                	mov    (%eax),%eax
 8049779:	c3                   	ret    
 804977a:	8d b6 00 00 00 00    	lea    0x0(%esi),%esi

08049780 <sglib_ReverseSortedList_it_next>:
 8049780:	55                   	push   %ebp
 8049781:	89 e5                	mov    %esp,%ebp
 8049783:	57                   	push   %edi
 8049784:	56                   	push   %esi
 8049785:	53                   	push   %ebx
 8049786:	83 ec 0c             	sub    $0xc,%esp
 8049789:	8b 45 08             	mov    0x8(%ebp),%eax
 804978c:	8b 78 08             	mov    0x8(%eax),%edi
 804978f:	8b 58 04             	mov    0x4(%eax),%ebx
 8049792:	c7 40 04 00 00 00 00 	movl   $0x0,0x4(%eax)
 8049799:	85 ff                	test   %edi,%edi
 804979b:	74 46                	je     80497e3 <sglib_ReverseSortedList_it_next+0x63>
 804979d:	85 db                	test   %ebx,%ebx
 804979f:	8b 70 0c             	mov    0xc(%eax),%esi
 80497a2:	75 09                	jne    80497ad <sglib_ReverseSortedList_it_next+0x2d>
 80497a4:	eb 2e                	jmp    80497d4 <sglib_ReverseSortedList_it_next+0x54>
 80497a6:	8b 5b 04             	mov    0x4(%ebx),%ebx
 80497a9:	85 db                	test   %ebx,%ebx
 80497ab:	74 27                	je     80497d4 <sglib_ReverseSortedList_it_next+0x54>
 80497ad:	89 74 24 04          	mov    %esi,0x4(%esp)
 80497b1:	89 1c 24             	mov    %ebx,(%esp)
 80497b4:	ff d7                	call   *%edi
 80497b6:	83 f8 00             	cmp    $0x0,%eax
 80497b9:	7c eb                	jl     80497a6 <sglib_ReverseSortedList_it_next+0x26>
 80497bb:	7f 30                	jg     80497ed <sglib_ReverseSortedList_it_next+0x6d>
 80497bd:	8b 45 08             	mov    0x8(%ebp),%eax
 80497c0:	89 18                	mov    %ebx,(%eax)
 80497c2:	89 c2                	mov    %eax,%edx
 80497c4:	8b 43 04             	mov    0x4(%ebx),%eax
 80497c7:	89 42 04             	mov    %eax,0x4(%edx)
 80497ca:	83 c4 0c             	add    $0xc,%esp
 80497cd:	89 d8                	mov    %ebx,%eax
 80497cf:	5b                   	pop    %ebx
 80497d0:	5e                   	pop    %esi
 80497d1:	5f                   	pop    %edi
 80497d2:	5d                   	pop    %ebp
 80497d3:	c3                   	ret    
 80497d4:	8b 45 08             	mov    0x8(%ebp),%eax
 80497d7:	89 18                	mov    %ebx,(%eax)
 80497d9:	83 c4 0c             	add    $0xc,%esp
 80497dc:	89 d8                	mov    %ebx,%eax
 80497de:	5b                   	pop    %ebx
 80497df:	5e                   	pop    %esi
 80497e0:	5f                   	pop    %edi
 80497e1:	5d                   	pop    %ebp
 80497e2:	c3                   	ret    
 80497e3:	85 db                	test   %ebx,%ebx
 80497e5:	89 c2                	mov    %eax,%edx
 80497e7:	89 18                	mov    %ebx,(%eax)
 80497e9:	75 d9                	jne    80497c4 <sglib_ReverseSortedList_it_next+0x44>
 80497eb:	eb dd                	jmp    80497ca <sglib_ReverseSortedList_it_next+0x4a>
 80497ed:	8b 55 08             	mov    0x8(%ebp),%edx
 80497f0:	31 db                	xor    %ebx,%ebx
 80497f2:	c7 02 00 00 00 00    	movl   $0x0,(%edx)
 80497f8:	eb d0                	jmp    80497ca <sglib_ReverseSortedList_it_next+0x4a>
 80497fa:	8d b6 00 00 00 00    	lea    0x0(%esi),%esi

08049800 <sglib___Tree_add_recursive>:
 8049800:	55                   	push   %ebp
 8049801:	89 e5                	mov    %esp,%ebp
 8049803:	83 ec 0c             	sub    $0xc,%esp
 8049806:	89 74 24 04          	mov    %esi,0x4(%esp)
 804980a:	89 c6                	mov    %eax,%esi
 804980c:	89 1c 24             	mov    %ebx,(%esp)
 804980f:	89 7c 24 08          	mov    %edi,0x8(%esp)
 8049813:	8b 18                	mov    (%eax),%ebx
 8049815:	85 db                	test   %ebx,%ebx
 8049817:	0f 84 fa 00 00 00    	je     8049917 <sglib___Tree_add_recursive+0x117>
 804981d:	8b 02                	mov    (%edx),%eax
 804981f:	2b 03                	sub    (%ebx),%eax
 8049821:	83 f8 00             	cmp    $0x0,%eax
 8049824:	7c 3f                	jl     8049865 <sglib___Tree_add_recursive+0x65>
 8049826:	74 39                	je     8049861 <sglib___Tree_add_recursive+0x61>
 8049828:	8d 43 14             	lea    0x14(%ebx),%eax
 804982b:	e8 d0 ff ff ff       	call   8049800 <sglib___Tree_add_recursive>
 8049830:	80 7b 0c 00          	cmpb   $0x0,0xc(%ebx)
 8049834:	75 1c                	jne    8049852 <sglib___Tree_add_recursive+0x52>
 8049836:	8b 3e                	mov    (%esi),%edi
 8049838:	8b 47 10             	mov    0x10(%edi),%eax
 804983b:	8b 5f 14             	mov    0x14(%edi),%ebx
 804983e:	85 c0                	test   %eax,%eax
 8049840:	74 0a                	je     804984c <sglib___Tree_add_recursive+0x4c>
 8049842:	80 78 0c 01          	cmpb   $0x1,0xc(%eax)
 8049846:	0f 84 d6 00 00 00    	je     8049922 <sglib___Tree_add_recursive+0x122>
 804984c:	80 7b 0c 01          	cmpb   $0x1,0xc(%ebx)
 8049850:	74 7e                	je     80498d0 <sglib___Tree_add_recursive+0xd0>
 8049852:	8b 1c 24             	mov    (%esp),%ebx
 8049855:	8b 74 24 04          	mov    0x4(%esp),%esi
 8049859:	8b 7c 24 08          	mov    0x8(%esp),%edi
 804985d:	89 ec                	mov    %ebp,%esp
 804985f:	5d                   	pop    %ebp
 8049860:	c3                   	ret    
 8049861:	39 da                	cmp    %ebx,%edx
 8049863:	73 c3                	jae    8049828 <sglib___Tree_add_recursive+0x28>
 8049865:	8d 43 10             	lea    0x10(%ebx),%eax
 8049868:	e8 93 ff ff ff       	call   8049800 <sglib___Tree_add_recursive>
 804986d:	80 7b 0c 00          	cmpb   $0x0,0xc(%ebx)
 8049871:	75 df                	jne    8049852 <sglib___Tree_add_recursive+0x52>
 8049873:	8b 3e                	mov    (%esi),%edi
 8049875:	8b 47 14             	mov    0x14(%edi),%eax
 8049878:	8b 5f 10             	mov    0x10(%edi),%ebx
 804987b:	85 c0                	test   %eax,%eax
 804987d:	74 0a                	je     8049889 <sglib___Tree_add_recursive+0x89>
 804987f:	80 78 0c 01          	cmpb   $0x1,0xc(%eax)
 8049883:	0f 84 d6 00 00 00    	je     804995f <sglib___Tree_add_recursive+0x15f>
 8049889:	80 7b 0c 01          	cmpb   $0x1,0xc(%ebx)
 804988d:	75 c3                	jne    8049852 <sglib___Tree_add_recursive+0x52>
 804988f:	8b 53 10             	mov    0x10(%ebx),%edx
 8049892:	85 d2                	test   %edx,%edx
 8049894:	74 0a                	je     80498a0 <sglib___Tree_add_recursive+0xa0>
 8049896:	80 7a 0c 01          	cmpb   $0x1,0xc(%edx)
 804989a:	0f 84 00 01 00 00    	je     80499a0 <sglib___Tree_add_recursive+0x1a0>
 80498a0:	8b 4b 14             	mov    0x14(%ebx),%ecx
 80498a3:	85 c9                	test   %ecx,%ecx
 80498a5:	74 ab                	je     8049852 <sglib___Tree_add_recursive+0x52>
 80498a7:	80 79 0c 01          	cmpb   $0x1,0xc(%ecx)
 80498ab:	75 a5                	jne    8049852 <sglib___Tree_add_recursive+0x52>
 80498ad:	8b 51 14             	mov    0x14(%ecx),%edx
 80498b0:	8b 41 10             	mov    0x10(%ecx),%eax
 80498b3:	c6 41 0c 00          	movb   $0x0,0xc(%ecx)
 80498b7:	c6 47 0c 01          	movb   $0x1,0xc(%edi)
 80498bb:	89 57 10             	mov    %edx,0x10(%edi)
 80498be:	89 43 14             	mov    %eax,0x14(%ebx)
 80498c1:	89 59 10             	mov    %ebx,0x10(%ecx)
 80498c4:	89 79 14             	mov    %edi,0x14(%ecx)
 80498c7:	89 0e                	mov    %ecx,(%esi)
 80498c9:	eb 87                	jmp    8049852 <sglib___Tree_add_recursive+0x52>
 80498cb:	90                   	nop    
 80498cc:	8d 74 26 00          	lea    0x0(%esi),%esi
 80498d0:	8b 53 14             	mov    0x14(%ebx),%edx
 80498d3:	85 d2                	test   %edx,%edx
 80498d5:	74 0a                	je     80498e1 <sglib___Tree_add_recursive+0xe1>
 80498d7:	80 7a 0c 01          	cmpb   $0x1,0xc(%edx)
 80498db:	0f 84 a4 00 00 00    	je     8049985 <sglib___Tree_add_recursive+0x185>
 80498e1:	8b 4b 10             	mov    0x10(%ebx),%ecx
 80498e4:	85 c9                	test   %ecx,%ecx
 80498e6:	0f 84 66 ff ff ff    	je     8049852 <sglib___Tree_add_recursive+0x52>
 80498ec:	80 79 0c 01          	cmpb   $0x1,0xc(%ecx)
 80498f0:	0f 85 5c ff ff ff    	jne    8049852 <sglib___Tree_add_recursive+0x52>
 80498f6:	8b 51 10             	mov    0x10(%ecx),%edx
 80498f9:	8b 41 14             	mov    0x14(%ecx),%eax
 80498fc:	c6 41 0c 00          	movb   $0x0,0xc(%ecx)
 8049900:	c6 47 0c 01          	movb   $0x1,0xc(%edi)
 8049904:	89 57 14             	mov    %edx,0x14(%edi)
 8049907:	89 43 10             	mov    %eax,0x10(%ebx)
 804990a:	89 59 14             	mov    %ebx,0x14(%ecx)
 804990d:	89 79 10             	mov    %edi,0x10(%ecx)
 8049910:	89 0e                	mov    %ecx,(%esi)
 8049912:	e9 3b ff ff ff       	jmp    8049852 <sglib___Tree_add_recursive+0x52>
 8049917:	c6 42 0c 01          	movb   $0x1,0xc(%edx)
 804991b:	89 10                	mov    %edx,(%eax)
 804991d:	e9 30 ff ff ff       	jmp    8049852 <sglib___Tree_add_recursive+0x52>
 8049922:	80 7b 0c 01          	cmpb   $0x1,0xc(%ebx)
 8049926:	0f 85 26 ff ff ff    	jne    8049852 <sglib___Tree_add_recursive+0x52>
 804992c:	8b 53 14             	mov    0x14(%ebx),%edx
 804992f:	85 d2                	test   %edx,%edx
 8049931:	74 06                	je     8049939 <sglib___Tree_add_recursive+0x139>
 8049933:	80 7a 0c 01          	cmpb   $0x1,0xc(%edx)
 8049937:	74 15                	je     804994e <sglib___Tree_add_recursive+0x14e>
 8049939:	8b 53 10             	mov    0x10(%ebx),%edx
 804993c:	85 d2                	test   %edx,%edx
 804993e:	0f 84 0e ff ff ff    	je     8049852 <sglib___Tree_add_recursive+0x52>
 8049944:	80 7a 0c 01          	cmpb   $0x1,0xc(%edx)
 8049948:	0f 85 04 ff ff ff    	jne    8049852 <sglib___Tree_add_recursive+0x52>
 804994e:	c6 43 0c 00          	movb   $0x0,0xc(%ebx)
 8049952:	c6 40 0c 00          	movb   $0x0,0xc(%eax)
 8049956:	c6 47 0c 01          	movb   $0x1,0xc(%edi)
 804995a:	e9 f3 fe ff ff       	jmp    8049852 <sglib___Tree_add_recursive+0x52>
 804995f:	80 7b 0c 01          	cmpb   $0x1,0xc(%ebx)
 8049963:	0f 85 e9 fe ff ff    	jne    8049852 <sglib___Tree_add_recursive+0x52>
 8049969:	8b 53 10             	mov    0x10(%ebx),%edx
 804996c:	85 d2                	test   %edx,%edx
 804996e:	74 06                	je     8049976 <sglib___Tree_add_recursive+0x176>
 8049970:	80 7a 0c 01          	cmpb   $0x1,0xc(%edx)
 8049974:	74 d8                	je     804994e <sglib___Tree_add_recursive+0x14e>
 8049976:	8b 53 14             	mov    0x14(%ebx),%edx
 8049979:	85 d2                	test   %edx,%edx
 804997b:	75 c7                	jne    8049944 <sglib___Tree_add_recursive+0x144>
 804997d:	8d 76 00             	lea    0x0(%esi),%esi
 8049980:	e9 cd fe ff ff       	jmp    8049852 <sglib___Tree_add_recursive+0x52>
 8049985:	8b 43 10             	mov    0x10(%ebx),%eax
 8049988:	c6 47 0c 01          	movb   $0x1,0xc(%edi)
 804998c:	89 7b 10             	mov    %edi,0x10(%ebx)
 804998f:	c6 43 0c 00          	movb   $0x0,0xc(%ebx)
 8049993:	89 47 14             	mov    %eax,0x14(%edi)
 8049996:	89 53 14             	mov    %edx,0x14(%ebx)
 8049999:	89 1e                	mov    %ebx,(%esi)
 804999b:	e9 b2 fe ff ff       	jmp    8049852 <sglib___Tree_add_recursive+0x52>
 80499a0:	8b 43 14             	mov    0x14(%ebx),%eax
 80499a3:	c6 47 0c 01          	movb   $0x1,0xc(%edi)
 80499a7:	89 7b 14             	mov    %edi,0x14(%ebx)
 80499aa:	c6 43 0c 00          	movb   $0x0,0xc(%ebx)
 80499ae:	89 47 10             	mov    %eax,0x10(%edi)
 80499b1:	89 53 10             	mov    %edx,0x10(%ebx)
 80499b4:	89 1e                	mov    %ebx,(%esi)
 80499b6:	e9 97 fe ff ff       	jmp    8049852 <sglib___Tree_add_recursive+0x52>
 80499bb:	90                   	nop    
 80499bc:	8d 74 26 00          	lea    0x0(%esi),%esi

080499c0 <sglib_Tree_add>:
 80499c0:	55                   	push   %ebp
 80499c1:	89 e5                	mov    %esp,%ebp
 80499c3:	8b 55 0c             	mov    0xc(%ebp),%edx
 80499c6:	53                   	push   %ebx
 80499c7:	8b 5d 08             	mov    0x8(%ebp),%ebx
 80499ca:	c7 42 14 00 00 00 00 	movl   $0x0,0x14(%edx)
 80499d1:	89 d8                	mov    %ebx,%eax
 80499d3:	c7 42 10 00 00 00 00 	movl   $0x0,0x10(%edx)
 80499da:	e8 21 fe ff ff       	call   8049800 <sglib___Tree_add_recursive>
 80499df:	8b 03                	mov    (%ebx),%eax
 80499e1:	c6 40 0c 00          	movb   $0x0,0xc(%eax)
 80499e5:	5b                   	pop    %ebx
 80499e6:	5d                   	pop    %ebp
 80499e7:	c3                   	ret    
 80499e8:	90                   	nop    
 80499e9:	8d b4 26 00 00 00 00 	lea    0x0(%esi),%esi

080499f0 <sglib_Tree_find_member>:
 80499f0:	55                   	push   %ebp
 80499f1:	31 d2                	xor    %edx,%edx
 80499f3:	89 e5                	mov    %esp,%ebp
 80499f5:	53                   	push   %ebx
 80499f6:	8b 5d 08             	mov    0x8(%ebp),%ebx
 80499f9:	85 db                	test   %ebx,%ebx
 80499fb:	74 22                	je     8049a1f <sglib_Tree_find_member+0x2f>
 80499fd:	8b 45 0c             	mov    0xc(%ebp),%eax
 8049a00:	89 da                	mov    %ebx,%edx
 8049a02:	8b 08                	mov    (%eax),%ecx
 8049a04:	eb 09                	jmp    8049a0f <sglib_Tree_find_member+0x1f>
 8049a06:	74 17                	je     8049a1f <sglib_Tree_find_member+0x2f>
 8049a08:	8b 52 14             	mov    0x14(%edx),%edx
 8049a0b:	85 d2                	test   %edx,%edx
 8049a0d:	74 10                	je     8049a1f <sglib_Tree_find_member+0x2f>
 8049a0f:	89 c8                	mov    %ecx,%eax
 8049a11:	2b 02                	sub    (%edx),%eax
 8049a13:	83 f8 00             	cmp    $0x0,%eax
 8049a16:	7d ee                	jge    8049a06 <sglib_Tree_find_member+0x16>
 8049a18:	8b 52 10             	mov    0x10(%edx),%edx
 8049a1b:	85 d2                	test   %edx,%edx
 8049a1d:	75 f0                	jne    8049a0f <sglib_Tree_find_member+0x1f>
 8049a1f:	5b                   	pop    %ebx
 8049a20:	89 d0                	mov    %edx,%eax
 8049a22:	5d                   	pop    %ebp
 8049a23:	c3                   	ret    
 8049a24:	8d b6 00 00 00 00    	lea    0x0(%esi),%esi
 8049a2a:	8d bf 00 00 00 00    	lea    0x0(%edi),%edi

08049a30 <sglib__Tree_it_compute_current_elem>:
 8049a30:	55                   	push   %ebp
 8049a31:	89 e5                	mov    %esp,%ebp
 8049a33:	57                   	push   %edi
 8049a34:	56                   	push   %esi
 8049a35:	53                   	push   %ebx
 8049a36:	83 ec 1c             	sub    $0x1c,%esp
 8049a39:	8b 75 08             	mov    0x8(%ebp),%esi
 8049a3c:	8b 86 88 02 00 00    	mov    0x288(%esi),%eax
 8049a42:	0f b7 8e 84 02 00 00 	movzwl 0x284(%esi),%ecx
 8049a49:	c7 06 00 00 00 00    	movl   $0x0,(%esi)
 8049a4f:	89 45 ec             	mov    %eax,0xffffffec(%ebp)
 8049a52:	8b 86 8c 02 00 00    	mov    0x28c(%esi),%eax
 8049a58:	89 45 f0             	mov    %eax,0xfffffff0(%ebp)
 8049a5b:	90                   	nop    
 8049a5c:	8d 74 26 00          	lea    0x0(%esi),%esi
 8049a60:	66 85 c9             	test   %cx,%cx
 8049a63:	7e 4b                	jle    8049ab0 <sglib__Tree_it_compute_current_elem+0x80>
 8049a65:	8b 1e                	mov    (%esi),%ebx
 8049a67:	85 db                	test   %ebx,%ebx
 8049a69:	75 45                	jne    8049ab0 <sglib__Tree_it_compute_current_elem+0x80>
 8049a6b:	0f bf c1             	movswl %cx,%eax
 8049a6e:	8d 78 ff             	lea    0xffffffff(%eax),%edi
 8049a71:	0f b6 44 3e 04       	movzbl 0x4(%esi,%edi,1),%eax
 8049a76:	3c 01                	cmp    $0x1,%al
 8049a78:	7e 3e                	jle    8049ab8 <sglib__Tree_it_compute_current_elem+0x88>
 8049a7a:	8d 41 ff             	lea    0xffffffff(%ecx),%eax
 8049a7d:	66 89 86 84 02 00 00 	mov    %ax,0x284(%esi)
 8049a84:	89 c1                	mov    %eax,%ecx
 8049a86:	66 85 c9             	test   %cx,%cx
 8049a89:	7e 25                	jle    8049ab0 <sglib__Tree_it_compute_current_elem+0x80>
 8049a8b:	0f bf c1             	movswl %cx,%eax
 8049a8e:	8d 50 ff             	lea    0xffffffff(%eax),%edx
 8049a91:	66 0f be 44 16 04    	movsbw 0x4(%esi,%edx,1),%ax
 8049a97:	66 39 86 86 02 00 00 	cmp    %ax,0x286(%esi)
 8049a9e:	75 c0                	jne    8049a60 <sglib__Tree_it_compute_current_elem+0x30>
 8049aa0:	8b 84 96 84 00 00 00 	mov    0x84(%esi,%edx,4),%eax
 8049aa7:	89 06                	mov    %eax,(%esi)
 8049aa9:	eb b5                	jmp    8049a60 <sglib__Tree_it_compute_current_elem+0x30>
 8049aab:	90                   	nop    
 8049aac:	8d 74 26 00          	lea    0x0(%esi),%esi
 8049ab0:	83 c4 1c             	add    $0x1c,%esp
 8049ab3:	5b                   	pop    %ebx
 8049ab4:	5e                   	pop    %esi
 8049ab5:	5f                   	pop    %edi
 8049ab6:	5d                   	pop    %ebp
 8049ab7:	c3                   	ret    
 8049ab8:	84 c0                	test   %al,%al
 8049aba:	75 57                	jne    8049b13 <sglib__Tree_it_compute_current_elem+0xe3>
 8049abc:	8b 84 be 84 00 00 00 	mov    0x84(%esi,%edi,4),%eax
 8049ac3:	8b 50 10             	mov    0x10(%eax),%edx
 8049ac6:	8b 45 ec             	mov    0xffffffec(%ebp),%eax
 8049ac9:	85 c0                	test   %eax,%eax
 8049acb:	74 57                	je     8049b24 <sglib__Tree_it_compute_current_elem+0xf4>
 8049acd:	8b 45 f0             	mov    0xfffffff0(%ebp),%eax
 8049ad0:	85 c0                	test   %eax,%eax
 8049ad2:	74 78                	je     8049b4c <sglib__Tree_it_compute_current_elem+0x11c>
 8049ad4:	85 d2                	test   %edx,%edx
 8049ad6:	89 d3                	mov    %edx,%ebx
 8049ad8:	75 0f                	jne    8049ae9 <sglib__Tree_it_compute_current_elem+0xb9>
 8049ada:	eb 2d                	jmp    8049b09 <sglib__Tree_it_compute_current_elem+0xd9>
 8049adc:	8d 74 26 00          	lea    0x0(%esi),%esi
 8049ae0:	74 48                	je     8049b2a <sglib__Tree_it_compute_current_elem+0xfa>
 8049ae2:	8b 5b 14             	mov    0x14(%ebx),%ebx
 8049ae5:	85 db                	test   %ebx,%ebx
 8049ae7:	74 19                	je     8049b02 <sglib__Tree_it_compute_current_elem+0xd2>
 8049ae9:	8b 45 ec             	mov    0xffffffec(%ebp),%eax
 8049aec:	89 5c 24 04          	mov    %ebx,0x4(%esp)
 8049af0:	89 04 24             	mov    %eax,(%esp)
 8049af3:	ff 55 f0             	call   *0xfffffff0(%ebp)
 8049af6:	83 f8 00             	cmp    $0x0,%eax
 8049af9:	7d e5                	jge    8049ae0 <sglib__Tree_it_compute_current_elem+0xb0>
 8049afb:	8b 5b 10             	mov    0x10(%ebx),%ebx
 8049afe:	85 db                	test   %ebx,%ebx
 8049b00:	75 e7                	jne    8049ae9 <sglib__Tree_it_compute_current_elem+0xb9>
 8049b02:	0f b7 8e 84 02 00 00 	movzwl 0x284(%esi),%ecx
 8049b09:	80 44 3e 04 01       	addb   $0x1,0x4(%esi,%edi,1)
 8049b0e:	e9 73 ff ff ff       	jmp    8049a86 <sglib__Tree_it_compute_current_elem+0x56>
 8049b13:	8b 84 be 84 00 00 00 	mov    0x84(%esi,%edi,4),%eax
 8049b1a:	8b 50 14             	mov    0x14(%eax),%edx
 8049b1d:	8b 45 ec             	mov    0xffffffec(%ebp),%eax
 8049b20:	85 c0                	test   %eax,%eax
 8049b22:	75 a9                	jne    8049acd <sglib__Tree_it_compute_current_elem+0x9d>
 8049b24:	85 d2                	test   %edx,%edx
 8049b26:	75 04                	jne    8049b2c <sglib__Tree_it_compute_current_elem+0xfc>
 8049b28:	eb df                	jmp    8049b09 <sglib__Tree_it_compute_current_elem+0xd9>
 8049b2a:	89 da                	mov    %ebx,%edx
 8049b2c:	66 83 86 84 02 00 00 	addw   $0x1,0x284(%esi)
 8049b33:	01 
 8049b34:	0f b7 8e 84 02 00 00 	movzwl 0x284(%esi),%ecx
 8049b3b:	8d 47 01             	lea    0x1(%edi),%eax
 8049b3e:	89 94 86 84 00 00 00 	mov    %edx,0x84(%esi,%eax,4)
 8049b45:	c6 44 06 04 00       	movb   $0x0,0x4(%esi,%eax,1)
 8049b4a:	eb bd                	jmp    8049b09 <sglib__Tree_it_compute_current_elem+0xd9>
 8049b4c:	85 d2                	test   %edx,%edx
 8049b4e:	74 b9                	je     8049b09 <sglib__Tree_it_compute_current_elem+0xd9>
 8049b50:	8b 45 ec             	mov    0xffffffec(%ebp),%eax
 8049b53:	8b 18                	mov    (%eax),%ebx
 8049b55:	eb 0b                	jmp    8049b62 <sglib__Tree_it_compute_current_elem+0x132>
 8049b57:	74 d3                	je     8049b2c <sglib__Tree_it_compute_current_elem+0xfc>
 8049b59:	8b 52 14             	mov    0x14(%edx),%edx
 8049b5c:	85 d2                	test   %edx,%edx
 8049b5e:	66 90                	xchg   %ax,%ax
 8049b60:	74 a7                	je     8049b09 <sglib__Tree_it_compute_current_elem+0xd9>
 8049b62:	89 d8                	mov    %ebx,%eax
 8049b64:	2b 02                	sub    (%edx),%eax
 8049b66:	83 f8 00             	cmp    $0x0,%eax
 8049b69:	7d ec                	jge    8049b57 <sglib__Tree_it_compute_current_elem+0x127>
 8049b6b:	8b 52 10             	mov    0x10(%edx),%edx
 8049b6e:	eb ec                	jmp    8049b5c <sglib__Tree_it_compute_current_elem+0x12c>

08049b70 <sglib_Tree_it_current>:
 8049b70:	55                   	push   %ebp
 8049b71:	89 e5                	mov    %esp,%ebp
 8049b73:	8b 45 08             	mov    0x8(%ebp),%eax
 8049b76:	5d                   	pop    %ebp
 8049b77:	8b 00                	mov    (%eax),%eax
 8049b79:	c3                   	ret    
 8049b7a:	8d b6 00 00 00 00    	lea    0x0(%esi),%esi

08049b80 <sglib_hashed_SimpleList_init>:
 8049b80:	55                   	push   %ebp
 8049b81:	b8 01 00 00 00       	mov    $0x1,%eax
 8049b86:	89 e5                	mov    %esp,%ebp
 8049b88:	8b 55 08             	mov    0x8(%ebp),%edx
 8049b8b:	90                   	nop    
 8049b8c:	8d 74 26 00          	lea    0x0(%esi),%esi
 8049b90:	c7 44 82 fc 00 00 00 	movl   $0x0,0xfffffffc(%edx,%eax,4)
 8049b97:	00 
 8049b98:	83 c0 01             	add    $0x1,%eax
 8049b9b:	83 f8 65             	cmp    $0x65,%eax
 8049b9e:	75 f0                	jne    8049b90 <sglib_hashed_SimpleList_init+0x10>
 8049ba0:	5d                   	pop    %ebp
 8049ba1:	c3                   	ret    
 8049ba2:	8d b4 26 00 00 00 00 	lea    0x0(%esi),%esi
 8049ba9:	8d bc 27 00 00 00 00 	lea    0x0(%edi),%edi

08049bb0 <sglib_hashed_SimpleList_add>:
 8049bb0:	55                   	push   %ebp
 8049bb1:	ba 1f 85 eb 51       	mov    $0x51eb851f,%edx
 8049bb6:	89 e5                	mov    %esp,%ebp
 8049bb8:	8b 4d 0c             	mov    0xc(%ebp),%ecx
 8049bbb:	53                   	push   %ebx
 8049bbc:	8b 19                	mov    (%ecx),%ebx
 8049bbe:	89 d8                	mov    %ebx,%eax
 8049bc0:	f7 e2                	mul    %edx
 8049bc2:	c1 ea 05             	shr    $0x5,%edx
 8049bc5:	6b d2 64             	imul   $0x64,%edx,%edx
 8049bc8:	29 d3                	sub    %edx,%ebx
 8049bca:	8d 04 9d 00 00 00 00 	lea    0x0(,%ebx,4),%eax
 8049bd1:	03 45 08             	add    0x8(%ebp),%eax
 8049bd4:	8b 10                	mov    (%eax),%edx
 8049bd6:	89 51 04             	mov    %edx,0x4(%ecx)
 8049bd9:	89 08                	mov    %ecx,(%eax)
 8049bdb:	5b                   	pop    %ebx
 8049bdc:	5d                   	pop    %ebp
 8049bdd:	c3                   	ret    
 8049bde:	66 90                	xchg   %ax,%ax

08049be0 <sglib_hashed_SimpleList_add_if_not_member>:
 8049be0:	55                   	push   %ebp
 8049be1:	ba 1f 85 eb 51       	mov    $0x51eb851f,%edx
 8049be6:	89 e5                	mov    %esp,%ebp
 8049be8:	56                   	push   %esi
 8049be9:	53                   	push   %ebx
 8049bea:	8b 5d 0c             	mov    0xc(%ebp),%ebx
 8049bed:	8b 75 10             	mov    0x10(%ebp),%esi
 8049bf0:	8b 0b                	mov    (%ebx),%ecx
 8049bf2:	89 c8                	mov    %ecx,%eax
 8049bf4:	f7 e2                	mul    %edx
 8049bf6:	89 c8                	mov    %ecx,%eax
 8049bf8:	c1 ea 05             	shr    $0x5,%edx
 8049bfb:	6b d2 64             	imul   $0x64,%edx,%edx
 8049bfe:	29 d0                	sub    %edx,%eax
 8049c00:	8d 14 85 00 00 00 00 	lea    0x0(,%eax,4),%edx
 8049c07:	03 55 08             	add    0x8(%ebp),%edx
 8049c0a:	8b 02                	mov    (%edx),%eax
 8049c0c:	85 c0                	test   %eax,%eax
 8049c0e:	75 09                	jne    8049c19 <sglib_hashed_SimpleList_add_if_not_member+0x39>
 8049c10:	eb 1e                	jmp    8049c30 <sglib_hashed_SimpleList_add_if_not_member+0x50>
 8049c12:	8b 40 04             	mov    0x4(%eax),%eax
 8049c15:	85 c0                	test   %eax,%eax
 8049c17:	74 17                	je     8049c30 <sglib_hashed_SimpleList_add_if_not_member+0x50>
 8049c19:	39 08                	cmp    %ecx,(%eax)
 8049c1b:	90                   	nop    
 8049c1c:	8d 74 26 00          	lea    0x0(%esi),%esi
 8049c20:	75 f0                	jne    8049c12 <sglib_hashed_SimpleList_add_if_not_member+0x32>
 8049c22:	89 06                	mov    %eax,(%esi)
 8049c24:	31 c0                	xor    %eax,%eax
 8049c26:	83 3e 00             	cmpl   $0x0,(%esi)
 8049c29:	5b                   	pop    %ebx
 8049c2a:	5e                   	pop    %esi
 8049c2b:	5d                   	pop    %ebp
 8049c2c:	0f 94 c0             	sete   %al
 8049c2f:	c3                   	ret    
 8049c30:	c7 06 00 00 00 00    	movl   $0x0,(%esi)
 8049c36:	8b 02                	mov    (%edx),%eax
 8049c38:	89 43 04             	mov    %eax,0x4(%ebx)
 8049c3b:	31 c0                	xor    %eax,%eax
 8049c3d:	89 1a                	mov    %ebx,(%edx)
 8049c3f:	83 3e 00             	cmpl   $0x0,(%esi)
 8049c42:	5b                   	pop    %ebx
 8049c43:	5e                   	pop    %esi
 8049c44:	5d                   	pop    %ebp
 8049c45:	0f 94 c0             	sete   %al
 8049c48:	c3                   	ret    
 8049c49:	8d b4 26 00 00 00 00 	lea    0x0(%esi),%esi

08049c50 <sglib_hashed_SimpleList_delete_if_member>:
 8049c50:	55                   	push   %ebp
 8049c51:	ba 1f 85 eb 51       	mov    $0x51eb851f,%edx
 8049c56:	89 e5                	mov    %esp,%ebp
 8049c58:	8b 45 0c             	mov    0xc(%ebp),%eax
 8049c5b:	53                   	push   %ebx
 8049c5c:	8b 5d 10             	mov    0x10(%ebp),%ebx
 8049c5f:	8b 08                	mov    (%eax),%ecx
 8049c61:	89 c8                	mov    %ecx,%eax
 8049c63:	f7 e2                	mul    %edx
 8049c65:	89 c8                	mov    %ecx,%eax
 8049c67:	c1 ea 05             	shr    $0x5,%edx
 8049c6a:	6b d2 64             	imul   $0x64,%edx,%edx
 8049c6d:	29 d0                	sub    %edx,%eax
 8049c6f:	8d 14 85 00 00 00 00 	lea    0x0(,%eax,4),%edx
 8049c76:	03 55 08             	add    0x8(%ebp),%edx
 8049c79:	8b 02                	mov    (%edx),%eax
 8049c7b:	85 c0                	test   %eax,%eax
 8049c7d:	75 0c                	jne    8049c8b <sglib_hashed_SimpleList_delete_if_member+0x3b>
 8049c7f:	eb 11                	jmp    8049c92 <sglib_hashed_SimpleList_delete_if_member+0x42>
 8049c81:	8d 50 04             	lea    0x4(%eax),%edx
 8049c84:	8b 40 04             	mov    0x4(%eax),%eax
 8049c87:	85 c0                	test   %eax,%eax
 8049c89:	74 07                	je     8049c92 <sglib_hashed_SimpleList_delete_if_member+0x42>
 8049c8b:	39 08                	cmp    %ecx,(%eax)
 8049c8d:	8d 76 00             	lea    0x0(%esi),%esi
 8049c90:	75 ef                	jne    8049c81 <sglib_hashed_SimpleList_delete_if_member+0x31>
 8049c92:	89 03                	mov    %eax,(%ebx)
 8049c94:	8b 02                	mov    (%edx),%eax
 8049c96:	85 c0                	test   %eax,%eax
 8049c98:	74 05                	je     8049c9f <sglib_hashed_SimpleList_delete_if_member+0x4f>
 8049c9a:	8b 40 04             	mov    0x4(%eax),%eax
 8049c9d:	89 02                	mov    %eax,(%edx)
 8049c9f:	31 c0                	xor    %eax,%eax
 8049ca1:	83 3b 00             	cmpl   $0x0,(%ebx)
 8049ca4:	5b                   	pop    %ebx
 8049ca5:	5d                   	pop    %ebp
 8049ca6:	0f 95 c0             	setne  %al
 8049ca9:	c3                   	ret    
 8049caa:	8d b6 00 00 00 00    	lea    0x0(%esi),%esi

08049cb0 <sglib_hashed_SimpleList_is_member>:
 8049cb0:	55                   	push   %ebp
 8049cb1:	ba 1f 85 eb 51       	mov    $0x51eb851f,%edx
 8049cb6:	89 e5                	mov    %esp,%ebp
 8049cb8:	8b 4d 0c             	mov    0xc(%ebp),%ecx
 8049cbb:	53                   	push   %ebx
 8049cbc:	8b 19                	mov    (%ecx),%ebx
 8049cbe:	89 d8                	mov    %ebx,%eax
 8049cc0:	f7 e2                	mul    %edx
 8049cc2:	c1 ea 05             	shr    $0x5,%edx
 8049cc5:	6b d2 64             	imul   $0x64,%edx,%edx
 8049cc8:	29 d3                	sub    %edx,%ebx
 8049cca:	8b 55 08             	mov    0x8(%ebp),%edx
 8049ccd:	8b 04 9a             	mov    (%edx,%ebx,4),%eax
 8049cd0:	85 c0                	test   %eax,%eax
 8049cd2:	74 0b                	je     8049cdf <sglib_hashed_SimpleList_is_member+0x2f>
 8049cd4:	39 c1                	cmp    %eax,%ecx
 8049cd6:	74 07                	je     8049cdf <sglib_hashed_SimpleList_is_member+0x2f>
 8049cd8:	8b 40 04             	mov    0x4(%eax),%eax
 8049cdb:	85 c0                	test   %eax,%eax
 8049cdd:	75 f5                	jne    8049cd4 <sglib_hashed_SimpleList_is_member+0x24>
 8049cdf:	85 c0                	test   %eax,%eax
 8049ce1:	5b                   	pop    %ebx
 8049ce2:	0f 95 c0             	setne  %al
 8049ce5:	5d                   	pop    %ebp
 8049ce6:	0f b6 c0             	movzbl %al,%eax
 8049ce9:	c3                   	ret    
 8049cea:	8d b6 00 00 00 00    	lea    0x0(%esi),%esi

08049cf0 <sglib_hashed_SimpleList_find_member>:
 8049cf0:	55                   	push   %ebp
 8049cf1:	ba 1f 85 eb 51       	mov    $0x51eb851f,%edx
 8049cf6:	89 e5                	mov    %esp,%ebp
 8049cf8:	8b 45 0c             	mov    0xc(%ebp),%eax
 8049cfb:	8b 08                	mov    (%eax),%ecx
 8049cfd:	89 c8                	mov    %ecx,%eax
 8049cff:	f7 e2                	mul    %edx
 8049d01:	89 c8                	mov    %ecx,%eax
 8049d03:	c1 ea 05             	shr    $0x5,%edx
 8049d06:	6b d2 64             	imul   $0x64,%edx,%edx
 8049d09:	29 d0                	sub    %edx,%eax
 8049d0b:	89 c2                	mov    %eax,%edx
 8049d0d:	8b 45 08             	mov    0x8(%ebp),%eax
 8049d10:	8b 04 90             	mov    (%eax,%edx,4),%eax
 8049d13:	85 c0                	test   %eax,%eax
 8049d15:	75 10                	jne    8049d27 <sglib_hashed_SimpleList_find_member+0x37>
 8049d17:	eb 12                	jmp    8049d2b <sglib_hashed_SimpleList_find_member+0x3b>
 8049d19:	8d b4 26 00 00 00 00 	lea    0x0(%esi),%esi
 8049d20:	8b 40 04             	mov    0x4(%eax),%eax
 8049d23:	85 c0                	test   %eax,%eax
 8049d25:	74 04                	je     8049d2b <sglib_hashed_SimpleList_find_member+0x3b>
 8049d27:	39 08                	cmp    %ecx,(%eax)
 8049d29:	75 f5                	jne    8049d20 <sglib_hashed_SimpleList_find_member+0x30>
 8049d2b:	5d                   	pop    %ebp
 8049d2c:	8d 74 26 00          	lea    0x0(%esi),%esi
 8049d30:	c3                   	ret    
 8049d31:	eb 0d                	jmp    8049d40 <check_double_linked_list_element>
 8049d33:	90                   	nop    
 8049d34:	90                   	nop    
 8049d35:	90                   	nop    
 8049d36:	90                   	nop    
 8049d37:	90                   	nop    
 8049d38:	90                   	nop    
 8049d39:	90                   	nop    
 8049d3a:	90                   	nop    
 8049d3b:	90                   	nop    
 8049d3c:	90                   	nop    
 8049d3d:	90                   	nop    
 8049d3e:	90                   	nop    
 8049d3f:	90                   	nop    

08049d40 <check_double_linked_list_element>:
 8049d40:	55                   	push   %ebp
 8049d41:	89 e5                	mov    %esp,%ebp
 8049d43:	83 ec 18             	sub    $0x18,%esp
 8049d46:	8b 55 08             	mov    0x8(%ebp),%edx
 8049d49:	85 d2                	test   %edx,%edx
 8049d4b:	74 18                	je     8049d65 <check_double_linked_list_element+0x25>
 8049d4d:	8b 42 08             	mov    0x8(%edx),%eax
 8049d50:	85 c0                	test   %eax,%eax
 8049d52:	74 05                	je     8049d59 <check_double_linked_list_element+0x19>
 8049d54:	39 50 04             	cmp    %edx,0x4(%eax)
 8049d57:	75 32                	jne    8049d8b <check_double_linked_list_element+0x4b>
 8049d59:	8b 42 04             	mov    0x4(%edx),%eax
 8049d5c:	85 c0                	test   %eax,%eax
 8049d5e:	74 05                	je     8049d65 <check_double_linked_list_element+0x25>
 8049d60:	39 50 08             	cmp    %edx,0x8(%eax)
 8049d63:	75 02                	jne    8049d67 <check_double_linked_list_element+0x27>
 8049d65:	c9                   	leave  
 8049d66:	c3                   	ret    
 8049d67:	c7 44 24 0c 60 46 05 	movl   $0x8054660,0xc(%esp)
 8049d6e:	08 
 8049d6f:	c7 44 24 08 df 00 00 	movl   $0xdf,0x8(%esp)
 8049d76:	00 
 8049d77:	c7 44 24 04 ac 3b 05 	movl   $0x8053bac,0x4(%esp)
 8049d7e:	08 
 8049d7f:	c7 04 24 ce 3b 05 08 	movl   $0x8053bce,(%esp)
 8049d86:	e8 0d e7 ff ff       	call   8048498 <__assert_fail@plt>
 8049d8b:	c7 44 24 0c 60 46 05 	movl   $0x8054660,0xc(%esp)
 8049d92:	08 
 8049d93:	c7 44 24 08 de 00 00 	movl   $0xde,0x8(%esp)
 8049d9a:	00 
 8049d9b:	c7 44 24 04 ac 3b 05 	movl   $0x8053bac,0x4(%esp)
 8049da2:	08 
 8049da3:	c7 04 24 b7 3b 05 08 	movl   $0x8053bb7,(%esp)
 8049daa:	e8 e9 e6 ff ff       	call   8048498 <__assert_fail@plt>
 8049daf:	90                   	nop    

08049db0 <check_list_equality>:
 8049db0:	55                   	push   %ebp
 8049db1:	89 e5                	mov    %esp,%ebp
 8049db3:	53                   	push   %ebx
 8049db4:	83 ec 14             	sub    $0x14,%esp
 8049db7:	8b 4d 08             	mov    0x8(%ebp),%ecx
 8049dba:	8b 5d 0c             	mov    0xc(%ebp),%ebx
 8049dbd:	85 c9                	test   %ecx,%ecx
 8049dbf:	89 da                	mov    %ebx,%edx
 8049dc1:	74 45                	je     8049e08 <check_list_equality+0x58>
 8049dc3:	85 db                	test   %ebx,%ebx
 8049dc5:	75 17                	jne    8049dde <check_list_equality+0x2e>
 8049dc7:	eb 1b                	jmp    8049de4 <check_list_equality+0x34>
 8049dc9:	8d b4 26 00 00 00 00 	lea    0x0(%esi),%esi
 8049dd0:	8b 49 04             	mov    0x4(%ecx),%ecx
 8049dd3:	8b 52 04             	mov    0x4(%edx),%edx
 8049dd6:	85 c9                	test   %ecx,%ecx
 8049dd8:	74 2e                	je     8049e08 <check_list_equality+0x58>
 8049dda:	85 d2                	test   %edx,%edx
 8049ddc:	74 06                	je     8049de4 <check_list_equality+0x34>
 8049dde:	8b 01                	mov    (%ecx),%eax
 8049de0:	3b 02                	cmp    (%edx),%eax
 8049de2:	74 ec                	je     8049dd0 <check_list_equality+0x20>
 8049de4:	c7 44 24 0c 44 47 05 	movl   $0x8054744,0xc(%esp)
 8049deb:	08 
 8049dec:	c7 44 24 08 a9 00 00 	movl   $0xa9,0x8(%esp)
 8049df3:	00 
 8049df4:	c7 44 24 04 ac 3b 05 	movl   $0x8053bac,0x4(%esp)
 8049dfb:	08 
 8049dfc:	c7 04 24 78 3d 05 08 	movl   $0x8053d78,(%esp)
 8049e03:	e8 90 e6 ff ff       	call   8048498 <__assert_fail@plt>
 8049e08:	85 d2                	test   %edx,%edx
 8049e0a:	75 06                	jne    8049e12 <check_list_equality+0x62>
 8049e0c:	83 c4 14             	add    $0x14,%esp
 8049e0f:	5b                   	pop    %ebx
 8049e10:	5d                   	pop    %ebp
 8049e11:	c3                   	ret    
 8049e12:	c7 44 24 0c 44 47 05 	movl   $0x8054744,0xc(%esp)
 8049e19:	08 
 8049e1a:	c7 44 24 08 ad 00 00 	movl   $0xad,0x8(%esp)
 8049e21:	00 
 8049e22:	c7 44 24 04 ac 3b 05 	movl   $0x8053bac,0x4(%esp)
 8049e29:	08 
 8049e2a:	c7 04 24 e5 3b 05 08 	movl   $0x8053be5,(%esp)
 8049e31:	e8 62 e6 ff ff       	call   8048498 <__assert_fail@plt>
 8049e36:	8d 76 00             	lea    0x0(%esi),%esi
 8049e39:	8d bc 27 00 00 00 00 	lea    0x0(%edi),%edi

08049e40 <compare_unique_counts>:
 8049e40:	55                   	push   %ebp
 8049e41:	b8 01 00 00 00       	mov    $0x1,%eax
 8049e46:	89 e5                	mov    %esp,%ebp
 8049e48:	83 ec 18             	sub    $0x18,%esp
 8049e4b:	8b 4d 08             	mov    0x8(%ebp),%ecx
 8049e4e:	8b 55 0c             	mov    0xc(%ebp),%edx
 8049e51:	eb 11                	jmp    8049e64 <compare_unique_counts+0x24>
 8049e53:	83 7c 82 fc 00       	cmpl   $0x0,0xfffffffc(%edx,%eax,4)
 8049e58:	75 3e                	jne    8049e98 <compare_unique_counts+0x58>
 8049e5a:	83 c0 01             	add    $0x1,%eax
 8049e5d:	3d e9 03 00 00       	cmp    $0x3e9,%eax
 8049e62:	74 32                	je     8049e96 <compare_unique_counts+0x56>
 8049e64:	83 7c 81 fc 00       	cmpl   $0x0,0xfffffffc(%ecx,%eax,4)
 8049e69:	74 e8                	je     8049e53 <compare_unique_counts+0x13>
 8049e6b:	83 7c 82 fc 01       	cmpl   $0x1,0xfffffffc(%edx,%eax,4)
 8049e70:	74 e8                	je     8049e5a <compare_unique_counts+0x1a>
 8049e72:	c7 44 24 0c 58 47 05 	movl   $0x8054758,0xc(%esp)
 8049e79:	08 
 8049e7a:	c7 44 24 08 83 00 00 	movl   $0x83,0x8(%esp)
 8049e81:	00 
 8049e82:	c7 44 24 04 ac 3b 05 	movl   $0x8053bac,0x4(%esp)
 8049e89:	08 
 8049e8a:	c7 04 24 0a 3c 05 08 	movl   $0x8053c0a,(%esp)
 8049e91:	e8 02 e6 ff ff       	call   8048498 <__assert_fail@plt>
 8049e96:	c9                   	leave  
 8049e97:	c3                   	ret    
 8049e98:	c7 44 24 0c 58 47 05 	movl   $0x8054758,0xc(%esp)
 8049e9f:	08 
 8049ea0:	c7 44 24 08 82 00 00 	movl   $0x82,0x8(%esp)
 8049ea7:	00 
 8049ea8:	c7 44 24 04 ac 3b 05 	movl   $0x8053bac,0x4(%esp)
 8049eaf:	08 
 8049eb0:	c7 04 24 f7 3b 05 08 	movl   $0x8053bf7,(%esp)
 8049eb7:	e8 dc e5 ff ff       	call   8048498 <__assert_fail@plt>
 8049ebc:	8d 74 26 00          	lea    0x0(%esi),%esi

08049ec0 <sglib___Tree_consistency_check_recursive>:
 8049ec0:	55                   	push   %ebp
 8049ec1:	89 e5                	mov    %esp,%ebp
 8049ec3:	57                   	push   %edi
 8049ec4:	89 cf                	mov    %ecx,%edi
 8049ec6:	56                   	push   %esi
 8049ec7:	53                   	push   %ebx
 8049ec8:	89 c3                	mov    %eax,%ebx
 8049eca:	83 ec 1c             	sub    $0x1c,%esp
 8049ecd:	85 c0                	test   %eax,%eax
 8049ecf:	89 55 f0             	mov    %edx,0xfffffff0(%ebp)
 8049ed2:	75 35                	jne    8049f09 <sglib___Tree_consistency_check_recursive+0x49>
 8049ed4:	eb 5c                	jmp    8049f32 <sglib___Tree_consistency_check_recursive+0x72>
 8049ed6:	85 f6                	test   %esi,%esi
 8049ed8:	74 0c                	je     8049ee6 <sglib___Tree_consistency_check_recursive+0x26>
 8049eda:	80 7e 0c 00          	cmpb   $0x0,0xc(%esi)
 8049ede:	66 90                	xchg   %ax,%ax
 8049ee0:	0f 85 d5 00 00 00    	jne    8049fbb <sglib___Tree_consistency_check_recursive+0xfb>
 8049ee6:	85 d2                	test   %edx,%edx
 8049ee8:	74 0c                	je     8049ef6 <sglib___Tree_consistency_check_recursive+0x36>
 8049eea:	80 7a 0c 00          	cmpb   $0x0,0xc(%edx)
 8049eee:	66 90                	xchg   %ax,%ax
 8049ef0:	0f 85 9d 00 00 00    	jne    8049f93 <sglib___Tree_consistency_check_recursive+0xd3>
 8049ef6:	8b 55 f0             	mov    0xfffffff0(%ebp),%edx
 8049ef9:	89 f9                	mov    %edi,%ecx
 8049efb:	89 f0                	mov    %esi,%eax
 8049efd:	e8 be ff ff ff       	call   8049ec0 <sglib___Tree_consistency_check_recursive>
 8049f02:	8b 5b 14             	mov    0x14(%ebx),%ebx
 8049f05:	85 db                	test   %ebx,%ebx
 8049f07:	74 29                	je     8049f32 <sglib___Tree_consistency_check_recursive+0x72>
 8049f09:	8b 73 10             	mov    0x10(%ebx),%esi
 8049f0c:	85 f6                	test   %esi,%esi
 8049f0e:	74 08                	je     8049f18 <sglib___Tree_consistency_check_recursive+0x58>
 8049f10:	8b 06                	mov    (%esi),%eax
 8049f12:	2b 03                	sub    (%ebx),%eax
 8049f14:	85 c0                	test   %eax,%eax
 8049f16:	7f 33                	jg     8049f4b <sglib___Tree_consistency_check_recursive+0x8b>
 8049f18:	8b 53 14             	mov    0x14(%ebx),%edx
 8049f1b:	85 d2                	test   %edx,%edx
 8049f1d:	74 08                	je     8049f27 <sglib___Tree_consistency_check_recursive+0x67>
 8049f1f:	8b 03                	mov    (%ebx),%eax
 8049f21:	2b 02                	sub    (%edx),%eax
 8049f23:	85 c0                	test   %eax,%eax
 8049f25:	7f 48                	jg     8049f6f <sglib___Tree_consistency_check_recursive+0xaf>
 8049f27:	80 7b 0c 01          	cmpb   $0x1,0xc(%ebx)
 8049f2b:	74 a9                	je     8049ed6 <sglib___Tree_consistency_check_recursive+0x16>
 8049f2d:	83 c7 01             	add    $0x1,%edi
 8049f30:	eb c4                	jmp    8049ef6 <sglib___Tree_consistency_check_recursive+0x36>
 8049f32:	8b 55 f0             	mov    0xfffffff0(%ebp),%edx
 8049f35:	8b 02                	mov    (%edx),%eax
 8049f37:	85 c0                	test   %eax,%eax
 8049f39:	78 7c                	js     8049fb7 <sglib___Tree_consistency_check_recursive+0xf7>
 8049f3b:	39 c7                	cmp    %eax,%edi
 8049f3d:	0f 85 9c 00 00 00    	jne    8049fdf <sglib___Tree_consistency_check_recursive+0x11f>
 8049f43:	83 c4 1c             	add    $0x1c,%esp
 8049f46:	5b                   	pop    %ebx
 8049f47:	5e                   	pop    %esi
 8049f48:	5f                   	pop    %edi
 8049f49:	5d                   	pop    %ebp
 8049f4a:	c3                   	ret    
 8049f4b:	c7 44 24 0c a0 47 05 	movl   $0x80547a0,0xc(%esp)
 8049f52:	08 
 8049f53:	c7 44 24 08 48 00 00 	movl   $0x48,0x8(%esp)
 8049f5a:	00 
 8049f5b:	c7 44 24 04 ac 3b 05 	movl   $0x8053bac,0x4(%esp)
 8049f62:	08 
 8049f63:	c7 04 24 9c 3d 05 08 	movl   $0x8053d9c,(%esp)
 8049f6a:	e8 29 e5 ff ff       	call   8048498 <__assert_fail@plt>
 8049f6f:	c7 44 24 0c a0 47 05 	movl   $0x80547a0,0xc(%esp)
 8049f76:	08 
 8049f77:	c7 44 24 08 48 00 00 	movl   $0x48,0x8(%esp)
 8049f7e:	00 
 8049f7f:	c7 44 24 04 ac 3b 05 	movl   $0x8053bac,0x4(%esp)
 8049f86:	08 
 8049f87:	c7 04 24 bc 3d 05 08 	movl   $0x8053dbc,(%esp)
 8049f8e:	e8 05 e5 ff ff       	call   8048498 <__assert_fail@plt>
 8049f93:	c7 44 24 0c a0 47 05 	movl   $0x80547a0,0xc(%esp)
 8049f9a:	08 
 8049f9b:	c7 44 24 08 48 00 00 	movl   $0x48,0x8(%esp)
 8049fa2:	00 
 8049fa3:	c7 44 24 04 ac 3b 05 	movl   $0x8053bac,0x4(%esp)
 8049faa:	08 
 8049fab:	c7 04 24 14 3e 05 08 	movl   $0x8053e14,(%esp)
 8049fb2:	e8 e1 e4 ff ff       	call   8048498 <__assert_fail@plt>
 8049fb7:	89 3a                	mov    %edi,(%edx)
 8049fb9:	eb 88                	jmp    8049f43 <sglib___Tree_consistency_check_recursive+0x83>
 8049fbb:	c7 44 24 0c a0 47 05 	movl   $0x80547a0,0xc(%esp)
 8049fc2:	08 
 8049fc3:	c7 44 24 08 48 00 00 	movl   $0x48,0x8(%esp)
 8049fca:	00 
 8049fcb:	c7 44 24 04 ac 3b 05 	movl   $0x8053bac,0x4(%esp)
 8049fd2:	08 
 8049fd3:	c7 04 24 dc 3d 05 08 	movl   $0x8053ddc,(%esp)
 8049fda:	e8 b9 e4 ff ff       	call   8048498 <__assert_fail@plt>
 8049fdf:	c7 44 24 0c a0 47 05 	movl   $0x80547a0,0xc(%esp)
 8049fe6:	08 
 8049fe7:	c7 44 24 08 48 00 00 	movl   $0x48,0x8(%esp)
 8049fee:	00 
 8049fef:	c7 44 24 04 ac 3b 05 	movl   $0x8053bac,0x4(%esp)
 8049ff6:	08 
 8049ff7:	c7 04 24 1d 3c 05 08 	movl   $0x8053c1d,(%esp)
 8049ffe:	e8 95 e4 ff ff       	call   8048498 <__assert_fail@plt>
 804a003:	8d b6 00 00 00 00    	lea    0x0(%esi),%esi
 804a009:	8d bc 27 00 00 00 00 	lea    0x0(%edi),%edi

0804a010 <sglib___Tree_consistency_check>:
 804a010:	55                   	push   %ebp
 804a011:	89 e5                	mov    %esp,%ebp
 804a013:	83 ec 28             	sub    $0x28,%esp
 804a016:	8b 45 08             	mov    0x8(%ebp),%eax
 804a019:	85 c0                	test   %eax,%eax
 804a01b:	74 06                	je     804a023 <sglib___Tree_consistency_check+0x13>
 804a01d:	80 78 0c 00          	cmpb   $0x0,0xc(%eax)
 804a021:	75 13                	jne    804a036 <sglib___Tree_consistency_check+0x26>
 804a023:	8d 55 fc             	lea    0xfffffffc(%ebp),%edx
 804a026:	31 c9                	xor    %ecx,%ecx
 804a028:	c7 45 fc ff ff ff ff 	movl   $0xffffffff,0xfffffffc(%ebp)
 804a02f:	e8 8c fe ff ff       	call   8049ec0 <sglib___Tree_consistency_check_recursive>
 804a034:	c9                   	leave  
 804a035:	c3                   	ret    
 804a036:	c7 44 24 0c 80 47 05 	movl   $0x8054780,0xc(%esp)
 804a03d:	08 
 804a03e:	c7 44 24 08 48 00 00 	movl   $0x48,0x8(%esp)
 804a045:	00 
 804a046:	c7 44 24 04 ac 3b 05 	movl   $0x8053bac,0x4(%esp)
 804a04d:	08 
 804a04e:	c7 04 24 4c 3e 05 08 	movl   $0x8053e4c,(%esp)
 804a055:	e8 3e e4 ff ff       	call   8048498 <__assert_fail@plt>
 804a05a:	8d b6 00 00 00 00    	lea    0x0(%esi),%esi

0804a060 <sglib_Tree_len>:
 804a060:	55                   	push   %ebp
 804a061:	89 e5                	mov    %esp,%ebp
 804a063:	57                   	push   %edi
 804a064:	56                   	push   %esi
 804a065:	53                   	push   %ebx
 804a066:	81 ec 9c 02 00 00    	sub    $0x29c,%esp
 804a06c:	8b 45 08             	mov    0x8(%ebp),%eax
 804a06f:	85 c0                	test   %eax,%eax
 804a071:	0f 84 ae 00 00 00    	je     804a125 <sglib_Tree_len+0xc5>
 804a077:	31 ff                	xor    %edi,%edi
 804a079:	31 d2                	xor    %edx,%edx
 804a07b:	90                   	nop    
 804a07c:	8d 74 26 00          	lea    0x0(%esi),%esi
 804a080:	8d b5 74 fd ff ff    	lea    0xfffffd74(%ebp),%esi
 804a086:	8d 9d 74 ff ff ff    	lea    0xffffff74(%ebp),%ebx
 804a08c:	8d 74 26 00          	lea    0x0(%esi),%esi
 804a090:	83 c2 01             	add    $0x1,%edx
 804a093:	8b 48 14             	mov    0x14(%eax),%ecx
 804a096:	83 fa 7f             	cmp    $0x7f,%edx
 804a099:	8b 40 10             	mov    0x10(%eax),%eax
 804a09c:	7f 63                	jg     804a101 <sglib_Tree_len+0xa1>
 804a09e:	85 c0                	test   %eax,%eax
 804a0a0:	89 4c 96 fc          	mov    %ecx,0xfffffffc(%esi,%edx,4)
 804a0a4:	c6 44 1a ff 00       	movb   $0x0,0xffffffff(%edx,%ebx,1)
 804a0a9:	75 e5                	jne    804a090 <sglib_Tree_len+0x30>
 804a0ab:	90                   	nop    
 804a0ac:	8d 74 26 00          	lea    0x0(%esi),%esi
 804a0b0:	83 ea 01             	sub    $0x1,%edx
 804a0b3:	0f b6 84 15 74 ff ff 	movzbl 0xffffff74(%ebp,%edx,1),%eax
 804a0ba:	ff 
 804a0bb:	3c 01                	cmp    $0x1,%al
 804a0bd:	83 d7 00             	adc    $0x0,%edi
 804a0c0:	83 c0 01             	add    $0x1,%eax
 804a0c3:	85 d2                	test   %edx,%edx
 804a0c5:	88 84 15 74 ff ff ff 	mov    %al,0xffffff74(%ebp,%edx,1)
 804a0cc:	7e 1b                	jle    804a0e9 <sglib_Tree_len+0x89>
 804a0ce:	8b 84 95 74 fd ff ff 	mov    0xfffffd74(%ebp,%edx,4),%eax
 804a0d5:	85 c0                	test   %eax,%eax
 804a0d7:	74 d7                	je     804a0b0 <sglib_Tree_len+0x50>
 804a0d9:	c7 84 95 74 fd ff ff 	movl   $0x0,0xfffffd74(%ebp,%edx,4)
 804a0e0:	00 00 00 00 
 804a0e4:	83 c2 01             	add    $0x1,%edx
 804a0e7:	eb 97                	jmp    804a080 <sglib_Tree_len+0x20>
 804a0e9:	8b 84 95 74 fd ff ff 	mov    0xfffffd74(%ebp,%edx,4),%eax
 804a0f0:	85 c0                	test   %eax,%eax
 804a0f2:	75 e5                	jne    804a0d9 <sglib_Tree_len+0x79>
 804a0f4:	81 c4 9c 02 00 00    	add    $0x29c,%esp
 804a0fa:	89 f8                	mov    %edi,%eax
 804a0fc:	5b                   	pop    %ebx
 804a0fd:	5e                   	pop    %esi
 804a0fe:	5f                   	pop    %edi
 804a0ff:	5d                   	pop    %ebp
 804a100:	c3                   	ret    
 804a101:	c7 44 24 0c dd 47 05 	movl   $0x80547dd,0xc(%esp)
 804a108:	08 
 804a109:	c7 44 24 08 48 00 00 	movl   $0x48,0x8(%esp)
 804a110:	00 
 804a111:	c7 44 24 04 ac 3b 05 	movl   $0x8053bac,0x4(%esp)
 804a118:	08 
 804a119:	c7 04 24 70 3e 05 08 	movl   $0x8053e70,(%esp)
 804a120:	e8 73 e3 ff ff       	call   8048498 <__assert_fail@plt>
 804a125:	31 ff                	xor    %edi,%edi
 804a127:	eb cb                	jmp    804a0f4 <sglib_Tree_len+0x94>
 804a129:	8d b4 26 00 00 00 00 	lea    0x0(%esi),%esi

0804a130 <sglib_Tree_is_member>:
 804a130:	55                   	push   %ebp
 804a131:	89 e5                	mov    %esp,%ebp
 804a133:	56                   	push   %esi
 804a134:	53                   	push   %ebx
 804a135:	83 ec 10             	sub    $0x10,%esp
 804a138:	8b 55 08             	mov    0x8(%ebp),%edx
 804a13b:	8b 75 0c             	mov    0xc(%ebp),%esi
 804a13e:	85 d2                	test   %edx,%edx
 804a140:	74 1d                	je     804a15f <sglib_Tree_is_member+0x2f>
 804a142:	8b 1e                	mov    (%esi),%ebx
 804a144:	89 d8                	mov    %ebx,%eax
 804a146:	2b 02                	sub    (%edx),%eax
 804a148:	83 f8 00             	cmp    $0x0,%eax
 804a14b:	7c 0b                	jl     804a158 <sglib_Tree_is_member+0x28>
 804a14d:	0f 94 c1             	sete   %cl
 804a150:	84 c9                	test   %cl,%cl
 804a152:	74 14                	je     804a168 <sglib_Tree_is_member+0x38>
 804a154:	39 d6                	cmp    %edx,%esi
 804a156:	73 10                	jae    804a168 <sglib_Tree_is_member+0x38>
 804a158:	8b 52 10             	mov    0x10(%edx),%edx
 804a15b:	85 d2                	test   %edx,%edx
 804a15d:	75 e5                	jne    804a144 <sglib_Tree_is_member+0x14>
 804a15f:	83 c4 10             	add    $0x10,%esp
 804a162:	31 c0                	xor    %eax,%eax
 804a164:	5b                   	pop    %ebx
 804a165:	5e                   	pop    %esi
 804a166:	5d                   	pop    %ebp
 804a167:	c3                   	ret    
 804a168:	85 c0                	test   %eax,%eax
 804a16a:	75 18                	jne    804a184 <sglib_Tree_is_member+0x54>
 804a16c:	84 c9                	test   %cl,%cl
 804a16e:	74 04                	je     804a174 <sglib_Tree_is_member+0x44>
 804a170:	39 d6                	cmp    %edx,%esi
 804a172:	77 10                	ja     804a184 <sglib_Tree_is_member+0x54>
 804a174:	39 f2                	cmp    %esi,%edx
 804a176:	b8 01 00 00 00       	mov    $0x1,%eax
 804a17b:	75 0c                	jne    804a189 <sglib_Tree_is_member+0x59>
 804a17d:	83 c4 10             	add    $0x10,%esp
 804a180:	5b                   	pop    %ebx
 804a181:	5e                   	pop    %esi
 804a182:	5d                   	pop    %ebp
 804a183:	c3                   	ret    
 804a184:	8b 52 14             	mov    0x14(%edx),%edx
 804a187:	eb d2                	jmp    804a15b <sglib_Tree_is_member+0x2b>
 804a189:	c7 44 24 0c ec 47 05 	movl   $0x80547ec,0xc(%esp)
 804a190:	08 
 804a191:	c7 44 24 08 48 00 00 	movl   $0x48,0x8(%esp)
 804a198:	00 
 804a199:	c7 44 24 04 ac 3b 05 	movl   $0x8053bac,0x4(%esp)
 804a1a0:	08 
 804a1a1:	c7 04 24 30 3c 05 08 	movl   $0x8053c30,(%esp)
 804a1a8:	e8 eb e2 ff ff       	call   8048498 <__assert_fail@plt>
 804a1ad:	8d 76 00             	lea    0x0(%esi),%esi

0804a1b0 <sglib___Tree_fix_right_deletion_discrepancy>:
 804a1b0:	55                   	push   %ebp
 804a1b1:	89 c1                	mov    %eax,%ecx
 804a1b3:	89 e5                	mov    %esp,%ebp
 804a1b5:	83 ec 38             	sub    $0x38,%esp
 804a1b8:	89 5d f4             	mov    %ebx,0xfffffff4(%ebp)
 804a1bb:	89 75 f8             	mov    %esi,0xfffffff8(%ebp)
 804a1be:	89 7d fc             	mov    %edi,0xfffffffc(%ebp)
 804a1c1:	8b 38                	mov    (%eax),%edi
 804a1c3:	85 ff                	test   %edi,%edi
 804a1c5:	0f 84 70 02 00 00    	je     804a43b <sglib___Tree_fix_right_deletion_discrepancy+0x28b>
 804a1cb:	8b 5f 10             	mov    0x10(%edi),%ebx
 804a1ce:	85 db                	test   %ebx,%ebx
 804a1d0:	0f 84 62 01 00 00    	je     804a338 <sglib___Tree_fix_right_deletion_discrepancy+0x188>
 804a1d6:	80 7b 0c 01          	cmpb   $0x1,0xc(%ebx)
 804a1da:	8b 53 10             	mov    0x10(%ebx),%edx
 804a1dd:	8b 73 14             	mov    0x14(%ebx),%esi
 804a1e0:	74 7e                	je     804a260 <sglib___Tree_fix_right_deletion_discrepancy+0xb0>
 804a1e2:	85 d2                	test   %edx,%edx
 804a1e4:	74 06                	je     804a1ec <sglib___Tree_fix_right_deletion_discrepancy+0x3c>
 804a1e6:	80 7a 0c 00          	cmpb   $0x0,0xc(%edx)
 804a1ea:	75 38                	jne    804a224 <sglib___Tree_fix_right_deletion_discrepancy+0x74>
 804a1ec:	85 f6                	test   %esi,%esi
 804a1ee:	66 90                	xchg   %ax,%ax
 804a1f0:	74 06                	je     804a1f8 <sglib___Tree_fix_right_deletion_discrepancy+0x48>
 804a1f2:	80 7e 0c 00          	cmpb   $0x0,0xc(%esi)
 804a1f6:	75 28                	jne    804a220 <sglib___Tree_fix_right_deletion_discrepancy+0x70>
 804a1f8:	31 c0                	xor    %eax,%eax
 804a1fa:	80 7f 0c 00          	cmpb   $0x0,0xc(%edi)
 804a1fe:	c6 47 0c 00          	movb   $0x0,0xc(%edi)
 804a202:	c6 43 0c 01          	movb   $0x1,0xc(%ebx)
 804a206:	0f 94 c0             	sete   %al
 804a209:	8d b4 26 00 00 00 00 	lea    0x0(%esi),%esi
 804a210:	8b 5d f4             	mov    0xfffffff4(%ebp),%ebx
 804a213:	8b 75 f8             	mov    0xfffffff8(%ebp),%esi
 804a216:	8b 7d fc             	mov    0xfffffffc(%ebp),%edi
 804a219:	89 ec                	mov    %ebp,%esp
 804a21b:	5d                   	pop    %ebp
 804a21c:	c3                   	ret    
 804a21d:	8d 76 00             	lea    0x0(%esi),%esi
 804a220:	85 d2                	test   %edx,%edx
 804a222:	74 0e                	je     804a232 <sglib___Tree_fix_right_deletion_discrepancy+0x82>
 804a224:	80 7a 0c 01          	cmpb   $0x1,0xc(%edx)
 804a228:	0f 84 1f 01 00 00    	je     804a34d <sglib___Tree_fix_right_deletion_discrepancy+0x19d>
 804a22e:	85 f6                	test   %esi,%esi
 804a230:	74 0a                	je     804a23c <sglib___Tree_fix_right_deletion_discrepancy+0x8c>
 804a232:	80 7e 0c 01          	cmpb   $0x1,0xc(%esi)
 804a236:	0f 84 b9 00 00 00    	je     804a2f5 <sglib___Tree_fix_right_deletion_discrepancy+0x145>
 804a23c:	c7 44 24 0c 20 48 05 	movl   $0x8054820,0xc(%esp)
 804a243:	08 
 804a244:	c7 44 24 08 48 00 00 	movl   $0x48,0x8(%esp)
 804a24b:	00 
 804a24c:	c7 44 24 04 ac 3b 05 	movl   $0x8053bac,0x4(%esp)
 804a253:	08 
 804a254:	c7 04 24 d8 3e 05 08 	movl   $0x8053ed8,(%esp)
 804a25b:	e8 38 e2 ff ff       	call   8048498 <__assert_fail@plt>
 804a260:	85 f6                	test   %esi,%esi
 804a262:	0f 84 44 01 00 00    	je     804a3ac <sglib___Tree_fix_right_deletion_discrepancy+0x1fc>
 804a268:	80 7e 0c 00          	cmpb   $0x0,0xc(%esi)
 804a26c:	0f 85 f5 01 00 00    	jne    804a467 <sglib___Tree_fix_right_deletion_discrepancy+0x2b7>
 804a272:	8b 46 10             	mov    0x10(%esi),%eax
 804a275:	89 45 e4             	mov    %eax,0xffffffe4(%ebp)
 804a278:	8b 46 14             	mov    0x14(%esi),%eax
 804a27b:	89 45 f0             	mov    %eax,0xfffffff0(%ebp)
 804a27e:	8b 45 e4             	mov    0xffffffe4(%ebp),%eax
 804a281:	85 c0                	test   %eax,%eax
 804a283:	74 09                	je     804a28e <sglib___Tree_fix_right_deletion_discrepancy+0xde>
 804a285:	8b 45 e4             	mov    0xffffffe4(%ebp),%eax
 804a288:	80 78 0c 00          	cmpb   $0x0,0xc(%eax)
 804a28c:	75 22                	jne    804a2b0 <sglib___Tree_fix_right_deletion_discrepancy+0x100>
 804a28e:	8b 45 f0             	mov    0xfffffff0(%ebp),%eax
 804a291:	85 c0                	test   %eax,%eax
 804a293:	0f 84 88 00 00 00    	je     804a321 <sglib___Tree_fix_right_deletion_discrepancy+0x171>
 804a299:	8b 45 f0             	mov    0xfffffff0(%ebp),%eax
 804a29c:	80 78 0c 00          	cmpb   $0x0,0xc(%eax)
 804a2a0:	74 7f                	je     804a321 <sglib___Tree_fix_right_deletion_discrepancy+0x171>
 804a2a2:	8b 45 e4             	mov    0xffffffe4(%ebp),%eax
 804a2a5:	85 c0                	test   %eax,%eax
 804a2a7:	74 1b                	je     804a2c4 <sglib___Tree_fix_right_deletion_discrepancy+0x114>
 804a2a9:	8d b4 26 00 00 00 00 	lea    0x0(%esi),%esi
 804a2b0:	8b 45 e4             	mov    0xffffffe4(%ebp),%eax
 804a2b3:	80 78 0c 01          	cmpb   $0x1,0xc(%eax)
 804a2b7:	0f 84 06 01 00 00    	je     804a3c3 <sglib___Tree_fix_right_deletion_discrepancy+0x213>
 804a2bd:	8b 55 f0             	mov    0xfffffff0(%ebp),%edx
 804a2c0:	85 d2                	test   %edx,%edx
 804a2c2:	74 0d                	je     804a2d1 <sglib___Tree_fix_right_deletion_discrepancy+0x121>
 804a2c4:	8b 55 f0             	mov    0xfffffff0(%ebp),%edx
 804a2c7:	80 7a 0c 01          	cmpb   $0x1,0xc(%edx)
 804a2cb:	0f 84 28 01 00 00    	je     804a3f9 <sglib___Tree_fix_right_deletion_discrepancy+0x249>
 804a2d1:	c7 44 24 0c 20 48 05 	movl   $0x8054820,0xc(%esp)
 804a2d8:	08 
 804a2d9:	c7 44 24 08 48 00 00 	movl   $0x48,0x8(%esp)
 804a2e0:	00 
 804a2e1:	c7 44 24 04 ac 3b 05 	movl   $0x8053bac,0x4(%esp)
 804a2e8:	08 
 804a2e9:	c7 04 24 08 3c 05 08 	movl   $0x8053c08,(%esp)
 804a2f0:	e8 a3 e1 ff ff       	call   8048498 <__assert_fail@plt>
 804a2f5:	8b 56 14             	mov    0x14(%esi),%edx
 804a2f8:	8b 46 10             	mov    0x10(%esi),%eax
 804a2fb:	89 31                	mov    %esi,(%ecx)
 804a2fd:	89 7e 14             	mov    %edi,0x14(%esi)
 804a300:	89 55 e8             	mov    %edx,0xffffffe8(%ebp)
 804a303:	0f b6 57 0c          	movzbl 0xc(%edi),%edx
 804a307:	89 43 14             	mov    %eax,0x14(%ebx)
 804a30a:	89 5e 10             	mov    %ebx,0x10(%esi)
 804a30d:	88 56 0c             	mov    %dl,0xc(%esi)
 804a310:	c6 47 0c 00          	movb   $0x0,0xc(%edi)
 804a314:	8b 45 e8             	mov    0xffffffe8(%ebp),%eax
 804a317:	89 47 10             	mov    %eax,0x10(%edi)
 804a31a:	31 c0                	xor    %eax,%eax
 804a31c:	e9 ef fe ff ff       	jmp    804a210 <sglib___Tree_fix_right_deletion_discrepancy+0x60>
 804a321:	31 c0                	xor    %eax,%eax
 804a323:	89 19                	mov    %ebx,(%ecx)
 804a325:	c6 43 0c 00          	movb   $0x0,0xc(%ebx)
 804a329:	89 7b 14             	mov    %edi,0x14(%ebx)
 804a32c:	89 77 10             	mov    %esi,0x10(%edi)
 804a32f:	c6 46 0c 01          	movb   $0x1,0xc(%esi)
 804a333:	e9 d8 fe ff ff       	jmp    804a210 <sglib___Tree_fix_right_deletion_discrepancy+0x60>
 804a338:	80 7f 0c 01          	cmpb   $0x1,0xc(%edi)
 804a33c:	0f 85 49 01 00 00    	jne    804a48b <sglib___Tree_fix_right_deletion_discrepancy+0x2db>
 804a342:	31 c0                	xor    %eax,%eax
 804a344:	c6 47 0c 00          	movb   $0x0,0xc(%edi)
 804a348:	e9 c3 fe ff ff       	jmp    804a210 <sglib___Tree_fix_right_deletion_discrepancy+0x60>
 804a34d:	85 f6                	test   %esi,%esi
 804a34f:	90                   	nop    
 804a350:	74 3c                	je     804a38e <sglib___Tree_fix_right_deletion_discrepancy+0x1de>
 804a352:	0f b6 46 0c          	movzbl 0xc(%esi),%eax
 804a356:	84 c0                	test   %al,%al
 804a358:	74 34                	je     804a38e <sglib___Tree_fix_right_deletion_discrepancy+0x1de>
 804a35a:	2c 01                	sub    $0x1,%al
 804a35c:	0f 85 4d 01 00 00    	jne    804a4af <sglib___Tree_fix_right_deletion_discrepancy+0x2ff>
 804a362:	8b 56 14             	mov    0x14(%esi),%edx
 804a365:	8b 46 10             	mov    0x10(%esi),%eax
 804a368:	89 31                	mov    %esi,(%ecx)
 804a36a:	89 7e 14             	mov    %edi,0x14(%esi)
 804a36d:	89 55 ec             	mov    %edx,0xffffffec(%ebp)
 804a370:	0f b6 57 0c          	movzbl 0xc(%edi),%edx
 804a374:	89 43 14             	mov    %eax,0x14(%ebx)
 804a377:	89 5e 10             	mov    %ebx,0x10(%esi)
 804a37a:	88 56 0c             	mov    %dl,0xc(%esi)
 804a37d:	c6 47 0c 00          	movb   $0x0,0xc(%edi)
 804a381:	8b 45 ec             	mov    0xffffffec(%ebp),%eax
 804a384:	89 47 10             	mov    %eax,0x10(%edi)
 804a387:	31 c0                	xor    %eax,%eax
 804a389:	e9 82 fe ff ff       	jmp    804a210 <sglib___Tree_fix_right_deletion_discrepancy+0x60>
 804a38e:	89 19                	mov    %ebx,(%ecx)
 804a390:	0f b6 47 0c          	movzbl 0xc(%edi),%eax
 804a394:	89 7b 14             	mov    %edi,0x14(%ebx)
 804a397:	89 77 10             	mov    %esi,0x10(%edi)
 804a39a:	88 43 0c             	mov    %al,0xc(%ebx)
 804a39d:	31 c0                	xor    %eax,%eax
 804a39f:	c6 47 0c 00          	movb   $0x0,0xc(%edi)
 804a3a3:	c6 42 0c 00          	movb   $0x0,0xc(%edx)
 804a3a7:	e9 64 fe ff ff       	jmp    804a210 <sglib___Tree_fix_right_deletion_discrepancy+0x60>
 804a3ac:	89 18                	mov    %ebx,(%eax)
 804a3ae:	31 c0                	xor    %eax,%eax
 804a3b0:	c6 43 0c 00          	movb   $0x0,0xc(%ebx)
 804a3b4:	89 7b 14             	mov    %edi,0x14(%ebx)
 804a3b7:	c7 47 10 00 00 00 00 	movl   $0x0,0x10(%edi)
 804a3be:	e9 4d fe ff ff       	jmp    804a210 <sglib___Tree_fix_right_deletion_discrepancy+0x60>
 804a3c3:	8b 45 f0             	mov    0xfffffff0(%ebp),%eax
 804a3c6:	85 c0                	test   %eax,%eax
 804a3c8:	74 0d                	je     804a3d7 <sglib___Tree_fix_right_deletion_discrepancy+0x227>
 804a3ca:	8b 45 f0             	mov    0xfffffff0(%ebp),%eax
 804a3cd:	80 78 0c 01          	cmpb   $0x1,0xc(%eax)
 804a3d1:	0f 84 88 00 00 00    	je     804a45f <sglib___Tree_fix_right_deletion_discrepancy+0x2af>
 804a3d7:	8b 45 f0             	mov    0xfffffff0(%ebp),%eax
 804a3da:	89 31                	mov    %esi,(%ecx)
 804a3dc:	89 5e 10             	mov    %ebx,0x10(%esi)
 804a3df:	89 53 10             	mov    %edx,0x10(%ebx)
 804a3e2:	8b 55 e4             	mov    0xffffffe4(%ebp),%edx
 804a3e5:	89 47 10             	mov    %eax,0x10(%edi)
 804a3e8:	31 c0                	xor    %eax,%eax
 804a3ea:	89 7e 14             	mov    %edi,0x14(%esi)
 804a3ed:	c6 42 0c 00          	movb   $0x0,0xc(%edx)
 804a3f1:	89 53 14             	mov    %edx,0x14(%ebx)
 804a3f4:	e9 17 fe ff ff       	jmp    804a210 <sglib___Tree_fix_right_deletion_discrepancy+0x60>
 804a3f9:	8b 45 e4             	mov    0xffffffe4(%ebp),%eax
 804a3fc:	85 c0                	test   %eax,%eax
 804a3fe:	74 0d                	je     804a40d <sglib___Tree_fix_right_deletion_discrepancy+0x25d>
 804a400:	8b 45 e4             	mov    0xffffffe4(%ebp),%eax
 804a403:	80 78 0c 00          	cmpb   $0x0,0xc(%eax)
 804a407:	0f 85 c6 00 00 00    	jne    804a4d3 <sglib___Tree_fix_right_deletion_discrepancy+0x323>
 804a40d:	8b 55 f0             	mov    0xfffffff0(%ebp),%edx
 804a410:	8b 45 f0             	mov    0xfffffff0(%ebp),%eax
 804a413:	8b 52 10             	mov    0x10(%edx),%edx
 804a416:	89 55 e4             	mov    %edx,0xffffffe4(%ebp)
 804a419:	8b 50 14             	mov    0x14(%eax),%edx
 804a41c:	89 01                	mov    %eax,(%ecx)
 804a41e:	c6 40 0c 00          	movb   $0x0,0xc(%eax)
 804a422:	89 58 10             	mov    %ebx,0x10(%eax)
 804a425:	8b 45 e4             	mov    0xffffffe4(%ebp),%eax
 804a428:	89 57 10             	mov    %edx,0x10(%edi)
 804a42b:	89 46 14             	mov    %eax,0x14(%esi)
 804a42e:	8b 45 f0             	mov    0xfffffff0(%ebp),%eax
 804a431:	89 78 14             	mov    %edi,0x14(%eax)
 804a434:	31 c0                	xor    %eax,%eax
 804a436:	e9 d5 fd ff ff       	jmp    804a210 <sglib___Tree_fix_right_deletion_discrepancy+0x60>
 804a43b:	c7 44 24 0c 20 48 05 	movl   $0x8054820,0xc(%esp)
 804a442:	08 
 804a443:	c7 44 24 08 48 00 00 	movl   $0x48,0x8(%esp)
 804a44a:	00 
 804a44b:	c7 44 24 04 ac 3b 05 	movl   $0x8053bac,0x4(%esp)
 804a452:	08 
 804a453:	c7 04 24 f3 3c 05 08 	movl   $0x8053cf3,(%esp)
 804a45a:	e8 39 e0 ff ff       	call   8048498 <__assert_fail@plt>
 804a45f:	8b 50 10             	mov    0x10(%eax),%edx
 804a462:	89 55 e4             	mov    %edx,0xffffffe4(%ebp)
 804a465:	eb b2                	jmp    804a419 <sglib___Tree_fix_right_deletion_discrepancy+0x269>
 804a467:	c7 44 24 0c 20 48 05 	movl   $0x8054820,0xc(%esp)
 804a46e:	08 
 804a46f:	c7 44 24 08 48 00 00 	movl   $0x48,0x8(%esp)
 804a476:	00 
 804a477:	c7 44 24 04 ac 3b 05 	movl   $0x8053bac,0x4(%esp)
 804a47e:	08 
 804a47f:	c7 04 24 94 3e 05 08 	movl   $0x8053e94,(%esp)
 804a486:	e8 0d e0 ff ff       	call   8048498 <__assert_fail@plt>
 804a48b:	c7 44 24 0c 20 48 05 	movl   $0x8054820,0xc(%esp)
 804a492:	08 
 804a493:	c7 44 24 08 48 00 00 	movl   $0x48,0x8(%esp)
 804a49a:	00 
 804a49b:	c7 44 24 04 ac 3b 05 	movl   $0x8053bac,0x4(%esp)
 804a4a2:	08 
 804a4a3:	c7 04 24 3a 3c 05 08 	movl   $0x8053c3a,(%esp)
 804a4aa:	e8 e9 df ff ff       	call   8048498 <__assert_fail@plt>
 804a4af:	c7 44 24 0c 20 48 05 	movl   $0x8054820,0xc(%esp)
 804a4b6:	08 
 804a4b7:	c7 44 24 08 48 00 00 	movl   $0x48,0x8(%esp)
 804a4be:	00 
 804a4bf:	c7 44 24 04 ac 3b 05 	movl   $0x8053bac,0x4(%esp)
 804a4c6:	08 
 804a4c7:	c7 04 24 48 3c 05 08 	movl   $0x8053c48,(%esp)
 804a4ce:	e8 c5 df ff ff       	call   8048498 <__assert_fail@plt>
 804a4d3:	c7 44 24 0c 20 48 05 	movl   $0x8054820,0xc(%esp)
 804a4da:	08 
 804a4db:	c7 44 24 08 48 00 00 	movl   $0x48,0x8(%esp)
 804a4e2:	00 
 804a4e3:	c7 44 24 04 ac 3b 05 	movl   $0x8053bac,0x4(%esp)
 804a4ea:	08 
 804a4eb:	c7 04 24 b4 3e 05 08 	movl   $0x8053eb4,(%esp)
 804a4f2:	e8 a1 df ff ff       	call   8048498 <__assert_fail@plt>
 804a4f7:	89 f6                	mov    %esi,%esi
 804a4f9:	8d bc 27 00 00 00 00 	lea    0x0(%edi),%edi

0804a500 <sglib___Tree_fix_left_deletion_discrepancy>:
 804a500:	55                   	push   %ebp
 804a501:	89 c1                	mov    %eax,%ecx
 804a503:	89 e5                	mov    %esp,%ebp
 804a505:	83 ec 38             	sub    $0x38,%esp
 804a508:	89 5d f4             	mov    %ebx,0xfffffff4(%ebp)
 804a50b:	89 75 f8             	mov    %esi,0xfffffff8(%ebp)
 804a50e:	89 7d fc             	mov    %edi,0xfffffffc(%ebp)
 804a511:	8b 38                	mov    (%eax),%edi
 804a513:	85 ff                	test   %edi,%edi
 804a515:	0f 84 70 02 00 00    	je     804a78b <sglib___Tree_fix_left_deletion_discrepancy+0x28b>
 804a51b:	8b 5f 14             	mov    0x14(%edi),%ebx
 804a51e:	85 db                	test   %ebx,%ebx
 804a520:	0f 84 62 01 00 00    	je     804a688 <sglib___Tree_fix_left_deletion_discrepancy+0x188>
 804a526:	80 7b 0c 01          	cmpb   $0x1,0xc(%ebx)
 804a52a:	8b 53 14             	mov    0x14(%ebx),%edx
 804a52d:	8b 73 10             	mov    0x10(%ebx),%esi
 804a530:	74 7e                	je     804a5b0 <sglib___Tree_fix_left_deletion_discrepancy+0xb0>
 804a532:	85 d2                	test   %edx,%edx
 804a534:	74 06                	je     804a53c <sglib___Tree_fix_left_deletion_discrepancy+0x3c>
 804a536:	80 7a 0c 00          	cmpb   $0x0,0xc(%edx)
 804a53a:	75 38                	jne    804a574 <sglib___Tree_fix_left_deletion_discrepancy+0x74>
 804a53c:	85 f6                	test   %esi,%esi
 804a53e:	66 90                	xchg   %ax,%ax
 804a540:	74 06                	je     804a548 <sglib___Tree_fix_left_deletion_discrepancy+0x48>
 804a542:	80 7e 0c 00          	cmpb   $0x0,0xc(%esi)
 804a546:	75 28                	jne    804a570 <sglib___Tree_fix_left_deletion_discrepancy+0x70>
 804a548:	31 c0                	xor    %eax,%eax
 804a54a:	80 7f 0c 00          	cmpb   $0x0,0xc(%edi)
 804a54e:	c6 47 0c 00          	movb   $0x0,0xc(%edi)
 804a552:	c6 43 0c 01          	movb   $0x1,0xc(%ebx)
 804a556:	0f 94 c0             	sete   %al
 804a559:	8d b4 26 00 00 00 00 	lea    0x0(%esi),%esi
 804a560:	8b 5d f4             	mov    0xfffffff4(%ebp),%ebx
 804a563:	8b 75 f8             	mov    0xfffffff8(%ebp),%esi
 804a566:	8b 7d fc             	mov    0xfffffffc(%ebp),%edi
 804a569:	89 ec                	mov    %ebp,%esp
 804a56b:	5d                   	pop    %ebp
 804a56c:	c3                   	ret    
 804a56d:	8d 76 00             	lea    0x0(%esi),%esi
 804a570:	85 d2                	test   %edx,%edx
 804a572:	74 0e                	je     804a582 <sglib___Tree_fix_left_deletion_discrepancy+0x82>
 804a574:	80 7a 0c 01          	cmpb   $0x1,0xc(%edx)
 804a578:	0f 84 1f 01 00 00    	je     804a69d <sglib___Tree_fix_left_deletion_discrepancy+0x19d>
 804a57e:	85 f6                	test   %esi,%esi
 804a580:	74 0a                	je     804a58c <sglib___Tree_fix_left_deletion_discrepancy+0x8c>
 804a582:	80 7e 0c 01          	cmpb   $0x1,0xc(%esi)
 804a586:	0f 84 b9 00 00 00    	je     804a645 <sglib___Tree_fix_left_deletion_discrepancy+0x145>
 804a58c:	c7 44 24 0c a0 48 05 	movl   $0x80548a0,0xc(%esp)
 804a593:	08 
 804a594:	c7 44 24 08 48 00 00 	movl   $0x48,0x8(%esp)
 804a59b:	00 
 804a59c:	c7 44 24 04 ac 3b 05 	movl   $0x8053bac,0x4(%esp)
 804a5a3:	08 
 804a5a4:	c7 04 24 d8 3e 05 08 	movl   $0x8053ed8,(%esp)
 804a5ab:	e8 e8 de ff ff       	call   8048498 <__assert_fail@plt>
 804a5b0:	85 f6                	test   %esi,%esi
 804a5b2:	0f 84 44 01 00 00    	je     804a6fc <sglib___Tree_fix_left_deletion_discrepancy+0x1fc>
 804a5b8:	80 7e 0c 00          	cmpb   $0x0,0xc(%esi)
 804a5bc:	0f 85 f5 01 00 00    	jne    804a7b7 <sglib___Tree_fix_left_deletion_discrepancy+0x2b7>
 804a5c2:	8b 46 14             	mov    0x14(%esi),%eax
 804a5c5:	89 45 e4             	mov    %eax,0xffffffe4(%ebp)
 804a5c8:	8b 46 10             	mov    0x10(%esi),%eax
 804a5cb:	89 45 f0             	mov    %eax,0xfffffff0(%ebp)
 804a5ce:	8b 45 e4             	mov    0xffffffe4(%ebp),%eax
 804a5d1:	85 c0                	test   %eax,%eax
 804a5d3:	74 09                	je     804a5de <sglib___Tree_fix_left_deletion_discrepancy+0xde>
 804a5d5:	8b 45 e4             	mov    0xffffffe4(%ebp),%eax
 804a5d8:	80 78 0c 00          	cmpb   $0x0,0xc(%eax)
 804a5dc:	75 22                	jne    804a600 <sglib___Tree_fix_left_deletion_discrepancy+0x100>
 804a5de:	8b 45 f0             	mov    0xfffffff0(%ebp),%eax
 804a5e1:	85 c0                	test   %eax,%eax
 804a5e3:	0f 84 88 00 00 00    	je     804a671 <sglib___Tree_fix_left_deletion_discrepancy+0x171>
 804a5e9:	8b 45 f0             	mov    0xfffffff0(%ebp),%eax
 804a5ec:	80 78 0c 00          	cmpb   $0x0,0xc(%eax)
 804a5f0:	74 7f                	je     804a671 <sglib___Tree_fix_left_deletion_discrepancy+0x171>
 804a5f2:	8b 45 e4             	mov    0xffffffe4(%ebp),%eax
 804a5f5:	85 c0                	test   %eax,%eax
 804a5f7:	74 1b                	je     804a614 <sglib___Tree_fix_left_deletion_discrepancy+0x114>
 804a5f9:	8d b4 26 00 00 00 00 	lea    0x0(%esi),%esi
 804a600:	8b 45 e4             	mov    0xffffffe4(%ebp),%eax
 804a603:	80 78 0c 01          	cmpb   $0x1,0xc(%eax)
 804a607:	0f 84 06 01 00 00    	je     804a713 <sglib___Tree_fix_left_deletion_discrepancy+0x213>
 804a60d:	8b 45 f0             	mov    0xfffffff0(%ebp),%eax
 804a610:	85 c0                	test   %eax,%eax
 804a612:	74 0d                	je     804a621 <sglib___Tree_fix_left_deletion_discrepancy+0x121>
 804a614:	8b 55 f0             	mov    0xfffffff0(%ebp),%edx
 804a617:	80 7a 0c 01          	cmpb   $0x1,0xc(%edx)
 804a61b:	0f 84 28 01 00 00    	je     804a749 <sglib___Tree_fix_left_deletion_discrepancy+0x249>
 804a621:	c7 44 24 0c a0 48 05 	movl   $0x80548a0,0xc(%esp)
 804a628:	08 
 804a629:	c7 44 24 08 48 00 00 	movl   $0x48,0x8(%esp)
 804a630:	00 
 804a631:	c7 44 24 04 ac 3b 05 	movl   $0x8053bac,0x4(%esp)
 804a638:	08 
 804a639:	c7 04 24 08 3c 05 08 	movl   $0x8053c08,(%esp)
 804a640:	e8 53 de ff ff       	call   8048498 <__assert_fail@plt>
 804a645:	8b 56 10             	mov    0x10(%esi),%edx
 804a648:	8b 46 14             	mov    0x14(%esi),%eax
 804a64b:	89 31                	mov    %esi,(%ecx)
 804a64d:	89 7e 10             	mov    %edi,0x10(%esi)
 804a650:	89 55 e8             	mov    %edx,0xffffffe8(%ebp)
 804a653:	0f b6 57 0c          	movzbl 0xc(%edi),%edx
 804a657:	89 43 10             	mov    %eax,0x10(%ebx)
 804a65a:	89 5e 14             	mov    %ebx,0x14(%esi)
 804a65d:	88 56 0c             	mov    %dl,0xc(%esi)
 804a660:	c6 47 0c 00          	movb   $0x0,0xc(%edi)
 804a664:	8b 45 e8             	mov    0xffffffe8(%ebp),%eax
 804a667:	89 47 14             	mov    %eax,0x14(%edi)
 804a66a:	31 c0                	xor    %eax,%eax
 804a66c:	e9 ef fe ff ff       	jmp    804a560 <sglib___Tree_fix_left_deletion_discrepancy+0x60>
 804a671:	31 c0                	xor    %eax,%eax
 804a673:	89 19                	mov    %ebx,(%ecx)
 804a675:	c6 43 0c 00          	movb   $0x0,0xc(%ebx)
 804a679:	89 7b 10             	mov    %edi,0x10(%ebx)
 804a67c:	89 77 14             	mov    %esi,0x14(%edi)
 804a67f:	c6 46 0c 01          	movb   $0x1,0xc(%esi)
 804a683:	e9 d8 fe ff ff       	jmp    804a560 <sglib___Tree_fix_left_deletion_discrepancy+0x60>
 804a688:	80 7f 0c 01          	cmpb   $0x1,0xc(%edi)
 804a68c:	0f 85 49 01 00 00    	jne    804a7db <sglib___Tree_fix_left_deletion_discrepancy+0x2db>
 804a692:	31 c0                	xor    %eax,%eax
 804a694:	c6 47 0c 00          	movb   $0x0,0xc(%edi)
 804a698:	e9 c3 fe ff ff       	jmp    804a560 <sglib___Tree_fix_left_deletion_discrepancy+0x60>
 804a69d:	85 f6                	test   %esi,%esi
 804a69f:	90                   	nop    
 804a6a0:	74 3c                	je     804a6de <sglib___Tree_fix_left_deletion_discrepancy+0x1de>
 804a6a2:	0f b6 46 0c          	movzbl 0xc(%esi),%eax
 804a6a6:	84 c0                	test   %al,%al
 804a6a8:	74 34                	je     804a6de <sglib___Tree_fix_left_deletion_discrepancy+0x1de>
 804a6aa:	2c 01                	sub    $0x1,%al
 804a6ac:	0f 85 4d 01 00 00    	jne    804a7ff <sglib___Tree_fix_left_deletion_discrepancy+0x2ff>
 804a6b2:	8b 56 10             	mov    0x10(%esi),%edx
 804a6b5:	8b 46 14             	mov    0x14(%esi),%eax
 804a6b8:	89 31                	mov    %esi,(%ecx)
 804a6ba:	89 7e 10             	mov    %edi,0x10(%esi)
 804a6bd:	89 55 ec             	mov    %edx,0xffffffec(%ebp)
 804a6c0:	0f b6 57 0c          	movzbl 0xc(%edi),%edx
 804a6c4:	89 43 10             	mov    %eax,0x10(%ebx)
 804a6c7:	89 5e 14             	mov    %ebx,0x14(%esi)
 804a6ca:	88 56 0c             	mov    %dl,0xc(%esi)
 804a6cd:	c6 47 0c 00          	movb   $0x0,0xc(%edi)
 804a6d1:	8b 45 ec             	mov    0xffffffec(%ebp),%eax
 804a6d4:	89 47 14             	mov    %eax,0x14(%edi)
 804a6d7:	31 c0                	xor    %eax,%eax
 804a6d9:	e9 82 fe ff ff       	jmp    804a560 <sglib___Tree_fix_left_deletion_discrepancy+0x60>
 804a6de:	89 19                	mov    %ebx,(%ecx)
 804a6e0:	0f b6 47 0c          	movzbl 0xc(%edi),%eax
 804a6e4:	89 7b 10             	mov    %edi,0x10(%ebx)
 804a6e7:	89 77 14             	mov    %esi,0x14(%edi)
 804a6ea:	88 43 0c             	mov    %al,0xc(%ebx)
 804a6ed:	31 c0                	xor    %eax,%eax
 804a6ef:	c6 47 0c 00          	movb   $0x0,0xc(%edi)
 804a6f3:	c6 42 0c 00          	movb   $0x0,0xc(%edx)
 804a6f7:	e9 64 fe ff ff       	jmp    804a560 <sglib___Tree_fix_left_deletion_discrepancy+0x60>
 804a6fc:	89 18                	mov    %ebx,(%eax)
 804a6fe:	31 c0                	xor    %eax,%eax
 804a700:	c6 43 0c 00          	movb   $0x0,0xc(%ebx)
 804a704:	89 7b 10             	mov    %edi,0x10(%ebx)
 804a707:	c7 47 14 00 00 00 00 	movl   $0x0,0x14(%edi)
 804a70e:	e9 4d fe ff ff       	jmp    804a560 <sglib___Tree_fix_left_deletion_discrepancy+0x60>
 804a713:	8b 45 f0             	mov    0xfffffff0(%ebp),%eax
 804a716:	85 c0                	test   %eax,%eax
 804a718:	74 0d                	je     804a727 <sglib___Tree_fix_left_deletion_discrepancy+0x227>
 804a71a:	8b 45 f0             	mov    0xfffffff0(%ebp),%eax
 804a71d:	80 78 0c 01          	cmpb   $0x1,0xc(%eax)
 804a721:	0f 84 88 00 00 00    	je     804a7af <sglib___Tree_fix_left_deletion_discrepancy+0x2af>
 804a727:	8b 45 f0             	mov    0xfffffff0(%ebp),%eax
 804a72a:	89 31                	mov    %esi,(%ecx)
 804a72c:	89 5e 14             	mov    %ebx,0x14(%esi)
 804a72f:	89 53 14             	mov    %edx,0x14(%ebx)
 804a732:	8b 55 e4             	mov    0xffffffe4(%ebp),%edx
 804a735:	89 47 14             	mov    %eax,0x14(%edi)
 804a738:	31 c0                	xor    %eax,%eax
 804a73a:	89 7e 10             	mov    %edi,0x10(%esi)
 804a73d:	c6 42 0c 00          	movb   $0x0,0xc(%edx)
 804a741:	89 53 10             	mov    %edx,0x10(%ebx)
 804a744:	e9 17 fe ff ff       	jmp    804a560 <sglib___Tree_fix_left_deletion_discrepancy+0x60>
 804a749:	8b 45 e4             	mov    0xffffffe4(%ebp),%eax
 804a74c:	85 c0                	test   %eax,%eax
 804a74e:	74 0d                	je     804a75d <sglib___Tree_fix_left_deletion_discrepancy+0x25d>
 804a750:	8b 45 e4             	mov    0xffffffe4(%ebp),%eax
 804a753:	80 78 0c 00          	cmpb   $0x0,0xc(%eax)
 804a757:	0f 85 c6 00 00 00    	jne    804a823 <sglib___Tree_fix_left_deletion_discrepancy+0x323>
 804a75d:	8b 55 f0             	mov    0xfffffff0(%ebp),%edx
 804a760:	8b 45 f0             	mov    0xfffffff0(%ebp),%eax
 804a763:	8b 52 14             	mov    0x14(%edx),%edx
 804a766:	89 55 e4             	mov    %edx,0xffffffe4(%ebp)
 804a769:	8b 50 10             	mov    0x10(%eax),%edx
 804a76c:	89 01                	mov    %eax,(%ecx)
 804a76e:	c6 40 0c 00          	movb   $0x0,0xc(%eax)
 804a772:	89 58 14             	mov    %ebx,0x14(%eax)
 804a775:	8b 45 e4             	mov    0xffffffe4(%ebp),%eax
 804a778:	89 57 14             	mov    %edx,0x14(%edi)
 804a77b:	89 46 10             	mov    %eax,0x10(%esi)
 804a77e:	8b 45 f0             	mov    0xfffffff0(%ebp),%eax
 804a781:	89 78 10             	mov    %edi,0x10(%eax)
 804a784:	31 c0                	xor    %eax,%eax
 804a786:	e9 d5 fd ff ff       	jmp    804a560 <sglib___Tree_fix_left_deletion_discrepancy+0x60>
 804a78b:	c7 44 24 0c a0 48 05 	movl   $0x80548a0,0xc(%esp)
 804a792:	08 
 804a793:	c7 44 24 08 48 00 00 	movl   $0x48,0x8(%esp)
 804a79a:	00 
 804a79b:	c7 44 24 04 ac 3b 05 	movl   $0x8053bac,0x4(%esp)
 804a7a2:	08 
 804a7a3:	c7 04 24 f3 3c 05 08 	movl   $0x8053cf3,(%esp)
 804a7aa:	e8 e9 dc ff ff       	call   8048498 <__assert_fail@plt>
 804a7af:	8b 50 14             	mov    0x14(%eax),%edx
 804a7b2:	89 55 e4             	mov    %edx,0xffffffe4(%ebp)
 804a7b5:	eb b2                	jmp    804a769 <sglib___Tree_fix_left_deletion_discrepancy+0x269>
 804a7b7:	c7 44 24 0c a0 48 05 	movl   $0x80548a0,0xc(%esp)
 804a7be:	08 
 804a7bf:	c7 44 24 08 48 00 00 	movl   $0x48,0x8(%esp)
 804a7c6:	00 
 804a7c7:	c7 44 24 04 ac 3b 05 	movl   $0x8053bac,0x4(%esp)
 804a7ce:	08 
 804a7cf:	c7 04 24 94 3e 05 08 	movl   $0x8053e94,(%esp)
 804a7d6:	e8 bd dc ff ff       	call   8048498 <__assert_fail@plt>
 804a7db:	c7 44 24 0c a0 48 05 	movl   $0x80548a0,0xc(%esp)
 804a7e2:	08 
 804a7e3:	c7 44 24 08 48 00 00 	movl   $0x48,0x8(%esp)
 804a7ea:	00 
 804a7eb:	c7 44 24 04 ac 3b 05 	movl   $0x8053bac,0x4(%esp)
 804a7f2:	08 
 804a7f3:	c7 04 24 3a 3c 05 08 	movl   $0x8053c3a,(%esp)
 804a7fa:	e8 99 dc ff ff       	call   8048498 <__assert_fail@plt>
 804a7ff:	c7 44 24 0c a0 48 05 	movl   $0x80548a0,0xc(%esp)
 804a806:	08 
 804a807:	c7 44 24 08 48 00 00 	movl   $0x48,0x8(%esp)
 804a80e:	00 
 804a80f:	c7 44 24 04 ac 3b 05 	movl   $0x8053bac,0x4(%esp)
 804a816:	08 
 804a817:	c7 04 24 48 3c 05 08 	movl   $0x8053c48,(%esp)
 804a81e:	e8 75 dc ff ff       	call   8048498 <__assert_fail@plt>
 804a823:	c7 44 24 0c a0 48 05 	movl   $0x80548a0,0xc(%esp)
 804a82a:	08 
 804a82b:	c7 44 24 08 48 00 00 	movl   $0x48,0x8(%esp)
 804a832:	00 
 804a833:	c7 44 24 04 ac 3b 05 	movl   $0x8053bac,0x4(%esp)
 804a83a:	08 
 804a83b:	c7 04 24 b4 3e 05 08 	movl   $0x8053eb4,(%esp)
 804a842:	e8 51 dc ff ff       	call   8048498 <__assert_fail@plt>
 804a847:	89 f6                	mov    %esi,%esi
 804a849:	8d bc 27 00 00 00 00 	lea    0x0(%edi),%edi

0804a850 <sglib_ReverseSortedList_delete>:
 804a850:	55                   	push   %ebp
 804a851:	89 e5                	mov    %esp,%ebp
 804a853:	83 ec 18             	sub    $0x18,%esp
 804a856:	8b 55 08             	mov    0x8(%ebp),%edx
 804a859:	8b 4d 0c             	mov    0xc(%ebp),%ecx
 804a85c:	8b 02                	mov    (%edx),%eax
 804a85e:	85 c0                	test   %eax,%eax
 804a860:	75 0c                	jne    804a86e <sglib_ReverseSortedList_delete+0x1e>
 804a862:	eb 19                	jmp    804a87d <sglib_ReverseSortedList_delete+0x2d>
 804a864:	8d 50 04             	lea    0x4(%eax),%edx
 804a867:	8b 40 04             	mov    0x4(%eax),%eax
 804a86a:	85 c0                	test   %eax,%eax
 804a86c:	74 0f                	je     804a87d <sglib_ReverseSortedList_delete+0x2d>
 804a86e:	39 c8                	cmp    %ecx,%eax
 804a870:	75 f2                	jne    804a864 <sglib_ReverseSortedList_delete+0x14>
 804a872:	85 c9                	test   %ecx,%ecx
 804a874:	74 07                	je     804a87d <sglib_ReverseSortedList_delete+0x2d>
 804a876:	8b 41 04             	mov    0x4(%ecx),%eax
 804a879:	89 02                	mov    %eax,(%edx)
 804a87b:	c9                   	leave  
 804a87c:	c3                   	ret    
 804a87d:	c7 44 24 0c cc 48 05 	movl   $0x80548cc,0xc(%esp)
 804a884:	08 
 804a885:	c7 44 24 08 46 00 00 	movl   $0x46,0x8(%esp)
 804a88c:	00 
 804a88d:	c7 44 24 04 ac 3b 05 	movl   $0x8053bac,0x4(%esp)
 804a894:	08 
 804a895:	c7 04 24 fc 3e 05 08 	movl   $0x8053efc,(%esp)
 804a89c:	e8 f7 db ff ff       	call   8048498 <__assert_fail@plt>
 804a8a1:	eb 0d                	jmp    804a8b0 <sglib_SortedList_delete>
 804a8a3:	90                   	nop    
 804a8a4:	90                   	nop    
 804a8a5:	90                   	nop    
 804a8a6:	90                   	nop    
 804a8a7:	90                   	nop    
 804a8a8:	90                   	nop    
 804a8a9:	90                   	nop    
 804a8aa:	90                   	nop    
 804a8ab:	90                   	nop    
 804a8ac:	90                   	nop    
 804a8ad:	90                   	nop    
 804a8ae:	90                   	nop    
 804a8af:	90                   	nop    

0804a8b0 <sglib_SortedList_delete>:
 804a8b0:	55                   	push   %ebp
 804a8b1:	89 e5                	mov    %esp,%ebp
 804a8b3:	83 ec 18             	sub    $0x18,%esp
 804a8b6:	8b 55 08             	mov    0x8(%ebp),%edx
 804a8b9:	8b 4d 0c             	mov    0xc(%ebp),%ecx
 804a8bc:	8b 02                	mov    (%edx),%eax
 804a8be:	85 c0                	test   %eax,%eax
 804a8c0:	75 0c                	jne    804a8ce <sglib_SortedList_delete+0x1e>
 804a8c2:	eb 19                	jmp    804a8dd <sglib_SortedList_delete+0x2d>
 804a8c4:	8d 50 04             	lea    0x4(%eax),%edx
 804a8c7:	8b 40 04             	mov    0x4(%eax),%eax
 804a8ca:	85 c0                	test   %eax,%eax
 804a8cc:	74 0f                	je     804a8dd <sglib_SortedList_delete+0x2d>
 804a8ce:	39 c8                	cmp    %ecx,%eax
 804a8d0:	75 f2                	jne    804a8c4 <sglib_SortedList_delete+0x14>
 804a8d2:	85 c9                	test   %ecx,%ecx
 804a8d4:	74 07                	je     804a8dd <sglib_SortedList_delete+0x2d>
 804a8d6:	8b 41 04             	mov    0x4(%ecx),%eax
 804a8d9:	89 02                	mov    %eax,(%edx)
 804a8db:	c9                   	leave  
 804a8dc:	c3                   	ret    
 804a8dd:	c7 44 24 0c eb 48 05 	movl   $0x80548eb,0xc(%esp)
 804a8e4:	08 
 804a8e5:	c7 44 24 08 44 00 00 	movl   $0x44,0x8(%esp)
 804a8ec:	00 
 804a8ed:	c7 44 24 04 ac 3b 05 	movl   $0x8053bac,0x4(%esp)
 804a8f4:	08 
 804a8f5:	c7 04 24 fc 3e 05 08 	movl   $0x8053efc,(%esp)
 804a8fc:	e8 97 db ff ff       	call   8048498 <__assert_fail@plt>
 804a901:	eb 0d                	jmp    804a910 <sglib_SimpleList_delete>
 804a903:	90                   	nop    
 804a904:	90                   	nop    
 804a905:	90                   	nop    
 804a906:	90                   	nop    
 804a907:	90                   	nop    
 804a908:	90                   	nop    
 804a909:	90                   	nop    
 804a90a:	90                   	nop    
 804a90b:	90                   	nop    
 804a90c:	90                   	nop    
 804a90d:	90                   	nop    
 804a90e:	90                   	nop    
 804a90f:	90                   	nop    

0804a910 <sglib_SimpleList_delete>:
 804a910:	55                   	push   %ebp
 804a911:	89 e5                	mov    %esp,%ebp
 804a913:	83 ec 18             	sub    $0x18,%esp
 804a916:	8b 55 08             	mov    0x8(%ebp),%edx
 804a919:	8b 4d 0c             	mov    0xc(%ebp),%ecx
 804a91c:	8b 02                	mov    (%edx),%eax
 804a91e:	85 c0                	test   %eax,%eax
 804a920:	75 0c                	jne    804a92e <sglib_SimpleList_delete+0x1e>
 804a922:	eb 19                	jmp    804a93d <sglib_SimpleList_delete+0x2d>
 804a924:	8d 50 04             	lea    0x4(%eax),%edx
 804a927:	8b 40 04             	mov    0x4(%eax),%eax
 804a92a:	85 c0                	test   %eax,%eax
 804a92c:	74 0f                	je     804a93d <sglib_SimpleList_delete+0x2d>
 804a92e:	39 c8                	cmp    %ecx,%eax
 804a930:	75 f2                	jne    804a924 <sglib_SimpleList_delete+0x14>
 804a932:	85 c9                	test   %ecx,%ecx
 804a934:	74 07                	je     804a93d <sglib_SimpleList_delete+0x2d>
 804a936:	8b 41 04             	mov    0x4(%ecx),%eax
 804a939:	89 02                	mov    %eax,(%edx)
 804a93b:	c9                   	leave  
 804a93c:	c3                   	ret    
 804a93d:	c7 44 24 0c 03 49 05 	movl   $0x8054903,0xc(%esp)
 804a944:	08 
 804a945:	c7 44 24 08 40 00 00 	movl   $0x40,0x8(%esp)
 804a94c:	00 
 804a94d:	c7 44 24 04 ac 3b 05 	movl   $0x8053bac,0x4(%esp)
 804a954:	08 
 804a955:	c7 04 24 fc 3e 05 08 	movl   $0x8053efc,(%esp)
 804a95c:	e8 37 db ff ff       	call   8048498 <__assert_fail@plt>
 804a961:	eb 0d                	jmp    804a970 <sglib_Tree_dump_rec>
 804a963:	90                   	nop    
 804a964:	90                   	nop    
 804a965:	90                   	nop    
 804a966:	90                   	nop    
 804a967:	90                   	nop    
 804a968:	90                   	nop    
 804a969:	90                   	nop    
 804a96a:	90                   	nop    
 804a96b:	90                   	nop    
 804a96c:	90                   	nop    
 804a96d:	90                   	nop    
 804a96e:	90                   	nop    
 804a96f:	90                   	nop    

0804a970 <sglib_Tree_dump_rec>:
 804a970:	55                   	push   %ebp
 804a971:	89 e5                	mov    %esp,%ebp
 804a973:	53                   	push   %ebx
 804a974:	83 ec 14             	sub    $0x14,%esp
 804a977:	8b 5d 08             	mov    0x8(%ebp),%ebx
 804a97a:	85 db                	test   %ebx,%ebx
 804a97c:	0f 84 85 00 00 00    	je     804aa07 <sglib_Tree_dump_rec+0x97>
 804a982:	c7 04 24 28 00 00 00 	movl   $0x28,(%esp)
 804a989:	e8 da da ff ff       	call   8048468 <putchar@plt>
 804a98e:	a1 c4 5a 05 08       	mov    0x8055ac4,%eax
 804a993:	89 04 24             	mov    %eax,(%esp)
 804a996:	e8 1d db ff ff       	call   80484b8 <fflush@plt>
 804a99b:	8b 43 10             	mov    0x10(%ebx),%eax
 804a99e:	89 04 24             	mov    %eax,(%esp)
 804a9a1:	e8 ca ff ff ff       	call   804a970 <sglib_Tree_dump_rec>
 804a9a6:	8b 03                	mov    (%ebx),%eax
 804a9a8:	ba 57 3c 05 08       	mov    $0x8053c57,%edx
 804a9ad:	80 7b 0c 00          	cmpb   $0x0,0xc(%ebx)
 804a9b1:	75 4d                	jne    804aa00 <sglib_Tree_dump_rec+0x90>
 804a9b3:	89 54 24 04          	mov    %edx,0x4(%esp)
 804a9b7:	89 44 24 08          	mov    %eax,0x8(%esp)
 804a9bb:	c7 04 24 5b 3c 05 08 	movl   $0x8053c5b,(%esp)
 804a9c2:	e8 01 db ff ff       	call   80484c8 <printf@plt>
 804a9c7:	a1 c4 5a 05 08       	mov    0x8055ac4,%eax
 804a9cc:	89 04 24             	mov    %eax,(%esp)
 804a9cf:	e8 e4 da ff ff       	call   80484b8 <fflush@plt>
 804a9d4:	8b 43 14             	mov    0x14(%ebx),%eax
 804a9d7:	89 04 24             	mov    %eax,(%esp)
 804a9da:	e8 91 ff ff ff       	call   804a970 <sglib_Tree_dump_rec>
 804a9df:	c7 04 24 29 00 00 00 	movl   $0x29,(%esp)
 804a9e6:	e8 7d da ff ff       	call   8048468 <putchar@plt>
 804a9eb:	a1 c4 5a 05 08       	mov    0x8055ac4,%eax
 804a9f0:	89 45 08             	mov    %eax,0x8(%ebp)
 804a9f3:	83 c4 14             	add    $0x14,%esp
 804a9f6:	5b                   	pop    %ebx
 804a9f7:	5d                   	pop    %ebp
 804a9f8:	e9 bb da ff ff       	jmp    80484b8 <fflush@plt>
 804a9fd:	8d 76 00             	lea    0x0(%esi),%esi
 804aa00:	ba 59 3c 05 08       	mov    $0x8053c59,%edx
 804aa05:	eb ac                	jmp    804a9b3 <sglib_Tree_dump_rec+0x43>
 804aa07:	83 c4 14             	add    $0x14,%esp
 804aa0a:	5b                   	pop    %ebx
 804aa0b:	5d                   	pop    %ebp
 804aa0c:	c3                   	ret    
 804aa0d:	8d 76 00             	lea    0x0(%esi),%esi

0804aa10 <sglib_Tree_dump>:
 804aa10:	55                   	push   %ebp
 804aa11:	89 e5                	mov    %esp,%ebp
 804aa13:	53                   	push   %ebx
 804aa14:	83 ec 04             	sub    $0x4,%esp
 804aa17:	8b 5d 08             	mov    0x8(%ebp),%ebx
 804aa1a:	c7 04 24 0a 00 00 00 	movl   $0xa,(%esp)
 804aa21:	e8 42 da ff ff       	call   8048468 <putchar@plt>
 804aa26:	a1 c4 5a 05 08       	mov    0x8055ac4,%eax
 804aa2b:	89 04 24             	mov    %eax,(%esp)
 804aa2e:	e8 85 da ff ff       	call   80484b8 <fflush@plt>
 804aa33:	89 1c 24             	mov    %ebx,(%esp)
 804aa36:	e8 35 ff ff ff       	call   804a970 <sglib_Tree_dump_rec>
 804aa3b:	c7 04 24 0a 00 00 00 	movl   $0xa,(%esp)
 804aa42:	e8 21 da ff ff       	call   8048468 <putchar@plt>
 804aa47:	a1 c4 5a 05 08       	mov    0x8055ac4,%eax
 804aa4c:	89 45 08             	mov    %eax,0x8(%ebp)
 804aa4f:	83 c4 04             	add    $0x4,%esp
 804aa52:	5b                   	pop    %ebx
 804aa53:	5d                   	pop    %ebp
 804aa54:	e9 5f da ff ff       	jmp    80484b8 <fflush@plt>
 804aa59:	8d b4 26 00 00 00 00 	lea    0x0(%esi),%esi

0804aa60 <check_that_int_list_is_reverse_sorted>:
 804aa60:	55                   	push   %ebp
 804aa61:	89 e5                	mov    %esp,%ebp
 804aa63:	83 ec 18             	sub    $0x18,%esp
 804aa66:	8b 45 08             	mov    0x8(%ebp),%eax
 804aa69:	85 c0                	test   %eax,%eax
 804aa6b:	75 0b                	jne    804aa78 <check_that_int_list_is_reverse_sorted+0x18>
 804aa6d:	eb 10                	jmp    804aa7f <check_that_int_list_is_reverse_sorted+0x1f>
 804aa6f:	90                   	nop    
 804aa70:	8b 00                	mov    (%eax),%eax
 804aa72:	3b 02                	cmp    (%edx),%eax
 804aa74:	72 0b                	jb     804aa81 <check_that_int_list_is_reverse_sorted+0x21>
 804aa76:	89 d0                	mov    %edx,%eax
 804aa78:	8b 50 04             	mov    0x4(%eax),%edx
 804aa7b:	85 d2                	test   %edx,%edx
 804aa7d:	75 f1                	jne    804aa70 <check_that_int_list_is_reverse_sorted+0x10>
 804aa7f:	c9                   	leave  
 804aa80:	c3                   	ret    
 804aa81:	a1 c0 5a 05 08       	mov    0x8055ac0,%eax
 804aa86:	c7 44 24 08 26 00 00 	movl   $0x26,0x8(%esp)
 804aa8d:	00 
 804aa8e:	c7 44 24 04 01 00 00 	movl   $0x1,0x4(%esp)
 804aa95:	00 
 804aa96:	c7 04 24 68 3f 05 08 	movl   $0x8053f68,(%esp)
 804aa9d:	89 44 24 0c          	mov    %eax,0xc(%esp)
 804aaa1:	e8 42 da ff ff       	call   80484e8 <fwrite@plt>
 804aaa6:	c7 44 24 0c a0 46 05 	movl   $0x80546a0,0xc(%esp)
 804aaad:	08 
 804aaae:	c7 44 24 08 d6 00 00 	movl   $0xd6,0x8(%esp)
 804aab5:	00 
 804aab6:	c7 44 24 04 ac 3b 05 	movl   $0x8053bac,0x4(%esp)
 804aabd:	08 
 804aabe:	c7 04 24 08 3c 05 08 	movl   $0x8053c08,(%esp)
 804aac5:	e8 ce d9 ff ff       	call   8048498 <__assert_fail@plt>
 804aaca:	8d b6 00 00 00 00    	lea    0x0(%esi),%esi

0804aad0 <check_that_int_list_is_sorted>:
 804aad0:	55                   	push   %ebp
 804aad1:	89 e5                	mov    %esp,%ebp
 804aad3:	83 ec 18             	sub    $0x18,%esp
 804aad6:	8b 45 08             	mov    0x8(%ebp),%eax
 804aad9:	85 c0                	test   %eax,%eax
 804aadb:	75 0b                	jne    804aae8 <check_that_int_list_is_sorted+0x18>
 804aadd:	eb 10                	jmp    804aaef <check_that_int_list_is_sorted+0x1f>
 804aadf:	90                   	nop    
 804aae0:	8b 00                	mov    (%eax),%eax
 804aae2:	3b 02                	cmp    (%edx),%eax
 804aae4:	77 0b                	ja     804aaf1 <check_that_int_list_is_sorted+0x21>
 804aae6:	89 d0                	mov    %edx,%eax
 804aae8:	8b 50 04             	mov    0x4(%eax),%edx
 804aaeb:	85 d2                	test   %edx,%edx
 804aaed:	75 f1                	jne    804aae0 <check_that_int_list_is_sorted+0x10>
 804aaef:	c9                   	leave  
 804aaf0:	c3                   	ret    
 804aaf1:	a1 c0 5a 05 08       	mov    0x8055ac0,%eax
 804aaf6:	c7 44 24 08 26 00 00 	movl   $0x26,0x8(%esp)
 804aafd:	00 
 804aafe:	c7 44 24 04 01 00 00 	movl   $0x1,0x4(%esp)
 804ab05:	00 
 804ab06:	c7 04 24 68 3f 05 08 	movl   $0x8053f68,(%esp)
 804ab0d:	89 44 24 0c          	mov    %eax,0xc(%esp)
 804ab11:	e8 d2 d9 ff ff       	call   80484e8 <fwrite@plt>
 804ab16:	c7 44 24 0c c6 46 05 	movl   $0x80546c6,0xc(%esp)
 804ab1d:	08 
 804ab1e:	c7 44 24 08 ca 00 00 	movl   $0xca,0x8(%esp)
 804ab25:	00 
 804ab26:	c7 44 24 04 ac 3b 05 	movl   $0x8053bac,0x4(%esp)
 804ab2d:	08 
 804ab2e:	c7 04 24 08 3c 05 08 	movl   $0x8053c08,(%esp)
 804ab35:	e8 5e d9 ff ff       	call   8048498 <__assert_fail@plt>
 804ab3a:	8d b6 00 00 00 00    	lea    0x0(%esi),%esi

0804ab40 <check_that_int_array_is_sorted>:
 804ab40:	55                   	push   %ebp
 804ab41:	89 e5                	mov    %esp,%ebp
 804ab43:	53                   	push   %ebx
 804ab44:	83 ec 14             	sub    $0x14,%esp
 804ab47:	8b 5d 0c             	mov    0xc(%ebp),%ebx
 804ab4a:	8b 4d 08             	mov    0x8(%ebp),%ecx
 804ab4d:	83 eb 01             	sub    $0x1,%ebx
 804ab50:	85 db                	test   %ebx,%ebx
 804ab52:	7e 1d                	jle    804ab71 <check_that_int_array_is_sorted+0x31>
 804ab54:	8b 01                	mov    (%ecx),%eax
 804ab56:	31 d2                	xor    %edx,%edx
 804ab58:	3b 41 04             	cmp    0x4(%ecx),%eax
 804ab5b:	7f 1a                	jg     804ab77 <check_that_int_array_is_sorted+0x37>
 804ab5d:	31 d2                	xor    %edx,%edx
 804ab5f:	eb 09                	jmp    804ab6a <check_that_int_array_is_sorted+0x2a>
 804ab61:	8b 04 91             	mov    (%ecx,%edx,4),%eax
 804ab64:	3b 44 91 04          	cmp    0x4(%ecx,%edx,4),%eax
 804ab68:	7f 0d                	jg     804ab77 <check_that_int_array_is_sorted+0x37>
 804ab6a:	83 c2 01             	add    $0x1,%edx
 804ab6d:	39 da                	cmp    %ebx,%edx
 804ab6f:	75 f0                	jne    804ab61 <check_that_int_array_is_sorted+0x21>
 804ab71:	83 c4 14             	add    $0x14,%esp
 804ab74:	5b                   	pop    %ebx
 804ab75:	5d                   	pop    %ebp
 804ab76:	c3                   	ret    
 804ab77:	a1 c0 5a 05 08       	mov    0x8055ac0,%eax
 804ab7c:	89 54 24 08          	mov    %edx,0x8(%esp)
 804ab80:	c7 44 24 04 90 3f 05 	movl   $0x8053f90,0x4(%esp)
 804ab87:	08 
 804ab88:	89 04 24             	mov    %eax,(%esp)
 804ab8b:	e8 68 d9 ff ff       	call   80484f8 <fprintf@plt>
 804ab90:	c7 44 24 0c e4 46 05 	movl   $0x80546e4,0xc(%esp)
 804ab97:	08 
 804ab98:	c7 44 24 08 bf 00 00 	movl   $0xbf,0x8(%esp)
 804ab9f:	00 
 804aba0:	c7 44 24 04 ac 3b 05 	movl   $0x8053bac,0x4(%esp)
 804aba7:	08 
 804aba8:	c7 04 24 08 3c 05 08 	movl   $0x8053c08,(%esp)
 804abaf:	e8 e4 d8 ff ff       	call   8048498 <__assert_fail@plt>
 804abb4:	8d b6 00 00 00 00    	lea    0x0(%esi),%esi
 804abba:	8d bf 00 00 00 00    	lea    0x0(%edi),%edi

0804abc0 <check_multiple_array_correspondence>:
 804abc0:	55                   	push   %ebp
 804abc1:	31 c9                	xor    %ecx,%ecx
 804abc3:	89 e5                	mov    %esp,%ebp
 804abc5:	56                   	push   %esi
 804abc6:	53                   	push   %ebx
 804abc7:	83 ec 10             	sub    $0x10,%esp
 804abca:	8b 75 08             	mov    0x8(%ebp),%esi
 804abcd:	8b 5d 0c             	mov    0xc(%ebp),%ebx
 804abd0:	eb 0b                	jmp    804abdd <check_multiple_array_correspondence+0x1d>
 804abd2:	83 c1 01             	add    $0x1,%ecx
 804abd5:	81 f9 e8 03 00 00    	cmp    $0x3e8,%ecx
 804abdb:	74 4e                	je     804ac2b <check_multiple_array_correspondence+0x6b>
 804abdd:	8b 04 8e             	mov    (%esi,%ecx,4),%eax
 804abe0:	89 c2                	mov    %eax,%edx
 804abe2:	d1 fa                	sar    %edx
 804abe4:	c1 e0 02             	shl    $0x2,%eax
 804abe7:	31 c2                	xor    %eax,%edx
 804abe9:	39 14 8b             	cmp    %edx,(%ebx,%ecx,4)
 804abec:	74 e4                	je     804abd2 <check_multiple_array_correspondence+0x12>
 804abee:	a1 c0 5a 05 08       	mov    0x8055ac0,%eax
 804abf3:	89 4c 24 08          	mov    %ecx,0x8(%esp)
 804abf7:	c7 44 24 04 c4 3f 05 	movl   $0x8053fc4,0x4(%esp)
 804abfe:	08 
 804abff:	89 04 24             	mov    %eax,(%esp)
 804ac02:	e8 f1 d8 ff ff       	call   80484f8 <fprintf@plt>
 804ac07:	c7 44 24 0c 20 47 05 	movl   $0x8054720,0xc(%esp)
 804ac0e:	08 
 804ac0f:	c7 44 24 08 b5 00 00 	movl   $0xb5,0x8(%esp)
 804ac16:	00 
 804ac17:	c7 44 24 04 ac 3b 05 	movl   $0x8053bac,0x4(%esp)
 804ac1e:	08 
 804ac1f:	c7 04 24 08 3c 05 08 	movl   $0x8053c08,(%esp)
 804ac26:	e8 6d d8 ff ff       	call   8048498 <__assert_fail@plt>
 804ac2b:	83 c4 10             	add    $0x10,%esp
 804ac2e:	5b                   	pop    %ebx
 804ac2f:	5e                   	pop    %esi
 804ac30:	5d                   	pop    %ebp
 804ac31:	c3                   	ret    
 804ac32:	8d b4 26 00 00 00 00 	lea    0x0(%esi),%esi
 804ac39:	8d bc 27 00 00 00 00 	lea    0x0(%edi),%edi

0804ac40 <compare_counts>:
 804ac40:	55                   	push   %ebp
 804ac41:	89 e5                	mov    %esp,%ebp
 804ac43:	57                   	push   %edi
 804ac44:	31 ff                	xor    %edi,%edi
 804ac46:	56                   	push   %esi
 804ac47:	53                   	push   %ebx
 804ac48:	83 ec 1c             	sub    $0x1c,%esp
 804ac4b:	8b 75 0c             	mov    0xc(%ebp),%esi
 804ac4e:	8b 5d 08             	mov    0x8(%ebp),%ebx
 804ac51:	eb 15                	jmp    804ac68 <compare_counts+0x28>
 804ac53:	83 c7 01             	add    $0x1,%edi
 804ac56:	83 c6 04             	add    $0x4,%esi
 804ac59:	83 c3 04             	add    $0x4,%ebx
 804ac5c:	81 ff e8 03 00 00    	cmp    $0x3e8,%edi
 804ac62:	0f 84 93 00 00 00    	je     804acfb <compare_counts+0xbb>
 804ac68:	8b 03                	mov    (%ebx),%eax
 804ac6a:	3b 06                	cmp    (%esi),%eax
 804ac6c:	74 e5                	je     804ac53 <compare_counts+0x13>
 804ac6e:	a1 c0 5a 05 08       	mov    0x8055ac0,%eax
 804ac73:	c7 44 24 08 3c 00 00 	movl   $0x3c,0x8(%esp)
 804ac7a:	00 
 804ac7b:	c7 44 24 04 01 00 00 	movl   $0x1,0x4(%esp)
 804ac82:	00 
 804ac83:	c7 04 24 08 40 05 08 	movl   $0x8054008,(%esp)
 804ac8a:	89 44 24 0c          	mov    %eax,0xc(%esp)
 804ac8e:	e8 55 d8 ff ff       	call   80484e8 <fwrite@plt>
 804ac93:	a1 c0 5a 05 08       	mov    0x8055ac0,%eax
 804ac98:	89 7c 24 08          	mov    %edi,0x8(%esp)
 804ac9c:	c7 44 24 04 61 3c 05 	movl   $0x8053c61,0x4(%esp)
 804aca3:	08 
 804aca4:	89 04 24             	mov    %eax,(%esp)
 804aca7:	e8 4c d8 ff ff       	call   80484f8 <fprintf@plt>
 804acac:	8b 03                	mov    (%ebx),%eax
 804acae:	3b 06                	cmp    (%esi),%eax
 804acb0:	7e 51                	jle    804ad03 <compare_counts+0xc3>
 804acb2:	a1 c0 5a 05 08       	mov    0x8055ac0,%eax
 804acb7:	c7 44 24 08 0b 00 00 	movl   $0xb,0x8(%esp)
 804acbe:	00 
 804acbf:	c7 44 24 04 01 00 00 	movl   $0x1,0x4(%esp)
 804acc6:	00 
 804acc7:	c7 04 24 6d 3c 05 08 	movl   $0x8053c6d,(%esp)
 804acce:	89 44 24 0c          	mov    %eax,0xc(%esp)
 804acd2:	e8 11 d8 ff ff       	call   80484e8 <fwrite@plt>
 804acd7:	c7 44 24 0c 6e 47 05 	movl   $0x805476e,0xc(%esp)
 804acde:	08 
 804acdf:	c7 44 24 08 7a 00 00 	movl   $0x7a,0x8(%esp)
 804ace6:	00 
 804ace7:	c7 44 24 04 ac 3b 05 	movl   $0x8053bac,0x4(%esp)
 804acee:	08 
 804acef:	c7 04 24 08 3c 05 08 	movl   $0x8053c08,(%esp)
 804acf6:	e8 9d d7 ff ff       	call   8048498 <__assert_fail@plt>
 804acfb:	83 c4 1c             	add    $0x1c,%esp
 804acfe:	5b                   	pop    %ebx
 804acff:	5e                   	pop    %esi
 804ad00:	5f                   	pop    %edi
 804ad01:	5d                   	pop    %ebp
 804ad02:	c3                   	ret    
 804ad03:	a1 c0 5a 05 08       	mov    0x8055ac0,%eax
 804ad08:	c7 44 24 08 09 00 00 	movl   $0x9,0x8(%esp)
 804ad0f:	00 
 804ad10:	c7 44 24 04 01 00 00 	movl   $0x1,0x4(%esp)
 804ad17:	00 
 804ad18:	c7 04 24 79 3c 05 08 	movl   $0x8053c79,(%esp)
 804ad1f:	89 44 24 0c          	mov    %eax,0xc(%esp)
 804ad23:	e8 c0 d7 ff ff       	call   80484e8 <fwrite@plt>
 804ad28:	eb ad                	jmp    804acd7 <compare_counts+0x97>
 804ad2a:	8d b6 00 00 00 00    	lea    0x0(%esi),%esi

0804ad30 <compute_orders_for_hashed_list>:
 804ad30:	55                   	push   %ebp
 804ad31:	89 e5                	mov    %esp,%ebp
 804ad33:	56                   	push   %esi
 804ad34:	53                   	push   %ebx
 804ad35:	83 ec 10             	sub    $0x10,%esp
 804ad38:	8b 5d 0c             	mov    0xc(%ebp),%ebx
 804ad3b:	8b 75 08             	mov    0x8(%ebp),%esi
 804ad3e:	c7 44 24 08 a0 0f 00 	movl   $0xfa0,0x8(%esp)
 804ad45:	00 
 804ad46:	c7 44 24 04 00 00 00 	movl   $0x0,0x4(%esp)
 804ad4d:	00 
 804ad4e:	89 1c 24             	mov    %ebx,(%esp)
 804ad51:	e8 22 d7 ff ff       	call   8048478 <memset@plt>
 804ad56:	b9 01 00 00 00       	mov    $0x1,%ecx
 804ad5b:	90                   	nop    
 804ad5c:	8d 74 26 00          	lea    0x0(%esi),%esi
 804ad60:	8b 54 8e fc          	mov    0xfffffffc(%esi,%ecx,4),%edx
 804ad64:	85 d2                	test   %edx,%edx
 804ad66:	74 0d                	je     804ad75 <compute_orders_for_hashed_list+0x45>
 804ad68:	8b 02                	mov    (%edx),%eax
 804ad6a:	8b 52 04             	mov    0x4(%edx),%edx
 804ad6d:	83 04 83 01          	addl   $0x1,(%ebx,%eax,4)
 804ad71:	85 d2                	test   %edx,%edx
 804ad73:	75 f3                	jne    804ad68 <compute_orders_for_hashed_list+0x38>
 804ad75:	83 c1 01             	add    $0x1,%ecx
 804ad78:	83 f9 65             	cmp    $0x65,%ecx
 804ad7b:	75 e3                	jne    804ad60 <compute_orders_for_hashed_list+0x30>
 804ad7d:	83 c4 10             	add    $0x10,%esp
 804ad80:	5b                   	pop    %ebx
 804ad81:	5e                   	pop    %esi
 804ad82:	5d                   	pop    %ebp
 804ad83:	c3                   	ret    
 804ad84:	8d b6 00 00 00 00    	lea    0x0(%esi),%esi
 804ad8a:	8d bf 00 00 00 00    	lea    0x0(%edi),%edi

0804ad90 <compute_orders_for_list>:
 804ad90:	55                   	push   %ebp
 804ad91:	89 e5                	mov    %esp,%ebp
 804ad93:	56                   	push   %esi
 804ad94:	53                   	push   %ebx
 804ad95:	83 ec 10             	sub    $0x10,%esp
 804ad98:	8b 75 08             	mov    0x8(%ebp),%esi
 804ad9b:	8b 5d 0c             	mov    0xc(%ebp),%ebx
 804ad9e:	c7 44 24 08 a0 0f 00 	movl   $0xfa0,0x8(%esp)
 804ada5:	00 
 804ada6:	c7 44 24 04 00 00 00 	movl   $0x0,0x4(%esp)
 804adad:	00 
 804adae:	89 1c 24             	mov    %ebx,(%esp)
 804adb1:	e8 c2 d6 ff ff       	call   8048478 <memset@plt>
 804adb6:	85 f6                	test   %esi,%esi
 804adb8:	74 13                	je     804adcd <compute_orders_for_list+0x3d>
 804adba:	89 f2                	mov    %esi,%edx
 804adbc:	8d 74 26 00          	lea    0x0(%esi),%esi
 804adc0:	8b 02                	mov    (%edx),%eax
 804adc2:	8b 52 04             	mov    0x4(%edx),%edx
 804adc5:	83 04 83 01          	addl   $0x1,(%ebx,%eax,4)
 804adc9:	85 d2                	test   %edx,%edx
 804adcb:	75 f3                	jne    804adc0 <compute_orders_for_list+0x30>
 804adcd:	83 c4 10             	add    $0x10,%esp
 804add0:	5b                   	pop    %ebx
 804add1:	5e                   	pop    %esi
 804add2:	5d                   	pop    %ebp
 804add3:	c3                   	ret    
 804add4:	8d b6 00 00 00 00    	lea    0x0(%esi),%esi
 804adda:	8d bf 00 00 00 00    	lea    0x0(%edi),%edi

0804ade0 <compute_orders_for_array>:
 804ade0:	55                   	push   %ebp
 804ade1:	89 e5                	mov    %esp,%ebp
 804ade3:	57                   	push   %edi
 804ade4:	56                   	push   %esi
 804ade5:	53                   	push   %ebx
 804ade6:	83 ec 0c             	sub    $0xc,%esp
 804ade9:	8b 5d 0c             	mov    0xc(%ebp),%ebx
 804adec:	8b 75 10             	mov    0x10(%ebp),%esi
 804adef:	8b 7d 08             	mov    0x8(%ebp),%edi
 804adf2:	c7 44 24 08 a0 0f 00 	movl   $0xfa0,0x8(%esp)
 804adf9:	00 
 804adfa:	c7 44 24 04 00 00 00 	movl   $0x0,0x4(%esp)
 804ae01:	00 
 804ae02:	89 1c 24             	mov    %ebx,(%esp)
 804ae05:	e8 6e d6 ff ff       	call   8048478 <memset@plt>
 804ae0a:	85 f6                	test   %esi,%esi
 804ae0c:	7e 10                	jle    804ae1e <compute_orders_for_array+0x3e>
 804ae0e:	31 d2                	xor    %edx,%edx
 804ae10:	8b 04 97             	mov    (%edi,%edx,4),%eax
 804ae13:	83 c2 01             	add    $0x1,%edx
 804ae16:	83 04 83 01          	addl   $0x1,(%ebx,%eax,4)
 804ae1a:	39 f2                	cmp    %esi,%edx
 804ae1c:	75 f2                	jne    804ae10 <compute_orders_for_array+0x30>
 804ae1e:	83 c4 0c             	add    $0xc,%esp
 804ae21:	5b                   	pop    %ebx
 804ae22:	5e                   	pop    %esi
 804ae23:	5f                   	pop    %edi
 804ae24:	5d                   	pop    %ebp
 804ae25:	c3                   	ret    
 804ae26:	8d 76 00             	lea    0x0(%esi),%esi
 804ae29:	8d bc 27 00 00 00 00 	lea    0x0(%edi),%edi

0804ae30 <generate_values>:
 804ae30:	55                   	push   %ebp
 804ae31:	89 e5                	mov    %esp,%ebp
 804ae33:	57                   	push   %edi
 804ae34:	56                   	push   %esi
 804ae35:	be d3 4d 62 10       	mov    $0x10624dd3,%esi
 804ae3a:	53                   	push   %ebx
 804ae3b:	31 db                	xor    %ebx,%ebx
 804ae3d:	83 ec 0c             	sub    $0xc,%esp
 804ae40:	e8 03 d6 ff ff       	call   8048448 <random@plt>
 804ae45:	89 c7                	mov    %eax,%edi
 804ae47:	f7 ee                	imul   %esi
 804ae49:	89 f9                	mov    %edi,%ecx
 804ae4b:	c1 f9 1f             	sar    $0x1f,%ecx
 804ae4e:	c1 fa 06             	sar    $0x6,%edx
 804ae51:	29 ca                	sub    %ecx,%edx
 804ae53:	69 d2 e8 03 00 00    	imul   $0x3e8,%edx,%edx
 804ae59:	29 d7                	sub    %edx,%edi
 804ae5b:	89 3c 9d 80 6a 05 08 	mov    %edi,0x8056a80(,%ebx,4)
 804ae62:	83 c3 01             	add    $0x1,%ebx
 804ae65:	81 fb e8 03 00 00    	cmp    $0x3e8,%ebx
 804ae6b:	75 d3                	jne    804ae40 <generate_values+0x10>
 804ae6d:	83 c4 0c             	add    $0xc,%esp
 804ae70:	5b                   	pop    %ebx
 804ae71:	5e                   	pop    %esi
 804ae72:	5f                   	pop    %edi
 804ae73:	5d                   	pop    %ebp
 804ae74:	c3                   	ret    
 804ae75:	8d 74 26 00          	lea    0x0(%esi),%esi
 804ae79:	8d bc 27 00 00 00 00 	lea    0x0(%edi),%edi

0804ae80 <sglib_hashed_SimpleList_it_current>:
 804ae80:	55                   	push   %ebp
 804ae81:	89 e5                	mov    %esp,%ebp
 804ae83:	8b 45 08             	mov    0x8(%ebp),%eax
 804ae86:	5d                   	pop    %ebp
 804ae87:	8b 00                	mov    (%eax),%eax
 804ae89:	c3                   	ret    
 804ae8a:	8d b6 00 00 00 00    	lea    0x0(%esi),%esi

0804ae90 <sglib_Tree_add_if_not_member>:
 804ae90:	55                   	push   %ebp
 804ae91:	89 e5                	mov    %esp,%ebp
 804ae93:	57                   	push   %edi
 804ae94:	56                   	push   %esi
 804ae95:	53                   	push   %ebx
 804ae96:	8b 75 08             	mov    0x8(%ebp),%esi
 804ae99:	8b 5d 0c             	mov    0xc(%ebp),%ebx
 804ae9c:	8b 7d 10             	mov    0x10(%ebp),%edi
 804ae9f:	8b 0e                	mov    (%esi),%ecx
 804aea1:	85 c9                	test   %ecx,%ecx
 804aea3:	74 24                	je     804aec9 <sglib_Tree_add_if_not_member+0x39>
 804aea5:	8b 13                	mov    (%ebx),%edx
 804aea7:	eb 10                	jmp    804aeb9 <sglib_Tree_add_if_not_member+0x29>
 804aea9:	8d b4 26 00 00 00 00 	lea    0x0(%esi),%esi
 804aeb0:	74 44                	je     804aef6 <sglib_Tree_add_if_not_member+0x66>
 804aeb2:	8b 49 14             	mov    0x14(%ecx),%ecx
 804aeb5:	85 c9                	test   %ecx,%ecx
 804aeb7:	74 10                	je     804aec9 <sglib_Tree_add_if_not_member+0x39>
 804aeb9:	89 d0                	mov    %edx,%eax
 804aebb:	2b 01                	sub    (%ecx),%eax
 804aebd:	83 f8 00             	cmp    $0x0,%eax
 804aec0:	7d ee                	jge    804aeb0 <sglib_Tree_add_if_not_member+0x20>
 804aec2:	8b 49 10             	mov    0x10(%ecx),%ecx
 804aec5:	85 c9                	test   %ecx,%ecx
 804aec7:	75 f0                	jne    804aeb9 <sglib_Tree_add_if_not_member+0x29>
 804aec9:	c7 07 00 00 00 00    	movl   $0x0,(%edi)
 804aecf:	89 f0                	mov    %esi,%eax
 804aed1:	89 da                	mov    %ebx,%edx
 804aed3:	c7 43 14 00 00 00 00 	movl   $0x0,0x14(%ebx)
 804aeda:	c7 43 10 00 00 00 00 	movl   $0x0,0x10(%ebx)
 804aee1:	e8 1a e9 ff ff       	call   8049800 <sglib___Tree_add_recursive>
 804aee6:	8b 06                	mov    (%esi),%eax
 804aee8:	c6 40 0c 00          	movb   $0x0,0xc(%eax)
 804aeec:	b8 01 00 00 00       	mov    $0x1,%eax
 804aef1:	5b                   	pop    %ebx
 804aef2:	5e                   	pop    %esi
 804aef3:	5f                   	pop    %edi
 804aef4:	5d                   	pop    %ebp
 804aef5:	c3                   	ret    
 804aef6:	89 0f                	mov    %ecx,(%edi)
 804aef8:	31 c0                	xor    %eax,%eax
 804aefa:	5b                   	pop    %ebx
 804aefb:	5e                   	pop    %esi
 804aefc:	5f                   	pop    %edi
 804aefd:	5d                   	pop    %ebp
 804aefe:	c3                   	ret    
 804aeff:	90                   	nop    

0804af00 <sglib_hashed_SimpleList_delete>:
 804af00:	55                   	push   %ebp
 804af01:	ba 1f 85 eb 51       	mov    $0x51eb851f,%edx
 804af06:	89 e5                	mov    %esp,%ebp
 804af08:	53                   	push   %ebx
 804af09:	83 ec 14             	sub    $0x14,%esp
 804af0c:	8b 4d 0c             	mov    0xc(%ebp),%ecx
 804af0f:	8b 19                	mov    (%ecx),%ebx
 804af11:	89 d8                	mov    %ebx,%eax
 804af13:	f7 e2                	mul    %edx
 804af15:	c1 ea 05             	shr    $0x5,%edx
 804af18:	6b d2 64             	imul   $0x64,%edx,%edx
 804af1b:	29 d3                	sub    %edx,%ebx
 804af1d:	8d 14 9d 00 00 00 00 	lea    0x0(,%ebx,4),%edx
 804af24:	03 55 08             	add    0x8(%ebp),%edx
 804af27:	8b 02                	mov    (%edx),%eax
 804af29:	85 c0                	test   %eax,%eax
 804af2b:	75 0d                	jne    804af3a <sglib_hashed_SimpleList_delete+0x3a>
 804af2d:	eb 1a                	jmp    804af49 <sglib_hashed_SimpleList_delete+0x49>
 804af2f:	90                   	nop    
 804af30:	8d 50 04             	lea    0x4(%eax),%edx
 804af33:	8b 40 04             	mov    0x4(%eax),%eax
 804af36:	85 c0                	test   %eax,%eax
 804af38:	74 0f                	je     804af49 <sglib_hashed_SimpleList_delete+0x49>
 804af3a:	39 c1                	cmp    %eax,%ecx
 804af3c:	75 f2                	jne    804af30 <sglib_hashed_SimpleList_delete+0x30>
 804af3e:	8b 41 04             	mov    0x4(%ecx),%eax
 804af41:	89 02                	mov    %eax,(%edx)
 804af43:	83 c4 14             	add    $0x14,%esp
 804af46:	5b                   	pop    %ebx
 804af47:	5d                   	pop    %ebp
 804af48:	c3                   	ret    
 804af49:	c7 44 24 0c 03 49 05 	movl   $0x8054903,0xc(%esp)
 804af50:	08 
 804af51:	c7 44 24 08 40 00 00 	movl   $0x40,0x8(%esp)
 804af58:	00 
 804af59:	c7 44 24 04 ac 3b 05 	movl   $0x8053bac,0x4(%esp)
 804af60:	08 
 804af61:	c7 04 24 fc 3e 05 08 	movl   $0x8053efc,(%esp)
 804af68:	e8 2b d5 ff ff       	call   8048498 <__assert_fail@plt>
 804af6d:	8d 76 00             	lea    0x0(%esi),%esi

0804af70 <sglib_ReverseSortedList_it_init_on_equal>:
 804af70:	55                   	push   %ebp
 804af71:	89 e5                	mov    %esp,%ebp
 804af73:	57                   	push   %edi
 804af74:	56                   	push   %esi
 804af75:	53                   	push   %ebx
 804af76:	83 ec 0c             	sub    $0xc,%esp
 804af79:	8b 75 10             	mov    0x10(%ebp),%esi
 804af7c:	8b 45 08             	mov    0x8(%ebp),%eax
 804af7f:	8b 7d 14             	mov    0x14(%ebp),%edi
 804af82:	8b 5d 0c             	mov    0xc(%ebp),%ebx
 804af85:	85 f6                	test   %esi,%esi
 804af87:	89 70 08             	mov    %esi,0x8(%eax)
 804af8a:	89 78 0c             	mov    %edi,0xc(%eax)
 804af8d:	c7 40 04 00 00 00 00 	movl   $0x0,0x4(%eax)
 804af94:	75 13                	jne    804afa9 <sglib_ReverseSortedList_it_init_on_equal+0x39>
 804af96:	eb 3d                	jmp    804afd5 <sglib_ReverseSortedList_it_init_on_equal+0x65>
 804af98:	89 7c 24 04          	mov    %edi,0x4(%esp)
 804af9c:	89 1c 24             	mov    %ebx,(%esp)
 804af9f:	ff d6                	call   *%esi
 804afa1:	83 f8 00             	cmp    $0x0,%eax
 804afa4:	7d 16                	jge    804afbc <sglib_ReverseSortedList_it_init_on_equal+0x4c>
 804afa6:	8b 5b 04             	mov    0x4(%ebx),%ebx
 804afa9:	85 db                	test   %ebx,%ebx
 804afab:	75 eb                	jne    804af98 <sglib_ReverseSortedList_it_init_on_equal+0x28>
 804afad:	8b 45 08             	mov    0x8(%ebp),%eax
 804afb0:	89 18                	mov    %ebx,(%eax)
 804afb2:	83 c4 0c             	add    $0xc,%esp
 804afb5:	89 d8                	mov    %ebx,%eax
 804afb7:	5b                   	pop    %ebx
 804afb8:	5e                   	pop    %esi
 804afb9:	5f                   	pop    %edi
 804afba:	5d                   	pop    %ebp
 804afbb:	c3                   	ret    
 804afbc:	7f 21                	jg     804afdf <sglib_ReverseSortedList_it_init_on_equal+0x6f>
 804afbe:	8b 45 08             	mov    0x8(%ebp),%eax
 804afc1:	89 18                	mov    %ebx,(%eax)
 804afc3:	89 c2                	mov    %eax,%edx
 804afc5:	8b 43 04             	mov    0x4(%ebx),%eax
 804afc8:	89 42 04             	mov    %eax,0x4(%edx)
 804afcb:	83 c4 0c             	add    $0xc,%esp
 804afce:	89 d8                	mov    %ebx,%eax
 804afd0:	5b                   	pop    %ebx
 804afd1:	5e                   	pop    %esi
 804afd2:	5f                   	pop    %edi
 804afd3:	5d                   	pop    %ebp
 804afd4:	c3                   	ret    
 804afd5:	85 db                	test   %ebx,%ebx
 804afd7:	89 c2                	mov    %eax,%edx
 804afd9:	89 18                	mov    %ebx,(%eax)
 804afdb:	75 e8                	jne    804afc5 <sglib_ReverseSortedList_it_init_on_equal+0x55>
 804afdd:	eb d3                	jmp    804afb2 <sglib_ReverseSortedList_it_init_on_equal+0x42>
 804afdf:	8b 55 08             	mov    0x8(%ebp),%edx
 804afe2:	31 db                	xor    %ebx,%ebx
 804afe4:	c7 02 00 00 00 00    	movl   $0x0,(%edx)
 804afea:	eb c6                	jmp    804afb2 <sglib_ReverseSortedList_it_init_on_equal+0x42>
 804afec:	8d 74 26 00          	lea    0x0(%esi),%esi

0804aff0 <sglib_ReverseSortedList_it_init>:
 804aff0:	55                   	push   %ebp
 804aff1:	89 e5                	mov    %esp,%ebp
 804aff3:	8b 55 08             	mov    0x8(%ebp),%edx
 804aff6:	8b 4d 0c             	mov    0xc(%ebp),%ecx
 804aff9:	c7 42 08 00 00 00 00 	movl   $0x0,0x8(%edx)
 804b000:	c7 42 0c 00 00 00 00 	movl   $0x0,0xc(%edx)
 804b007:	c7 42 04 00 00 00 00 	movl   $0x0,0x4(%edx)
 804b00e:	89 0a                	mov    %ecx,(%edx)
 804b010:	85 c9                	test   %ecx,%ecx
 804b012:	74 06                	je     804b01a <sglib_ReverseSortedList_it_init+0x2a>
 804b014:	8b 41 04             	mov    0x4(%ecx),%eax
 804b017:	89 42 04             	mov    %eax,0x4(%edx)
 804b01a:	5d                   	pop    %ebp
 804b01b:	89 c8                	mov    %ecx,%eax
 804b01d:	c3                   	ret    
 804b01e:	66 90                	xchg   %ax,%ax

0804b020 <sglib___Tree_delete_rightmost_leaf>:
 804b020:	55                   	push   %ebp
 804b021:	89 e5                	mov    %esp,%ebp
 804b023:	57                   	push   %edi
 804b024:	56                   	push   %esi
 804b025:	53                   	push   %ebx
 804b026:	89 c3                	mov    %eax,%ebx
 804b028:	83 ec 2c             	sub    $0x2c,%esp
 804b02b:	8b 08                	mov    (%eax),%ecx
 804b02d:	85 c9                	test   %ecx,%ecx
 804b02f:	0f 84 e9 02 00 00    	je     804b31e <sglib___Tree_delete_rightmost_leaf+0x2fe>
 804b035:	8b 41 14             	mov    0x14(%ecx),%eax
 804b038:	85 c0                	test   %eax,%eax
 804b03a:	0f 84 57 01 00 00    	je     804b197 <sglib___Tree_delete_rightmost_leaf+0x177>
 804b040:	8d 41 14             	lea    0x14(%ecx),%eax
 804b043:	89 45 e0             	mov    %eax,0xffffffe0(%ebp)
 804b046:	8b 41 14             	mov    0x14(%ecx),%eax
 804b049:	85 c0                	test   %eax,%eax
 804b04b:	0f 84 cd 02 00 00    	je     804b31e <sglib___Tree_delete_rightmost_leaf+0x2fe>
 804b051:	8b 78 14             	mov    0x14(%eax),%edi
 804b054:	85 ff                	test   %edi,%edi
 804b056:	0f 84 67 01 00 00    	je     804b1c3 <sglib___Tree_delete_rightmost_leaf+0x1a3>
 804b05c:	8d 48 14             	lea    0x14(%eax),%ecx
 804b05f:	89 4d e4             	mov    %ecx,0xffffffe4(%ebp)
 804b062:	8b 48 14             	mov    0x14(%eax),%ecx
 804b065:	85 c9                	test   %ecx,%ecx
 804b067:	0f 84 b1 02 00 00    	je     804b31e <sglib___Tree_delete_rightmost_leaf+0x2fe>
 804b06d:	8b 71 14             	mov    0x14(%ecx),%esi
 804b070:	85 f6                	test   %esi,%esi
 804b072:	0f 84 78 01 00 00    	je     804b1f0 <sglib___Tree_delete_rightmost_leaf+0x1d0>
 804b078:	8d 41 14             	lea    0x14(%ecx),%eax
 804b07b:	89 45 e8             	mov    %eax,0xffffffe8(%ebp)
 804b07e:	8b 41 14             	mov    0x14(%ecx),%eax
 804b081:	85 c0                	test   %eax,%eax
 804b083:	0f 84 95 02 00 00    	je     804b31e <sglib___Tree_delete_rightmost_leaf+0x2fe>
 804b089:	8b 78 14             	mov    0x14(%eax),%edi
 804b08c:	85 ff                	test   %edi,%edi
 804b08e:	0f 84 86 00 00 00    	je     804b11a <sglib___Tree_delete_rightmost_leaf+0xfa>
 804b094:	8d 48 14             	lea    0x14(%eax),%ecx
 804b097:	89 4d ec             	mov    %ecx,0xffffffec(%ebp)
 804b09a:	8b 48 14             	mov    0x14(%eax),%ecx
 804b09d:	85 c9                	test   %ecx,%ecx
 804b09f:	0f 84 79 02 00 00    	je     804b31e <sglib___Tree_delete_rightmost_leaf+0x2fe>
 804b0a5:	8b 71 14             	mov    0x14(%ecx),%esi
 804b0a8:	85 f6                	test   %esi,%esi
 804b0aa:	0f 84 67 01 00 00    	je     804b217 <sglib___Tree_delete_rightmost_leaf+0x1f7>
 804b0b0:	8d 41 14             	lea    0x14(%ecx),%eax
 804b0b3:	89 45 f0             	mov    %eax,0xfffffff0(%ebp)
 804b0b6:	8b 41 14             	mov    0x14(%ecx),%eax
 804b0b9:	85 c0                	test   %eax,%eax
 804b0bb:	0f 84 5d 02 00 00    	je     804b31e <sglib___Tree_delete_rightmost_leaf+0x2fe>
 804b0c1:	8b 78 14             	mov    0x14(%eax),%edi
 804b0c4:	85 ff                	test   %edi,%edi
 804b0c6:	0f 84 84 01 00 00    	je     804b250 <sglib___Tree_delete_rightmost_leaf+0x230>
 804b0cc:	8b 48 14             	mov    0x14(%eax),%ecx
 804b0cf:	8d 78 14             	lea    0x14(%eax),%edi
 804b0d2:	85 c9                	test   %ecx,%ecx
 804b0d4:	0f 84 44 02 00 00    	je     804b31e <sglib___Tree_delete_rightmost_leaf+0x2fe>
 804b0da:	8b 71 14             	mov    0x14(%ecx),%esi
 804b0dd:	85 f6                	test   %esi,%esi
 804b0df:	0f 84 9f 01 00 00    	je     804b284 <sglib___Tree_delete_rightmost_leaf+0x264>
 804b0e5:	8b 41 14             	mov    0x14(%ecx),%eax
 804b0e8:	8d 71 14             	lea    0x14(%ecx),%esi
 804b0eb:	85 c0                	test   %eax,%eax
 804b0ed:	0f 84 2b 02 00 00    	je     804b31e <sglib___Tree_delete_rightmost_leaf+0x2fe>
 804b0f3:	83 78 14 00          	cmpl   $0x0,0x14(%eax)
 804b0f7:	74 6f                	je     804b168 <sglib___Tree_delete_rightmost_leaf+0x148>
 804b0f9:	83 c0 14             	add    $0x14,%eax
 804b0fc:	e8 1f ff ff ff       	call   804b020 <sglib___Tree_delete_rightmost_leaf>
 804b101:	85 c0                	test   %eax,%eax
 804b103:	0f 85 bd 01 00 00    	jne    804b2c6 <sglib___Tree_delete_rightmost_leaf+0x2a6>
 804b109:	8d b4 26 00 00 00 00 	lea    0x0(%esi),%esi
 804b110:	31 c0                	xor    %eax,%eax
 804b112:	83 c4 2c             	add    $0x2c,%esp
 804b115:	5b                   	pop    %ebx
 804b116:	5e                   	pop    %esi
 804b117:	5f                   	pop    %edi
 804b118:	5d                   	pop    %ebp
 804b119:	c3                   	ret    
 804b11a:	89 02                	mov    %eax,(%edx)
 804b11c:	8b 50 10             	mov    0x10(%eax),%edx
 804b11f:	85 d2                	test   %edx,%edx
 804b121:	0f 84 59 02 00 00    	je     804b380 <sglib___Tree_delete_rightmost_leaf+0x360>
 804b127:	31 c9                	xor    %ecx,%ecx
 804b129:	80 78 0c 00          	cmpb   $0x0,0xc(%eax)
 804b12d:	0f 84 a1 01 00 00    	je     804b2d4 <sglib___Tree_delete_rightmost_leaf+0x2b4>
 804b133:	c6 42 0c 00          	movb   $0x0,0xc(%edx)
 804b137:	8b 45 e8             	mov    0xffffffe8(%ebp),%eax
 804b13a:	89 10                	mov    %edx,(%eax)
 804b13c:	85 c9                	test   %ecx,%ecx
 804b13e:	74 d0                	je     804b110 <sglib___Tree_delete_rightmost_leaf+0xf0>
 804b140:	8b 45 e4             	mov    0xffffffe4(%ebp),%eax
 804b143:	e8 68 f0 ff ff       	call   804a1b0 <sglib___Tree_fix_right_deletion_discrepancy>
 804b148:	85 c0                	test   %eax,%eax
 804b14a:	74 c4                	je     804b110 <sglib___Tree_delete_rightmost_leaf+0xf0>
 804b14c:	8b 45 e0             	mov    0xffffffe0(%ebp),%eax
 804b14f:	e8 5c f0 ff ff       	call   804a1b0 <sglib___Tree_fix_right_deletion_discrepancy>
 804b154:	89 c1                	mov    %eax,%ecx
 804b156:	85 c9                	test   %ecx,%ecx
 804b158:	74 b6                	je     804b110 <sglib___Tree_delete_rightmost_leaf+0xf0>
 804b15a:	83 c4 2c             	add    $0x2c,%esp
 804b15d:	89 d8                	mov    %ebx,%eax
 804b15f:	5b                   	pop    %ebx
 804b160:	5e                   	pop    %esi
 804b161:	5f                   	pop    %edi
 804b162:	5d                   	pop    %ebp
 804b163:	e9 48 f0 ff ff       	jmp    804a1b0 <sglib___Tree_fix_right_deletion_discrepancy>
 804b168:	89 02                	mov    %eax,(%edx)
 804b16a:	8b 50 10             	mov    0x10(%eax),%edx
 804b16d:	85 d2                	test   %edx,%edx
 804b16f:	0f 84 35 02 00 00    	je     804b3aa <sglib___Tree_delete_rightmost_leaf+0x38a>
 804b175:	31 c9                	xor    %ecx,%ecx
 804b177:	80 78 0c 00          	cmpb   $0x0,0xc(%eax)
 804b17b:	0f 84 6f 01 00 00    	je     804b2f0 <sglib___Tree_delete_rightmost_leaf+0x2d0>
 804b181:	c6 42 0c 00          	movb   $0x0,0xc(%edx)
 804b185:	89 16                	mov    %edx,(%esi)
 804b187:	85 c9                	test   %ecx,%ecx
 804b189:	74 85                	je     804b110 <sglib___Tree_delete_rightmost_leaf+0xf0>
 804b18b:	89 f8                	mov    %edi,%eax
 804b18d:	e8 1e f0 ff ff       	call   804a1b0 <sglib___Tree_fix_right_deletion_discrepancy>
 804b192:	e9 0d 01 00 00       	jmp    804b2a4 <sglib___Tree_delete_rightmost_leaf+0x284>
 804b197:	89 0a                	mov    %ecx,(%edx)
 804b199:	8b 51 10             	mov    0x10(%ecx),%edx
 804b19c:	85 d2                	test   %edx,%edx
 804b19e:	0f 84 9e 01 00 00    	je     804b342 <sglib___Tree_delete_rightmost_leaf+0x322>
 804b1a4:	31 c0                	xor    %eax,%eax
 804b1a6:	80 79 0c 00          	cmpb   $0x0,0xc(%ecx)
 804b1aa:	75 09                	jne    804b1b5 <sglib___Tree_delete_rightmost_leaf+0x195>
 804b1ac:	31 c0                	xor    %eax,%eax
 804b1ae:	80 7a 0c 00          	cmpb   $0x0,0xc(%edx)
 804b1b2:	0f 94 c0             	sete   %al
 804b1b5:	c6 42 0c 00          	movb   $0x0,0xc(%edx)
 804b1b9:	89 13                	mov    %edx,(%ebx)
 804b1bb:	83 c4 2c             	add    $0x2c,%esp
 804b1be:	5b                   	pop    %ebx
 804b1bf:	5e                   	pop    %esi
 804b1c0:	5f                   	pop    %edi
 804b1c1:	5d                   	pop    %ebp
 804b1c2:	c3                   	ret    
 804b1c3:	89 02                	mov    %eax,(%edx)
 804b1c5:	8b 50 10             	mov    0x10(%eax),%edx
 804b1c8:	85 d2                	test   %edx,%edx
 804b1ca:	0f 84 86 01 00 00    	je     804b356 <sglib___Tree_delete_rightmost_leaf+0x336>
 804b1d0:	31 c9                	xor    %ecx,%ecx
 804b1d2:	80 78 0c 00          	cmpb   $0x0,0xc(%eax)
 804b1d6:	75 09                	jne    804b1e1 <sglib___Tree_delete_rightmost_leaf+0x1c1>
 804b1d8:	31 c9                	xor    %ecx,%ecx
 804b1da:	80 7a 0c 00          	cmpb   $0x0,0xc(%edx)
 804b1de:	0f 94 c1             	sete   %cl
 804b1e1:	c6 42 0c 00          	movb   $0x0,0xc(%edx)
 804b1e5:	8b 45 e0             	mov    0xffffffe0(%ebp),%eax
 804b1e8:	89 10                	mov    %edx,(%eax)
 804b1ea:	e9 67 ff ff ff       	jmp    804b156 <sglib___Tree_delete_rightmost_leaf+0x136>
 804b1ef:	90                   	nop    
 804b1f0:	89 0a                	mov    %ecx,(%edx)
 804b1f2:	8b 51 10             	mov    0x10(%ecx),%edx
 804b1f5:	85 d2                	test   %edx,%edx
 804b1f7:	0f 84 6e 01 00 00    	je     804b36b <sglib___Tree_delete_rightmost_leaf+0x34b>
 804b1fd:	31 c0                	xor    %eax,%eax
 804b1ff:	80 79 0c 00          	cmpb   $0x0,0xc(%ecx)
 804b203:	0f 84 af 00 00 00    	je     804b2b8 <sglib___Tree_delete_rightmost_leaf+0x298>
 804b209:	c6 42 0c 00          	movb   $0x0,0xc(%edx)
 804b20d:	8b 4d e4             	mov    0xffffffe4(%ebp),%ecx
 804b210:	89 11                	mov    %edx,(%ecx)
 804b212:	e9 31 ff ff ff       	jmp    804b148 <sglib___Tree_delete_rightmost_leaf+0x128>
 804b217:	89 0a                	mov    %ecx,(%edx)
 804b219:	8b 51 10             	mov    0x10(%ecx),%edx
 804b21c:	85 d2                	test   %edx,%edx
 804b21e:	0f 84 71 01 00 00    	je     804b395 <sglib___Tree_delete_rightmost_leaf+0x375>
 804b224:	31 c0                	xor    %eax,%eax
 804b226:	80 79 0c 00          	cmpb   $0x0,0xc(%ecx)
 804b22a:	0f 84 b2 00 00 00    	je     804b2e2 <sglib___Tree_delete_rightmost_leaf+0x2c2>
 804b230:	c6 42 0c 00          	movb   $0x0,0xc(%edx)
 804b234:	8b 4d ec             	mov    0xffffffec(%ebp),%ecx
 804b237:	89 11                	mov    %edx,(%ecx)
 804b239:	85 c0                	test   %eax,%eax
 804b23b:	0f 84 cf fe ff ff    	je     804b110 <sglib___Tree_delete_rightmost_leaf+0xf0>
 804b241:	8b 45 e8             	mov    0xffffffe8(%ebp),%eax
 804b244:	e8 67 ef ff ff       	call   804a1b0 <sglib___Tree_fix_right_deletion_discrepancy>
 804b249:	89 c1                	mov    %eax,%ecx
 804b24b:	e9 ec fe ff ff       	jmp    804b13c <sglib___Tree_delete_rightmost_leaf+0x11c>
 804b250:	89 02                	mov    %eax,(%edx)
 804b252:	8b 50 10             	mov    0x10(%eax),%edx
 804b255:	85 d2                	test   %edx,%edx
 804b257:	0f 84 62 01 00 00    	je     804b3bf <sglib___Tree_delete_rightmost_leaf+0x39f>
 804b25d:	31 c9                	xor    %ecx,%ecx
 804b25f:	80 78 0c 00          	cmpb   $0x0,0xc(%eax)
 804b263:	0f 84 95 00 00 00    	je     804b2fe <sglib___Tree_delete_rightmost_leaf+0x2de>
 804b269:	c6 42 0c 00          	movb   $0x0,0xc(%edx)
 804b26d:	8b 45 f0             	mov    0xfffffff0(%ebp),%eax
 804b270:	89 10                	mov    %edx,(%eax)
 804b272:	85 c9                	test   %ecx,%ecx
 804b274:	0f 84 96 fe ff ff    	je     804b110 <sglib___Tree_delete_rightmost_leaf+0xf0>
 804b27a:	8b 45 ec             	mov    0xffffffec(%ebp),%eax
 804b27d:	e8 2e ef ff ff       	call   804a1b0 <sglib___Tree_fix_right_deletion_discrepancy>
 804b282:	eb b5                	jmp    804b239 <sglib___Tree_delete_rightmost_leaf+0x219>
 804b284:	89 0a                	mov    %ecx,(%edx)
 804b286:	8b 51 10             	mov    0x10(%ecx),%edx
 804b289:	85 d2                	test   %edx,%edx
 804b28b:	74 7f                	je     804b30c <sglib___Tree_delete_rightmost_leaf+0x2ec>
 804b28d:	31 c0                	xor    %eax,%eax
 804b28f:	80 79 0c 00          	cmpb   $0x0,0xc(%ecx)
 804b293:	75 09                	jne    804b29e <sglib___Tree_delete_rightmost_leaf+0x27e>
 804b295:	31 c0                	xor    %eax,%eax
 804b297:	80 7a 0c 00          	cmpb   $0x0,0xc(%edx)
 804b29b:	0f 94 c0             	sete   %al
 804b29e:	c6 42 0c 00          	movb   $0x0,0xc(%edx)
 804b2a2:	89 17                	mov    %edx,(%edi)
 804b2a4:	85 c0                	test   %eax,%eax
 804b2a6:	0f 84 64 fe ff ff    	je     804b110 <sglib___Tree_delete_rightmost_leaf+0xf0>
 804b2ac:	8b 45 f0             	mov    0xfffffff0(%ebp),%eax
 804b2af:	e8 fc ee ff ff       	call   804a1b0 <sglib___Tree_fix_right_deletion_discrepancy>
 804b2b4:	89 c1                	mov    %eax,%ecx
 804b2b6:	eb ba                	jmp    804b272 <sglib___Tree_delete_rightmost_leaf+0x252>
 804b2b8:	31 c0                	xor    %eax,%eax
 804b2ba:	80 7a 0c 00          	cmpb   $0x0,0xc(%edx)
 804b2be:	0f 94 c0             	sete   %al
 804b2c1:	e9 43 ff ff ff       	jmp    804b209 <sglib___Tree_delete_rightmost_leaf+0x1e9>
 804b2c6:	89 f0                	mov    %esi,%eax
 804b2c8:	e8 e3 ee ff ff       	call   804a1b0 <sglib___Tree_fix_right_deletion_discrepancy>
 804b2cd:	89 c1                	mov    %eax,%ecx
 804b2cf:	e9 b3 fe ff ff       	jmp    804b187 <sglib___Tree_delete_rightmost_leaf+0x167>
 804b2d4:	31 c9                	xor    %ecx,%ecx
 804b2d6:	80 7a 0c 00          	cmpb   $0x0,0xc(%edx)
 804b2da:	0f 94 c1             	sete   %cl
 804b2dd:	e9 51 fe ff ff       	jmp    804b133 <sglib___Tree_delete_rightmost_leaf+0x113>
 804b2e2:	31 c0                	xor    %eax,%eax
 804b2e4:	80 7a 0c 00          	cmpb   $0x0,0xc(%edx)
 804b2e8:	0f 94 c0             	sete   %al
 804b2eb:	e9 40 ff ff ff       	jmp    804b230 <sglib___Tree_delete_rightmost_leaf+0x210>
 804b2f0:	31 c9                	xor    %ecx,%ecx
 804b2f2:	80 7a 0c 00          	cmpb   $0x0,0xc(%edx)
 804b2f6:	0f 94 c1             	sete   %cl
 804b2f9:	e9 83 fe ff ff       	jmp    804b181 <sglib___Tree_delete_rightmost_leaf+0x161>
 804b2fe:	31 c9                	xor    %ecx,%ecx
 804b300:	80 7a 0c 00          	cmpb   $0x0,0xc(%edx)
 804b304:	0f 94 c1             	sete   %cl
 804b307:	e9 5d ff ff ff       	jmp    804b269 <sglib___Tree_delete_rightmost_leaf+0x249>
 804b30c:	c7 40 14 00 00 00 00 	movl   $0x0,0x14(%eax)
 804b313:	31 c0                	xor    %eax,%eax
 804b315:	80 79 0c 00          	cmpb   $0x0,0xc(%ecx)
 804b319:	0f 94 c0             	sete   %al
 804b31c:	eb 86                	jmp    804b2a4 <sglib___Tree_delete_rightmost_leaf+0x284>
 804b31e:	c7 44 24 0c 60 48 05 	movl   $0x8054860,0xc(%esp)
 804b325:	08 
 804b326:	c7 44 24 08 48 00 00 	movl   $0x48,0x8(%esp)
 804b32d:	00 
 804b32e:	c7 44 24 04 ac 3b 05 	movl   $0x8053bac,0x4(%esp)
 804b335:	08 
 804b336:	c7 04 24 f3 3c 05 08 	movl   $0x8053cf3,(%esp)
 804b33d:	e8 56 d1 ff ff       	call   8048498 <__assert_fail@plt>
 804b342:	31 c0                	xor    %eax,%eax
 804b344:	c7 03 00 00 00 00    	movl   $0x0,(%ebx)
 804b34a:	80 79 0c 00          	cmpb   $0x0,0xc(%ecx)
 804b34e:	0f 94 c0             	sete   %al
 804b351:	e9 bc fd ff ff       	jmp    804b112 <sglib___Tree_delete_rightmost_leaf+0xf2>
 804b356:	c7 41 14 00 00 00 00 	movl   $0x0,0x14(%ecx)
 804b35d:	31 c9                	xor    %ecx,%ecx
 804b35f:	80 78 0c 00          	cmpb   $0x0,0xc(%eax)
 804b363:	0f 94 c1             	sete   %cl
 804b366:	e9 eb fd ff ff       	jmp    804b156 <sglib___Tree_delete_rightmost_leaf+0x136>
 804b36b:	c7 40 14 00 00 00 00 	movl   $0x0,0x14(%eax)
 804b372:	31 c0                	xor    %eax,%eax
 804b374:	80 79 0c 00          	cmpb   $0x0,0xc(%ecx)
 804b378:	0f 94 c0             	sete   %al
 804b37b:	e9 c8 fd ff ff       	jmp    804b148 <sglib___Tree_delete_rightmost_leaf+0x128>
 804b380:	c7 41 14 00 00 00 00 	movl   $0x0,0x14(%ecx)
 804b387:	31 c9                	xor    %ecx,%ecx
 804b389:	80 78 0c 00          	cmpb   $0x0,0xc(%eax)
 804b38d:	0f 94 c1             	sete   %cl
 804b390:	e9 a7 fd ff ff       	jmp    804b13c <sglib___Tree_delete_rightmost_leaf+0x11c>
 804b395:	c7 40 14 00 00 00 00 	movl   $0x0,0x14(%eax)
 804b39c:	31 c0                	xor    %eax,%eax
 804b39e:	80 79 0c 00          	cmpb   $0x0,0xc(%ecx)
 804b3a2:	0f 94 c0             	sete   %al
 804b3a5:	e9 8f fe ff ff       	jmp    804b239 <sglib___Tree_delete_rightmost_leaf+0x219>
 804b3aa:	c7 41 14 00 00 00 00 	movl   $0x0,0x14(%ecx)
 804b3b1:	31 c9                	xor    %ecx,%ecx
 804b3b3:	80 78 0c 00          	cmpb   $0x0,0xc(%eax)
 804b3b7:	0f 94 c1             	sete   %cl
 804b3ba:	e9 c8 fd ff ff       	jmp    804b187 <sglib___Tree_delete_rightmost_leaf+0x167>
 804b3bf:	c7 41 14 00 00 00 00 	movl   $0x0,0x14(%ecx)
 804b3c6:	31 c9                	xor    %ecx,%ecx
 804b3c8:	80 78 0c 00          	cmpb   $0x0,0xc(%eax)
 804b3cc:	0f 94 c1             	sete   %cl
 804b3cf:	e9 9e fe ff ff       	jmp    804b272 <sglib___Tree_delete_rightmost_leaf+0x252>
 804b3d4:	8d b6 00 00 00 00    	lea    0x0(%esi),%esi
 804b3da:	8d bf 00 00 00 00    	lea    0x0(%edi),%edi

0804b3e0 <sglib___Tree_delete_recursive>:
 804b3e0:	55                   	push   %ebp
 804b3e1:	89 e5                	mov    %esp,%ebp
 804b3e3:	83 ec 38             	sub    $0x38,%esp
 804b3e6:	89 75 f8             	mov    %esi,0xfffffff8(%ebp)
 804b3e9:	8b 75 08             	mov    0x8(%ebp),%esi
 804b3ec:	89 5d f4             	mov    %ebx,0xfffffff4(%ebp)
 804b3ef:	8b 5d 0c             	mov    0xc(%ebp),%ebx
 804b3f2:	89 7d fc             	mov    %edi,0xfffffffc(%ebp)
 804b3f5:	8b 06                	mov    (%esi),%eax
 804b3f7:	85 c0                	test   %eax,%eax
 804b3f9:	0f 84 73 01 00 00    	je     804b572 <sglib___Tree_delete_recursive+0x192>
 804b3ff:	8b 13                	mov    (%ebx),%edx
 804b401:	2b 10                	sub    (%eax),%edx
 804b403:	83 fa 00             	cmp    $0x0,%edx
 804b406:	7c 0b                	jl     804b413 <sglib___Tree_delete_recursive+0x33>
 804b408:	0f 94 c1             	sete   %cl
 804b40b:	84 c9                	test   %cl,%cl
 804b40d:	74 31                	je     804b440 <sglib___Tree_delete_recursive+0x60>
 804b40f:	39 c3                	cmp    %eax,%ebx
 804b411:	73 2d                	jae    804b440 <sglib___Tree_delete_recursive+0x60>
 804b413:	83 c0 10             	add    $0x10,%eax
 804b416:	89 5c 24 04          	mov    %ebx,0x4(%esp)
 804b41a:	89 04 24             	mov    %eax,(%esp)
 804b41d:	e8 be ff ff ff       	call   804b3e0 <sglib___Tree_delete_recursive>
 804b422:	85 c0                	test   %eax,%eax
 804b424:	0f 85 e6 00 00 00    	jne    804b510 <sglib___Tree_delete_recursive+0x130>
 804b42a:	8d b6 00 00 00 00    	lea    0x0(%esi),%esi
 804b430:	31 c0                	xor    %eax,%eax
 804b432:	8b 5d f4             	mov    0xfffffff4(%ebp),%ebx
 804b435:	8b 75 f8             	mov    0xfffffff8(%ebp),%esi
 804b438:	8b 7d fc             	mov    0xfffffffc(%ebp),%edi
 804b43b:	89 ec                	mov    %ebp,%esp
 804b43d:	5d                   	pop    %ebp
 804b43e:	c3                   	ret    
 804b43f:	90                   	nop    
 804b440:	85 d2                	test   %edx,%edx
 804b442:	75 62                	jne    804b4a6 <sglib___Tree_delete_recursive+0xc6>
 804b444:	84 c9                	test   %cl,%cl
 804b446:	74 04                	je     804b44c <sglib___Tree_delete_recursive+0x6c>
 804b448:	39 c3                	cmp    %eax,%ebx
 804b44a:	77 5a                	ja     804b4a6 <sglib___Tree_delete_recursive+0xc6>
 804b44c:	39 c3                	cmp    %eax,%ebx
 804b44e:	66 90                	xchg   %ax,%ax
 804b450:	0f 85 40 01 00 00    	jne    804b596 <sglib___Tree_delete_recursive+0x1b6>
 804b456:	8b 4b 10             	mov    0x10(%ebx),%ecx
 804b459:	85 c9                	test   %ecx,%ecx
 804b45b:	0f 84 bb 00 00 00    	je     804b51c <sglib___Tree_delete_recursive+0x13c>
 804b461:	8b 43 10             	mov    0x10(%ebx),%eax
 804b464:	8d 7b 10             	lea    0x10(%ebx),%edi
 804b467:	85 c0                	test   %eax,%eax
 804b469:	0f 84 4b 01 00 00    	je     804b5ba <sglib___Tree_delete_recursive+0x1da>
 804b46f:	8b 50 14             	mov    0x14(%eax),%edx
 804b472:	85 d2                	test   %edx,%edx
 804b474:	74 53                	je     804b4c9 <sglib___Tree_delete_recursive+0xe9>
