
./test-b/selftest-O2.exe:     file format elf32-i386

Disassembly of section .init:

08048420 <_init>:
 8048420:	55                   	push   %ebp
 8048421:	89 e5                	mov    %esp,%ebp
 8048423:	83 ec 08             	sub    $0x8,%esp
 8048426:	e8 29 01 00 00       	call   8048554 <call_gmon_start>
 804842b:	e8 b0 01 00 00       	call   80485e0 <frame_dummy>
 8048430:	e8 db 70 00 00       	call   804f510 <__do_global_ctors_aux>
 8048435:	c9                   	leave  
 8048436:	c3                   	ret    
Disassembly of section .plt:

08048438 <random@plt-0x10>:
 8048438:	ff 35 54 14 05 08    	pushl  0x8051454
 804843e:	ff 25 58 14 05 08    	jmp    *0x8051458
 8048444:	00 00                	add    %al,(%eax)
	...

08048448 <random@plt>:
 8048448:	ff 25 5c 14 05 08    	jmp    *0x805145c
 804844e:	68 00 00 00 00       	push   $0x0
 8048453:	e9 e0 ff ff ff       	jmp    8048438 <_init+0x18>

08048458 <__gmon_start__@plt>:
 8048458:	ff 25 60 14 05 08    	jmp    *0x8051460
 804845e:	68 08 00 00 00       	push   $0x8
 8048463:	e9 d0 ff ff ff       	jmp    8048438 <_init+0x18>

08048468 <putchar@plt>:
 8048468:	ff 25 64 14 05 08    	jmp    *0x8051464
 804846e:	68 10 00 00 00       	push   $0x10
 8048473:	e9 c0 ff ff ff       	jmp    8048438 <_init+0x18>

08048478 <memset@plt>:
 8048478:	ff 25 68 14 05 08    	jmp    *0x8051468
 804847e:	68 18 00 00 00       	push   $0x18
 8048483:	e9 b0 ff ff ff       	jmp    8048438 <_init+0x18>

08048488 <__libc_start_main@plt>:
 8048488:	ff 25 6c 14 05 08    	jmp    *0x805146c
 804848e:	68 20 00 00 00       	push   $0x20
 8048493:	e9 a0 ff ff ff       	jmp    8048438 <_init+0x18>

08048498 <__assert_fail@plt>:
 8048498:	ff 25 70 14 05 08    	jmp    *0x8051470
 804849e:	68 28 00 00 00       	push   $0x28
 80484a3:	e9 90 ff ff ff       	jmp    8048438 <_init+0x18>

080484a8 <free@plt>:
 80484a8:	ff 25 74 14 05 08    	jmp    *0x8051474
 80484ae:	68 30 00 00 00       	push   $0x30
 80484b3:	e9 80 ff ff ff       	jmp    8048438 <_init+0x18>

080484b8 <fflush@plt>:
 80484b8:	ff 25 78 14 05 08    	jmp    *0x8051478
 80484be:	68 38 00 00 00       	push   $0x38
 80484c3:	e9 70 ff ff ff       	jmp    8048438 <_init+0x18>

080484c8 <printf@plt>:
 80484c8:	ff 25 7c 14 05 08    	jmp    *0x805147c
 80484ce:	68 40 00 00 00       	push   $0x40
 80484d3:	e9 60 ff ff ff       	jmp    8048438 <_init+0x18>

080484d8 <srandom@plt>:
 80484d8:	ff 25 80 14 05 08    	jmp    *0x8051480
 80484de:	68 48 00 00 00       	push   $0x48
 80484e3:	e9 50 ff ff ff       	jmp    8048438 <_init+0x18>

080484e8 <fwrite@plt>:
 80484e8:	ff 25 84 14 05 08    	jmp    *0x8051484
 80484ee:	68 50 00 00 00       	push   $0x50
 80484f3:	e9 40 ff ff ff       	jmp    8048438 <_init+0x18>

080484f8 <fprintf@plt>:
 80484f8:	ff 25 88 14 05 08    	jmp    *0x8051488
 80484fe:	68 58 00 00 00       	push   $0x58
 8048503:	e9 30 ff ff ff       	jmp    8048438 <_init+0x18>

08048508 <time@plt>:
 8048508:	ff 25 8c 14 05 08    	jmp    *0x805148c
 804850e:	68 60 00 00 00       	push   $0x60
 8048513:	e9 20 ff ff ff       	jmp    8048438 <_init+0x18>

08048518 <malloc@plt>:
 8048518:	ff 25 90 14 05 08    	jmp    *0x8051490
 804851e:	68 68 00 00 00       	push   $0x68
 8048523:	e9 10 ff ff ff       	jmp    8048438 <_init+0x18>
Disassembly of section .text:

08048530 <_start>:
 8048530:	31 ed                	xor    %ebp,%ebp
 8048532:	5e                   	pop    %esi
 8048533:	89 e1                	mov    %esp,%ecx
 8048535:	83 e4 f0             	and    $0xfffffff0,%esp
 8048538:	50                   	push   %eax
 8048539:	54                   	push   %esp
 804853a:	52                   	push   %edx
 804853b:	68 90 f4 04 08       	push   $0x804f490
 8048540:	68 a0 f4 04 08       	push   $0x804f4a0
 8048545:	51                   	push   %ecx
 8048546:	56                   	push   %esi
 8048547:	68 10 f4 04 08       	push   $0x804f410
 804854c:	e8 37 ff ff ff       	call   8048488 <__libc_start_main@plt>
 8048551:	f4                   	hlt    
 8048552:	90                   	nop    
 8048553:	90                   	nop    

08048554 <call_gmon_start>:
 8048554:	55                   	push   %ebp
 8048555:	89 e5                	mov    %esp,%ebp
 8048557:	53                   	push   %ebx
 8048558:	83 ec 04             	sub    $0x4,%esp
 804855b:	e8 00 00 00 00       	call   8048560 <call_gmon_start+0xc>
 8048560:	5b                   	pop    %ebx
 8048561:	81 c3 f0 8e 00 00    	add    $0x8ef0,%ebx
 8048567:	8b 93 fc ff ff ff    	mov    0xfffffffc(%ebx),%edx
 804856d:	85 d2                	test   %edx,%edx
 804856f:	74 05                	je     8048576 <call_gmon_start+0x22>
 8048571:	e8 e2 fe ff ff       	call   8048458 <__gmon_start__@plt>
 8048576:	58                   	pop    %eax
 8048577:	5b                   	pop    %ebx
 8048578:	c9                   	leave  
 8048579:	c3                   	ret    
 804857a:	90                   	nop    
 804857b:	90                   	nop    
 804857c:	90                   	nop    
 804857d:	90                   	nop    
 804857e:	90                   	nop    
 804857f:	90                   	nop    

08048580 <__do_global_dtors_aux>:
 8048580:	55                   	push   %ebp
 8048581:	89 e5                	mov    %esp,%ebp
 8048583:	53                   	push   %ebx
 8048584:	83 ec 04             	sub    $0x4,%esp
 8048587:	80 3d ac 14 05 08 00 	cmpb   $0x0,0x80514ac
 804858e:	75 3f                	jne    80485cf <__do_global_dtors_aux+0x4f>
 8048590:	b8 7c 13 05 08       	mov    $0x805137c,%eax
 8048595:	2d 78 13 05 08       	sub    $0x8051378,%eax
 804859a:	c1 f8 02             	sar    $0x2,%eax
 804859d:	8d 58 ff             	lea    0xffffffff(%eax),%ebx
 80485a0:	a1 a8 14 05 08       	mov    0x80514a8,%eax
 80485a5:	39 c3                	cmp    %eax,%ebx
 80485a7:	76 1f                	jbe    80485c8 <__do_global_dtors_aux+0x48>
 80485a9:	8d b4 26 00 00 00 00 	lea    0x0(%esi),%esi
 80485b0:	83 c0 01             	add    $0x1,%eax
 80485b3:	a3 a8 14 05 08       	mov    %eax,0x80514a8
 80485b8:	ff 14 85 78 13 05 08 	call   *0x8051378(,%eax,4)
 80485bf:	a1 a8 14 05 08       	mov    0x80514a8,%eax
 80485c4:	39 c3                	cmp    %eax,%ebx
 80485c6:	77 e8                	ja     80485b0 <__do_global_dtors_aux+0x30>
 80485c8:	c6 05 ac 14 05 08 01 	movb   $0x1,0x80514ac
 80485cf:	83 c4 04             	add    $0x4,%esp
 80485d2:	5b                   	pop    %ebx
 80485d3:	5d                   	pop    %ebp
 80485d4:	c3                   	ret    
 80485d5:	8d 74 26 00          	lea    0x0(%esi),%esi
 80485d9:	8d bc 27 00 00 00 00 	lea    0x0(%edi),%edi

080485e0 <frame_dummy>:
 80485e0:	55                   	push   %ebp
 80485e1:	89 e5                	mov    %esp,%ebp
 80485e3:	83 ec 08             	sub    $0x8,%esp
 80485e6:	a1 80 13 05 08       	mov    0x8051380,%eax
 80485eb:	85 c0                	test   %eax,%eax
 80485ed:	74 12                	je     8048601 <frame_dummy+0x21>
 80485ef:	b8 00 00 00 00       	mov    $0x0,%eax
 80485f4:	85 c0                	test   %eax,%eax
 80485f6:	74 09                	je     8048601 <frame_dummy+0x21>
 80485f8:	c7 04 24 80 13 05 08 	movl   $0x8051380,(%esp)
 80485ff:	ff d0                	call   *%eax
 8048601:	c9                   	leave  
 8048602:	c3                   	ret    
 8048603:	90                   	nop    
 8048604:	90                   	nop    
 8048605:	90                   	nop    
 8048606:	90                   	nop    
 8048607:	90                   	nop    
 8048608:	90                   	nop    
 8048609:	90                   	nop    
 804860a:	90                   	nop    
 804860b:	90                   	nop    
 804860c:	90                   	nop    
 804860d:	90                   	nop    
 804860e:	90                   	nop    
 804860f:	90                   	nop    

08048610 <myListCmp>:
 8048610:	55                   	push   %ebp
 8048611:	89 e5                	mov    %esp,%ebp
 8048613:	8b 45 08             	mov    0x8(%ebp),%eax
 8048616:	8b 55 0c             	mov    0xc(%ebp),%edx
 8048619:	5d                   	pop    %ebp
 804861a:	8b 00                	mov    (%eax),%eax
 804861c:	2b 02                	sub    (%edx),%eax
 804861e:	c3                   	ret    
 804861f:	90                   	nop    

08048620 <slistHashFunction>:
 8048620:	55                   	push   %ebp
 8048621:	89 e5                	mov    %esp,%ebp
 8048623:	8b 45 08             	mov    0x8(%ebp),%eax
 8048626:	5d                   	pop    %ebp
 8048627:	8b 00                	mov    (%eax),%eax
 8048629:	c3                   	ret    
 804862a:	8d b6 00 00 00 00    	lea    0x0(%esi),%esi

08048630 <sglib_SimpleList_is_member>:
 8048630:	55                   	push   %ebp
 8048631:	89 e5                	mov    %esp,%ebp
 8048633:	8b 55 08             	mov    0x8(%ebp),%edx
 8048636:	8b 4d 0c             	mov    0xc(%ebp),%ecx
 8048639:	85 d2                	test   %edx,%edx
 804863b:	74 1b                	je     8048658 <sglib_SimpleList_is_member+0x28>
 804863d:	39 ca                	cmp    %ecx,%edx
 804863f:	89 d0                	mov    %edx,%eax
 8048641:	74 15                	je     8048658 <sglib_SimpleList_is_member+0x28>
 8048643:	8b 40 04             	mov    0x4(%eax),%eax
 8048646:	85 c0                	test   %eax,%eax
 8048648:	74 04                	je     804864e <sglib_SimpleList_is_member+0x1e>
 804864a:	39 c1                	cmp    %eax,%ecx
 804864c:	75 f5                	jne    8048643 <sglib_SimpleList_is_member+0x13>
 804864e:	85 c0                	test   %eax,%eax
 8048650:	5d                   	pop    %ebp
 8048651:	0f 95 c0             	setne  %al
 8048654:	0f b6 c0             	movzbl %al,%eax
 8048657:	c3                   	ret    
 8048658:	89 d0                	mov    %edx,%eax
 804865a:	85 c0                	test   %eax,%eax
 804865c:	5d                   	pop    %ebp
 804865d:	0f 95 c0             	setne  %al
 8048660:	0f b6 c0             	movzbl %al,%eax
 8048663:	c3                   	ret    
 8048664:	8d b6 00 00 00 00    	lea    0x0(%esi),%esi
 804866a:	8d bf 00 00 00 00    	lea    0x0(%edi),%edi

08048670 <sglib_SimpleList_find_member>:
 8048670:	55                   	push   %ebp
 8048671:	89 e5                	mov    %esp,%ebp
 8048673:	56                   	push   %esi
 8048674:	53                   	push   %ebx
 8048675:	31 db                	xor    %ebx,%ebx
 8048677:	83 ec 08             	sub    $0x8,%esp
 804867a:	8b 45 08             	mov    0x8(%ebp),%eax
 804867d:	8b 75 0c             	mov    0xc(%ebp),%esi
 8048680:	85 c0                	test   %eax,%eax
 8048682:	74 1b                	je     804869f <sglib_SimpleList_find_member+0x2f>
 8048684:	89 c3                	mov    %eax,%ebx
 8048686:	eb 07                	jmp    804868f <sglib_SimpleList_find_member+0x1f>
 8048688:	8b 5b 04             	mov    0x4(%ebx),%ebx
 804868b:	85 db                	test   %ebx,%ebx
 804868d:	74 10                	je     804869f <sglib_SimpleList_find_member+0x2f>
 804868f:	89 74 24 04          	mov    %esi,0x4(%esp)
 8048693:	89 1c 24             	mov    %ebx,(%esp)
 8048696:	e8 75 ff ff ff       	call   8048610 <myListCmp>
 804869b:	85 c0                	test   %eax,%eax
 804869d:	75 e9                	jne    8048688 <sglib_SimpleList_find_member+0x18>
 804869f:	83 c4 08             	add    $0x8,%esp
 80486a2:	89 d8                	mov    %ebx,%eax
 80486a4:	5b                   	pop    %ebx
 80486a5:	5e                   	pop    %esi
 80486a6:	5d                   	pop    %ebp
 80486a7:	c3                   	ret    
 80486a8:	90                   	nop    
 80486a9:	8d b4 26 00 00 00 00 	lea    0x0(%esi),%esi

080486b0 <sglib_SimpleList_add_if_not_member>:
 80486b0:	55                   	push   %ebp
 80486b1:	89 e5                	mov    %esp,%ebp
 80486b3:	57                   	push   %edi
 80486b4:	56                   	push   %esi
 80486b5:	53                   	push   %ebx
 80486b6:	83 ec 08             	sub    $0x8,%esp
 80486b9:	8b 7d 08             	mov    0x8(%ebp),%edi
 80486bc:	8b 75 0c             	mov    0xc(%ebp),%esi
 80486bf:	8b 1f                	mov    (%edi),%ebx
 80486c1:	85 db                	test   %ebx,%ebx
 80486c3:	75 09                	jne    80486ce <sglib_SimpleList_add_if_not_member+0x1e>
 80486c5:	eb 1e                	jmp    80486e5 <sglib_SimpleList_add_if_not_member+0x35>
 80486c7:	8b 5b 04             	mov    0x4(%ebx),%ebx
 80486ca:	85 db                	test   %ebx,%ebx
 80486cc:	74 17                	je     80486e5 <sglib_SimpleList_add_if_not_member+0x35>
 80486ce:	89 74 24 04          	mov    %esi,0x4(%esp)
 80486d2:	89 1c 24             	mov    %ebx,(%esp)
 80486d5:	e8 36 ff ff ff       	call   8048610 <myListCmp>
 80486da:	85 c0                	test   %eax,%eax
 80486dc:	75 e9                	jne    80486c7 <sglib_SimpleList_add_if_not_member+0x17>
 80486de:	8b 45 10             	mov    0x10(%ebp),%eax
 80486e1:	89 18                	mov    %ebx,(%eax)
 80486e3:	eb 10                	jmp    80486f5 <sglib_SimpleList_add_if_not_member+0x45>
 80486e5:	8b 45 10             	mov    0x10(%ebp),%eax
 80486e8:	c7 00 00 00 00 00    	movl   $0x0,(%eax)
 80486ee:	8b 07                	mov    (%edi),%eax
 80486f0:	89 46 04             	mov    %eax,0x4(%esi)
 80486f3:	89 37                	mov    %esi,(%edi)
 80486f5:	8b 45 10             	mov    0x10(%ebp),%eax
 80486f8:	8b 00                	mov    (%eax),%eax
 80486fa:	85 c0                	test   %eax,%eax
 80486fc:	0f 94 c0             	sete   %al
 80486ff:	83 c4 08             	add    $0x8,%esp
 8048702:	5b                   	pop    %ebx
 8048703:	0f b6 c0             	movzbl %al,%eax
 8048706:	5e                   	pop    %esi
 8048707:	5f                   	pop    %edi
 8048708:	5d                   	pop    %ebp
 8048709:	c3                   	ret    
 804870a:	8d b6 00 00 00 00    	lea    0x0(%esi),%esi

08048710 <sglib_SimpleList_add>:
 8048710:	55                   	push   %ebp
 8048711:	89 e5                	mov    %esp,%ebp
 8048713:	8b 4d 08             	mov    0x8(%ebp),%ecx
 8048716:	8b 55 0c             	mov    0xc(%ebp),%edx
 8048719:	8b 01                	mov    (%ecx),%eax
 804871b:	89 42 04             	mov    %eax,0x4(%edx)
 804871e:	89 11                	mov    %edx,(%ecx)
 8048720:	5d                   	pop    %ebp
 8048721:	c3                   	ret    
 8048722:	8d b4 26 00 00 00 00 	lea    0x0(%esi),%esi
 8048729:	8d bc 27 00 00 00 00 	lea    0x0(%edi),%edi

08048730 <sglib_SimpleList_concat>:
 8048730:	55                   	push   %ebp
 8048731:	89 e5                	mov    %esp,%ebp
 8048733:	8b 45 08             	mov    0x8(%ebp),%eax
 8048736:	8b 4d 0c             	mov    0xc(%ebp),%ecx
 8048739:	8b 10                	mov    (%eax),%edx
 804873b:	85 d2                	test   %edx,%edx
 804873d:	75 04                	jne    8048743 <sglib_SimpleList_concat+0x13>
 804873f:	eb 10                	jmp    8048751 <sglib_SimpleList_concat+0x21>
 8048741:	89 c2                	mov    %eax,%edx
 8048743:	8b 42 04             	mov    0x4(%edx),%eax
 8048746:	85 c0                	test   %eax,%eax
 8048748:	75 f7                	jne    8048741 <sglib_SimpleList_concat+0x11>
 804874a:	89 4a 04             	mov    %ecx,0x4(%edx)
 804874d:	5d                   	pop    %ebp
 804874e:	66 90                	xchg   %ax,%ax
 8048750:	c3                   	ret    
 8048751:	89 08                	mov    %ecx,(%eax)
 8048753:	5d                   	pop    %ebp
 8048754:	c3                   	ret    
 8048755:	8d 74 26 00          	lea    0x0(%esi),%esi
 8048759:	8d bc 27 00 00 00 00 	lea    0x0(%edi),%edi

08048760 <sglib_SimpleList_delete_if_member>:
 8048760:	55                   	push   %ebp
 8048761:	89 e5                	mov    %esp,%ebp
 8048763:	57                   	push   %edi
 8048764:	56                   	push   %esi
 8048765:	53                   	push   %ebx
 8048766:	83 ec 08             	sub    $0x8,%esp
 8048769:	8b 45 08             	mov    0x8(%ebp),%eax
 804876c:	8b 7d 0c             	mov    0xc(%ebp),%edi
 804876f:	8b 18                	mov    (%eax),%ebx
 8048771:	89 c6                	mov    %eax,%esi
 8048773:	85 db                	test   %ebx,%ebx
 8048775:	75 13                	jne    804878a <sglib_SimpleList_delete_if_member+0x2a>
 8048777:	eb 21                	jmp    804879a <sglib_SimpleList_delete_if_member+0x3a>
 8048779:	8d b4 26 00 00 00 00 	lea    0x0(%esi),%esi
 8048780:	8d 73 04             	lea    0x4(%ebx),%esi
 8048783:	8b 5b 04             	mov    0x4(%ebx),%ebx
 8048786:	85 db                	test   %ebx,%ebx
 8048788:	74 10                	je     804879a <sglib_SimpleList_delete_if_member+0x3a>
 804878a:	89 7c 24 04          	mov    %edi,0x4(%esp)
 804878e:	89 1c 24             	mov    %ebx,(%esp)
 8048791:	e8 7a fe ff ff       	call   8048610 <myListCmp>
 8048796:	85 c0                	test   %eax,%eax
 8048798:	75 e6                	jne    8048780 <sglib_SimpleList_delete_if_member+0x20>
 804879a:	8b 45 10             	mov    0x10(%ebp),%eax
 804879d:	89 18                	mov    %ebx,(%eax)
 804879f:	8b 06                	mov    (%esi),%eax
 80487a1:	85 c0                	test   %eax,%eax
 80487a3:	74 05                	je     80487aa <sglib_SimpleList_delete_if_member+0x4a>
 80487a5:	8b 40 04             	mov    0x4(%eax),%eax
 80487a8:	89 06                	mov    %eax,(%esi)
 80487aa:	8b 55 10             	mov    0x10(%ebp),%edx
 80487ad:	31 c0                	xor    %eax,%eax
 80487af:	83 3a 00             	cmpl   $0x0,(%edx)
 80487b2:	0f 95 c0             	setne  %al
 80487b5:	83 c4 08             	add    $0x8,%esp
 80487b8:	5b                   	pop    %ebx
 80487b9:	5e                   	pop    %esi
 80487ba:	5f                   	pop    %edi
 80487bb:	5d                   	pop    %ebp
 80487bc:	c3                   	ret    
 80487bd:	8d 76 00             	lea    0x0(%esi),%esi

080487c0 <sglib_SimpleList_sort>:
 80487c0:	55                   	push   %ebp
 80487c1:	89 e5                	mov    %esp,%ebp
 80487c3:	57                   	push   %edi
 80487c4:	56                   	push   %esi
 80487c5:	53                   	push   %ebx
 80487c6:	83 ec 24             	sub    $0x24,%esp
 80487c9:	8b 55 08             	mov    0x8(%ebp),%edx
 80487cc:	c7 45 dc 01 00 00 00 	movl   $0x1,0xffffffdc(%ebp)
 80487d3:	8b 02                	mov    (%edx),%eax
 80487d5:	89 45 f0             	mov    %eax,0xfffffff0(%ebp)
 80487d8:	8b 4d f0             	mov    0xfffffff0(%ebp),%ecx
 80487db:	31 c0                	xor    %eax,%eax
 80487dd:	c7 45 f0 00 00 00 00 	movl   $0x0,0xfffffff0(%ebp)
 80487e4:	85 c9                	test   %ecx,%ecx
 80487e6:	74 4a                	je     8048832 <sglib_SimpleList_sort+0x72>
 80487e8:	83 7d dc 01          	cmpl   $0x1,0xffffffdc(%ebp)
 80487ec:	89 c8                	mov    %ecx,%eax
 80487ee:	8d 7d f0             	lea    0xfffffff0(%ebp),%edi
 80487f1:	0f 9f 45 e3          	setg   0xffffffe3(%ebp)
 80487f5:	31 db                	xor    %ebx,%ebx
 80487f7:	80 7d e3 00          	cmpb   $0x0,0xffffffe3(%ebp)
 80487fb:	74 43                	je     8048840 <sglib_SimpleList_sort+0x80>
 80487fd:	85 c0                	test   %eax,%eax
 80487ff:	74 14                	je     8048815 <sglib_SimpleList_sort+0x55>
 8048801:	ba 01 00 00 00       	mov    $0x1,%edx
 8048806:	83 c2 01             	add    $0x1,%edx
 8048809:	8b 40 04             	mov    0x4(%eax),%eax
 804880c:	3b 55 dc             	cmp    0xffffffdc(%ebp),%edx
 804880f:	7d 2f                	jge    8048840 <sglib_SimpleList_sort+0x80>
 8048811:	85 c0                	test   %eax,%eax
 8048813:	75 f1                	jne    8048806 <sglib_SimpleList_sort+0x46>
 8048815:	85 db                	test   %ebx,%ebx
 8048817:	89 0f                	mov    %ecx,(%edi)
 8048819:	0f 84 ce 00 00 00    	je     80488ed <sglib_SimpleList_sort+0x12d>
 804881f:	8b 4d f0             	mov    0xfffffff0(%ebp),%ecx
 8048822:	31 c0                	xor    %eax,%eax
 8048824:	d1 65 dc             	shll   0xffffffdc(%ebp)
 8048827:	c7 45 f0 00 00 00 00 	movl   $0x0,0xfffffff0(%ebp)
 804882e:	85 c9                	test   %ecx,%ecx
 8048830:	75 b6                	jne    80487e8 <sglib_SimpleList_sort+0x28>
 8048832:	8b 55 08             	mov    0x8(%ebp),%edx
 8048835:	89 02                	mov    %eax,(%edx)
 8048837:	83 c4 24             	add    $0x24,%esp
 804883a:	5b                   	pop    %ebx
 804883b:	5e                   	pop    %esi
 804883c:	5f                   	pop    %edi
 804883d:	5d                   	pop    %ebp
 804883e:	c3                   	ret    
 804883f:	90                   	nop    
 8048840:	85 c0                	test   %eax,%eax
 8048842:	74 d1                	je     8048815 <sglib_SimpleList_sort+0x55>
 8048844:	80 7d e3 00          	cmpb   $0x0,0xffffffe3(%ebp)
 8048848:	8b 70 04             	mov    0x4(%eax),%esi
 804884b:	c7 40 04 00 00 00 00 	movl   $0x0,0x4(%eax)
 8048852:	74 6c                	je     80488c0 <sglib_SimpleList_sort+0x100>
 8048854:	85 f6                	test   %esi,%esi
 8048856:	89 f0                	mov    %esi,%eax
 8048858:	ba 01 00 00 00       	mov    $0x1,%edx
 804885d:	74 61                	je     80488c0 <sglib_SimpleList_sort+0x100>
 804885f:	83 c2 01             	add    $0x1,%edx
 8048862:	8b 40 04             	mov    0x4(%eax),%eax
 8048865:	3b 55 dc             	cmp    0xffffffdc(%ebp),%edx
 8048868:	7d 58                	jge    80488c2 <sglib_SimpleList_sort+0x102>
 804886a:	85 c0                	test   %eax,%eax
 804886c:	75 f1                	jne    804885f <sglib_SimpleList_sort+0x9f>
 804886e:	c7 45 d8 00 00 00 00 	movl   $0x0,0xffffffd8(%ebp)
 8048875:	89 cb                	mov    %ecx,%ebx
 8048877:	85 db                	test   %ebx,%ebx
 8048879:	74 25                	je     80488a0 <sglib_SimpleList_sort+0xe0>
 804887b:	85 f6                	test   %esi,%esi
 804887d:	74 56                	je     80488d5 <sglib_SimpleList_sort+0x115>
 804887f:	89 74 24 04          	mov    %esi,0x4(%esp)
 8048883:	89 1c 24             	mov    %ebx,(%esp)
 8048886:	e8 85 fd ff ff       	call   8048610 <myListCmp>
 804888b:	85 c0                	test   %eax,%eax
 804888d:	78 54                	js     80488e3 <sglib_SimpleList_sort+0x123>
 804888f:	85 db                	test   %ebx,%ebx
 8048891:	89 37                	mov    %esi,(%edi)
 8048893:	8d 7e 04             	lea    0x4(%esi),%edi
 8048896:	8b 76 04             	mov    0x4(%esi),%esi
 8048899:	75 e0                	jne    804887b <sglib_SimpleList_sort+0xbb>
 804889b:	90                   	nop    
 804889c:	8d 74 26 00          	lea    0x0(%esi),%esi
 80488a0:	85 f6                	test   %esi,%esi
 80488a2:	89 37                	mov    %esi,(%edi)
 80488a4:	75 57                	jne    80488fd <sglib_SimpleList_sort+0x13d>
 80488a6:	8b 45 d8             	mov    0xffffffd8(%ebp),%eax
 80488a9:	bb 01 00 00 00       	mov    $0x1,%ebx
 80488ae:	85 c0                	test   %eax,%eax
 80488b0:	0f 84 69 ff ff ff    	je     804881f <sglib_SimpleList_sort+0x5f>
 80488b6:	89 c1                	mov    %eax,%ecx
 80488b8:	e9 3a ff ff ff       	jmp    80487f7 <sglib_SimpleList_sort+0x37>
 80488bd:	8d 76 00             	lea    0x0(%esi),%esi
 80488c0:	89 f0                	mov    %esi,%eax
 80488c2:	85 c0                	test   %eax,%eax
 80488c4:	74 a8                	je     804886e <sglib_SimpleList_sort+0xae>
 80488c6:	8b 50 04             	mov    0x4(%eax),%edx
 80488c9:	c7 40 04 00 00 00 00 	movl   $0x0,0x4(%eax)
 80488d0:	89 55 d8             	mov    %edx,0xffffffd8(%ebp)
 80488d3:	eb a0                	jmp    8048875 <sglib_SimpleList_sort+0xb5>
 80488d5:	89 1f                	mov    %ebx,(%edi)
 80488d7:	8d 7b 04             	lea    0x4(%ebx),%edi
 80488da:	8b 5b 04             	mov    0x4(%ebx),%ebx
 80488dd:	85 db                	test   %ebx,%ebx
 80488df:	74 c5                	je     80488a6 <sglib_SimpleList_sort+0xe6>
 80488e1:	eb f4                	jmp    80488d7 <sglib_SimpleList_sort+0x117>
 80488e3:	89 1f                	mov    %ebx,(%edi)
 80488e5:	8d 7b 04             	lea    0x4(%ebx),%edi
 80488e8:	8b 5b 04             	mov    0x4(%ebx),%ebx
 80488eb:	eb 8a                	jmp    8048877 <sglib_SimpleList_sort+0xb7>
 80488ed:	8b 45 f0             	mov    0xfffffff0(%ebp),%eax
 80488f0:	8b 55 08             	mov    0x8(%ebp),%edx
 80488f3:	89 02                	mov    %eax,(%edx)
 80488f5:	83 c4 24             	add    $0x24,%esp
 80488f8:	5b                   	pop    %ebx
 80488f9:	5e                   	pop    %esi
 80488fa:	5f                   	pop    %edi
 80488fb:	5d                   	pop    %ebp
 80488fc:	c3                   	ret    
 80488fd:	89 f3                	mov    %esi,%ebx
 80488ff:	eb d6                	jmp    80488d7 <sglib_SimpleList_sort+0x117>
 8048901:	eb 0d                	jmp    8048910 <sglib_SimpleList_len>
 8048903:	90                   	nop    
 8048904:	90                   	nop    
 8048905:	90                   	nop    
 8048906:	90                   	nop    
 8048907:	90                   	nop    
 8048908:	90                   	nop    
 8048909:	90                   	nop    
 804890a:	90                   	nop    
 804890b:	90                   	nop    
 804890c:	90                   	nop    
 804890d:	90                   	nop    
 804890e:	90                   	nop    
 804890f:	90                   	nop    

08048910 <sglib_SimpleList_len>:
 8048910:	55                   	push   %ebp
 8048911:	31 d2                	xor    %edx,%edx
 8048913:	89 e5                	mov    %esp,%ebp
 8048915:	8b 45 08             	mov    0x8(%ebp),%eax
 8048918:	85 c0                	test   %eax,%eax
 804891a:	74 0e                	je     804892a <sglib_SimpleList_len+0x1a>
 804891c:	8d 74 26 00          	lea    0x0(%esi),%esi
 8048920:	8b 40 04             	mov    0x4(%eax),%eax
 8048923:	83 c2 01             	add    $0x1,%edx
 8048926:	85 c0                	test   %eax,%eax
 8048928:	75 f6                	jne    8048920 <sglib_SimpleList_len+0x10>
 804892a:	5d                   	pop    %ebp
 804892b:	89 d0                	mov    %edx,%eax
 804892d:	c3                   	ret    
 804892e:	66 90                	xchg   %ax,%ax

08048930 <sglib_SimpleList_reverse>:
 8048930:	55                   	push   %ebp
 8048931:	31 d2                	xor    %edx,%edx
 8048933:	89 e5                	mov    %esp,%ebp
 8048935:	53                   	push   %ebx
 8048936:	8b 5d 08             	mov    0x8(%ebp),%ebx
 8048939:	8b 03                	mov    (%ebx),%eax
 804893b:	85 c0                	test   %eax,%eax
 804893d:	74 14                	je     8048953 <sglib_SimpleList_reverse+0x23>
 804893f:	31 c9                	xor    %ecx,%ecx
 8048941:	eb 02                	jmp    8048945 <sglib_SimpleList_reverse+0x15>
 8048943:	89 d0                	mov    %edx,%eax
 8048945:	8b 50 04             	mov    0x4(%eax),%edx
 8048948:	89 48 04             	mov    %ecx,0x4(%eax)
 804894b:	89 c1                	mov    %eax,%ecx
 804894d:	85 d2                	test   %edx,%edx
 804894f:	75 f2                	jne    8048943 <sglib_SimpleList_reverse+0x13>
 8048951:	89 c2                	mov    %eax,%edx
 8048953:	89 13                	mov    %edx,(%ebx)
 8048955:	5b                   	pop    %ebx
 8048956:	5d                   	pop    %ebp
 8048957:	c3                   	ret    
 8048958:	90                   	nop    
 8048959:	8d b4 26 00 00 00 00 	lea    0x0(%esi),%esi

08048960 <sglib_SimpleList_it_current>:
 8048960:	55                   	push   %ebp
 8048961:	89 e5                	mov    %esp,%ebp
 8048963:	8b 45 08             	mov    0x8(%ebp),%eax
 8048966:	5d                   	pop    %ebp
 8048967:	8b 00                	mov    (%eax),%eax
 8048969:	c3                   	ret    
 804896a:	8d b6 00 00 00 00    	lea    0x0(%esi),%esi

08048970 <sglib_SimpleList_it_next>:
 8048970:	55                   	push   %ebp
 8048971:	89 e5                	mov    %esp,%ebp
 8048973:	57                   	push   %edi
 8048974:	56                   	push   %esi
 8048975:	53                   	push   %ebx
 8048976:	83 ec 0c             	sub    $0xc,%esp
 8048979:	8b 45 08             	mov    0x8(%ebp),%eax
 804897c:	8b 78 08             	mov    0x8(%eax),%edi
 804897f:	8b 58 04             	mov    0x4(%eax),%ebx
 8048982:	c7 40 04 00 00 00 00 	movl   $0x0,0x4(%eax)
 8048989:	85 ff                	test   %edi,%edi
 804898b:	74 44                	je     80489d1 <sglib_SimpleList_it_next+0x61>
 804898d:	85 db                	test   %ebx,%ebx
 804898f:	8b 70 0c             	mov    0xc(%eax),%esi
 8048992:	75 09                	jne    804899d <sglib_SimpleList_it_next+0x2d>
 8048994:	eb 2c                	jmp    80489c2 <sglib_SimpleList_it_next+0x52>
 8048996:	8b 5b 04             	mov    0x4(%ebx),%ebx
 8048999:	85 db                	test   %ebx,%ebx
 804899b:	74 25                	je     80489c2 <sglib_SimpleList_it_next+0x52>
 804899d:	89 74 24 04          	mov    %esi,0x4(%esp)
 80489a1:	89 1c 24             	mov    %ebx,(%esp)
 80489a4:	ff d7                	call   *%edi
 80489a6:	85 c0                	test   %eax,%eax
 80489a8:	75 ec                	jne    8048996 <sglib_SimpleList_it_next+0x26>
 80489aa:	8b 55 08             	mov    0x8(%ebp),%edx
 80489ad:	89 1a                	mov    %ebx,(%edx)
 80489af:	8b 43 04             	mov    0x4(%ebx),%eax
 80489b2:	8b 55 08             	mov    0x8(%ebp),%edx
 80489b5:	89 42 04             	mov    %eax,0x4(%edx)
 80489b8:	83 c4 0c             	add    $0xc,%esp
 80489bb:	89 d8                	mov    %ebx,%eax
 80489bd:	5b                   	pop    %ebx
 80489be:	5e                   	pop    %esi
 80489bf:	5f                   	pop    %edi
 80489c0:	5d                   	pop    %ebp
 80489c1:	c3                   	ret    
 80489c2:	8b 45 08             	mov    0x8(%ebp),%eax
 80489c5:	89 18                	mov    %ebx,(%eax)
 80489c7:	83 c4 0c             	add    $0xc,%esp
 80489ca:	89 d8                	mov    %ebx,%eax
 80489cc:	5b                   	pop    %ebx
 80489cd:	5e                   	pop    %esi
 80489ce:	5f                   	pop    %edi
 80489cf:	5d                   	pop    %ebp
 80489d0:	c3                   	ret    
 80489d1:	8b 55 08             	mov    0x8(%ebp),%edx
 80489d4:	85 db                	test   %ebx,%ebx
 80489d6:	89 1a                	mov    %ebx,(%edx)
 80489d8:	75 d5                	jne    80489af <sglib_SimpleList_it_next+0x3f>
 80489da:	eb dc                	jmp    80489b8 <sglib_SimpleList_it_next+0x48>
 80489dc:	8d 74 26 00          	lea    0x0(%esi),%esi

080489e0 <sglib_SimpleList_it_init_on_equal>:
 80489e0:	55                   	push   %ebp
 80489e1:	89 e5                	mov    %esp,%ebp
 80489e3:	8b 55 08             	mov    0x8(%ebp),%edx
 80489e6:	8b 45 10             	mov    0x10(%ebp),%eax
 80489e9:	89 42 08             	mov    %eax,0x8(%edx)
 80489ec:	8b 45 14             	mov    0x14(%ebp),%eax
 80489ef:	89 42 0c             	mov    %eax,0xc(%edx)
 80489f2:	8b 45 0c             	mov    0xc(%ebp),%eax
 80489f5:	89 42 04             	mov    %eax,0x4(%edx)
 80489f8:	5d                   	pop    %ebp
 80489f9:	e9 72 ff ff ff       	jmp    8048970 <sglib_SimpleList_it_next>
 80489fe:	66 90                	xchg   %ax,%ax

08048a00 <sglib_SimpleList_it_init>:
 8048a00:	55                   	push   %ebp
 8048a01:	89 e5                	mov    %esp,%ebp
 8048a03:	83 ec 18             	sub    $0x18,%esp
 8048a06:	8b 45 0c             	mov    0xc(%ebp),%eax
 8048a09:	c7 44 24 0c 00 00 00 	movl   $0x0,0xc(%esp)
 8048a10:	00 
 8048a11:	c7 44 24 08 00 00 00 	movl   $0x0,0x8(%esp)
 8048a18:	00 
 8048a19:	89 44 24 04          	mov    %eax,0x4(%esp)
 8048a1d:	8b 45 08             	mov    0x8(%ebp),%eax
 8048a20:	89 04 24             	mov    %eax,(%esp)
 8048a23:	e8 b8 ff ff ff       	call   80489e0 <sglib_SimpleList_it_init_on_equal>
 8048a28:	c9                   	leave  
 8048a29:	c3                   	ret    
 8048a2a:	8d b6 00 00 00 00    	lea    0x0(%esi),%esi

08048a30 <sglib_DoubleLinkedList_add>:
 8048a30:	55                   	push   %ebp
 8048a31:	89 e5                	mov    %esp,%ebp
 8048a33:	8b 4d 08             	mov    0x8(%ebp),%ecx
 8048a36:	8b 55 0c             	mov    0xc(%ebp),%edx
 8048a39:	8b 01                	mov    (%ecx),%eax
 8048a3b:	85 c0                	test   %eax,%eax
 8048a3d:	74 21                	je     8048a60 <sglib_DoubleLinkedList_add+0x30>
 8048a3f:	89 42 04             	mov    %eax,0x4(%edx)
 8048a42:	8b 01                	mov    (%ecx),%eax
 8048a44:	8b 40 08             	mov    0x8(%eax),%eax
 8048a47:	89 42 08             	mov    %eax,0x8(%edx)
 8048a4a:	8b 01                	mov    (%ecx),%eax
 8048a4c:	89 50 08             	mov    %edx,0x8(%eax)
 8048a4f:	8b 42 08             	mov    0x8(%edx),%eax
 8048a52:	85 c0                	test   %eax,%eax
 8048a54:	74 03                	je     8048a59 <sglib_DoubleLinkedList_add+0x29>
 8048a56:	89 50 04             	mov    %edx,0x4(%eax)
 8048a59:	5d                   	pop    %ebp
 8048a5a:	c3                   	ret    
 8048a5b:	90                   	nop    
 8048a5c:	8d 74 26 00          	lea    0x0(%esi),%esi
 8048a60:	89 11                	mov    %edx,(%ecx)
 8048a62:	c7 42 08 00 00 00 00 	movl   $0x0,0x8(%edx)
 8048a69:	c7 42 04 00 00 00 00 	movl   $0x0,0x4(%edx)
 8048a70:	5d                   	pop    %ebp
 8048a71:	c3                   	ret    
 8048a72:	8d b4 26 00 00 00 00 	lea    0x0(%esi),%esi
 8048a79:	8d bc 27 00 00 00 00 	lea    0x0(%edi),%edi

08048a80 <sglib_DoubleLinkedList_add_after>:
 8048a80:	55                   	push   %ebp
 8048a81:	89 e5                	mov    %esp,%ebp
 8048a83:	8b 4d 08             	mov    0x8(%ebp),%ecx
 8048a86:	8b 55 0c             	mov    0xc(%ebp),%edx
 8048a89:	8b 01                	mov    (%ecx),%eax
 8048a8b:	85 c0                	test   %eax,%eax
 8048a8d:	74 21                	je     8048ab0 <sglib_DoubleLinkedList_add_after+0x30>
 8048a8f:	8b 40 04             	mov    0x4(%eax),%eax
 8048a92:	89 42 04             	mov    %eax,0x4(%edx)
 8048a95:	8b 01                	mov    (%ecx),%eax
 8048a97:	89 42 08             	mov    %eax,0x8(%edx)
 8048a9a:	8b 01                	mov    (%ecx),%eax
 8048a9c:	89 50 04             	mov    %edx,0x4(%eax)
 8048a9f:	8b 42 04             	mov    0x4(%edx),%eax
 8048aa2:	85 c0                	test   %eax,%eax
 8048aa4:	74 03                	je     8048aa9 <sglib_DoubleLinkedList_add_after+0x29>
 8048aa6:	89 50 08             	mov    %edx,0x8(%eax)
 8048aa9:	5d                   	pop    %ebp
 8048aaa:	c3                   	ret    
 8048aab:	90                   	nop    
 8048aac:	8d 74 26 00          	lea    0x0(%esi),%esi
 8048ab0:	89 11                	mov    %edx,(%ecx)
 8048ab2:	c7 42 08 00 00 00 00 	movl   $0x0,0x8(%edx)
 8048ab9:	c7 42 04 00 00 00 00 	movl   $0x0,0x4(%edx)
 8048ac0:	5d                   	pop    %ebp
 8048ac1:	c3                   	ret    
 8048ac2:	8d b4 26 00 00 00 00 	lea    0x0(%esi),%esi
 8048ac9:	8d bc 27 00 00 00 00 	lea    0x0(%edi),%edi

08048ad0 <sglib_DoubleLinkedList_add_before>:
 8048ad0:	55                   	push   %ebp
 8048ad1:	89 e5                	mov    %esp,%ebp
 8048ad3:	8b 4d 08             	mov    0x8(%ebp),%ecx
 8048ad6:	8b 55 0c             	mov    0xc(%ebp),%edx
 8048ad9:	8b 01                	mov    (%ecx),%eax
 8048adb:	85 c0                	test   %eax,%eax
 8048add:	74 21                	je     8048b00 <sglib_DoubleLinkedList_add_before+0x30>
 8048adf:	89 42 04             	mov    %eax,0x4(%edx)
 8048ae2:	8b 01                	mov    (%ecx),%eax
 8048ae4:	8b 40 08             	mov    0x8(%eax),%eax
 8048ae7:	89 42 08             	mov    %eax,0x8(%edx)
 8048aea:	8b 01                	mov    (%ecx),%eax
 8048aec:	89 50 08             	mov    %edx,0x8(%eax)
 8048aef:	8b 42 08             	mov    0x8(%edx),%eax
 8048af2:	85 c0                	test   %eax,%eax
 8048af4:	74 03                	je     8048af9 <sglib_DoubleLinkedList_add_before+0x29>
 8048af6:	89 50 04             	mov    %edx,0x4(%eax)
 8048af9:	5d                   	pop    %ebp
 8048afa:	c3                   	ret    
 8048afb:	90                   	nop    
 8048afc:	8d 74 26 00          	lea    0x0(%esi),%esi
 8048b00:	89 11                	mov    %edx,(%ecx)
 8048b02:	c7 42 08 00 00 00 00 	movl   $0x0,0x8(%edx)
 8048b09:	c7 42 04 00 00 00 00 	movl   $0x0,0x4(%edx)
 8048b10:	5d                   	pop    %ebp
 8048b11:	c3                   	ret    
 8048b12:	8d b4 26 00 00 00 00 	lea    0x0(%esi),%esi
 8048b19:	8d bc 27 00 00 00 00 	lea    0x0(%edi),%edi

08048b20 <sglib_DoubleLinkedList_add_if_not_member>:
 8048b20:	55                   	push   %ebp
 8048b21:	89 e5                	mov    %esp,%ebp
 8048b23:	57                   	push   %edi
 8048b24:	56                   	push   %esi
 8048b25:	53                   	push   %ebx
 8048b26:	83 ec 08             	sub    $0x8,%esp
 8048b29:	8b 45 08             	mov    0x8(%ebp),%eax
 8048b2c:	8b 7d 0c             	mov    0xc(%ebp),%edi
 8048b2f:	8b 30                	mov    (%eax),%esi
 8048b31:	85 f6                	test   %esi,%esi
 8048b33:	89 f3                	mov    %esi,%ebx
 8048b35:	75 10                	jne    8048b47 <sglib_DoubleLinkedList_add_if_not_member+0x27>
 8048b37:	eb 53                	jmp    8048b8c <sglib_DoubleLinkedList_add_if_not_member+0x6c>
 8048b39:	8d b4 26 00 00 00 00 	lea    0x0(%esi),%esi
 8048b40:	8b 5b 08             	mov    0x8(%ebx),%ebx
 8048b43:	85 db                	test   %ebx,%ebx
 8048b45:	74 3e                	je     8048b85 <sglib_DoubleLinkedList_add_if_not_member+0x65>
 8048b47:	89 7c 24 04          	mov    %edi,0x4(%esp)
 8048b4b:	89 1c 24             	mov    %ebx,(%esp)
 8048b4e:	e8 bd fa ff ff       	call   8048610 <myListCmp>
 8048b53:	85 c0                	test   %eax,%eax
 8048b55:	75 e9                	jne    8048b40 <sglib_DoubleLinkedList_add_if_not_member+0x20>
 8048b57:	8b 55 10             	mov    0x10(%ebp),%edx
 8048b5a:	85 db                	test   %ebx,%ebx
 8048b5c:	89 1a                	mov    %ebx,(%edx)
 8048b5e:	74 31                	je     8048b91 <sglib_DoubleLinkedList_add_if_not_member+0x71>
 8048b60:	8b 45 10             	mov    0x10(%ebp),%eax
 8048b63:	8b 10                	mov    (%eax),%edx
 8048b65:	85 d2                	test   %edx,%edx
 8048b67:	0f 94 c0             	sete   %al
 8048b6a:	83 c4 08             	add    $0x8,%esp
 8048b6d:	5b                   	pop    %ebx
 8048b6e:	0f b6 c0             	movzbl %al,%eax
 8048b71:	5e                   	pop    %esi
 8048b72:	5f                   	pop    %edi
 8048b73:	5d                   	pop    %ebp
 8048b74:	c3                   	ret    
 8048b75:	89 7c 24 04          	mov    %edi,0x4(%esp)
 8048b79:	89 34 24             	mov    %esi,(%esp)
 8048b7c:	e8 8f fa ff ff       	call   8048610 <myListCmp>
 8048b81:	85 c0                	test   %eax,%eax
 8048b83:	74 34                	je     8048bb9 <sglib_DoubleLinkedList_add_if_not_member+0x99>
 8048b85:	8b 76 04             	mov    0x4(%esi),%esi
 8048b88:	85 f6                	test   %esi,%esi
 8048b8a:	75 e9                	jne    8048b75 <sglib_DoubleLinkedList_add_if_not_member+0x55>
 8048b8c:	8b 55 10             	mov    0x10(%ebp),%edx
 8048b8f:	89 32                	mov    %esi,(%edx)
 8048b91:	8b 55 08             	mov    0x8(%ebp),%edx
 8048b94:	8b 02                	mov    (%edx),%eax
 8048b96:	85 c0                	test   %eax,%eax
 8048b98:	74 26                	je     8048bc0 <sglib_DoubleLinkedList_add_if_not_member+0xa0>
 8048b9a:	8b 55 08             	mov    0x8(%ebp),%edx
 8048b9d:	89 47 04             	mov    %eax,0x4(%edi)
 8048ba0:	8b 02                	mov    (%edx),%eax
 8048ba2:	8b 40 08             	mov    0x8(%eax),%eax
 8048ba5:	89 47 08             	mov    %eax,0x8(%edi)
 8048ba8:	8b 02                	mov    (%edx),%eax
 8048baa:	89 78 08             	mov    %edi,0x8(%eax)
 8048bad:	8b 47 08             	mov    0x8(%edi),%eax
 8048bb0:	85 c0                	test   %eax,%eax
 8048bb2:	74 ac                	je     8048b60 <sglib_DoubleLinkedList_add_if_not_member+0x40>
 8048bb4:	89 78 04             	mov    %edi,0x4(%eax)
 8048bb7:	eb a7                	jmp    8048b60 <sglib_DoubleLinkedList_add_if_not_member+0x40>
 8048bb9:	8b 45 10             	mov    0x10(%ebp),%eax
 8048bbc:	89 30                	mov    %esi,(%eax)
 8048bbe:	eb a0                	jmp    8048b60 <sglib_DoubleLinkedList_add_if_not_member+0x40>
 8048bc0:	89 3a                	mov    %edi,(%edx)
 8048bc2:	c7 47 08 00 00 00 00 	movl   $0x0,0x8(%edi)
 8048bc9:	c7 47 04 00 00 00 00 	movl   $0x0,0x4(%edi)
 8048bd0:	eb 8e                	jmp    8048b60 <sglib_DoubleLinkedList_add_if_not_member+0x40>
 8048bd2:	8d b4 26 00 00 00 00 	lea    0x0(%esi),%esi
 8048bd9:	8d bc 27 00 00 00 00 	lea    0x0(%edi),%edi

08048be0 <sglib_DoubleLinkedList_add_after_if_not_member>:
 8048be0:	55                   	push   %ebp
 8048be1:	89 e5                	mov    %esp,%ebp
 8048be3:	57                   	push   %edi
 8048be4:	56                   	push   %esi
 8048be5:	53                   	push   %ebx
 8048be6:	83 ec 08             	sub    $0x8,%esp
 8048be9:	8b 45 08             	mov    0x8(%ebp),%eax
 8048bec:	8b 7d 0c             	mov    0xc(%ebp),%edi
 8048bef:	8b 30                	mov    (%eax),%esi
 8048bf1:	85 f6                	test   %esi,%esi
 8048bf3:	89 f3                	mov    %esi,%ebx
 8048bf5:	75 10                	jne    8048c07 <sglib_DoubleLinkedList_add_after_if_not_member+0x27>
 8048bf7:	eb 53                	jmp    8048c4c <sglib_DoubleLinkedList_add_after_if_not_member+0x6c>
 8048bf9:	8d b4 26 00 00 00 00 	lea    0x0(%esi),%esi
 8048c00:	8b 5b 08             	mov    0x8(%ebx),%ebx
 8048c03:	85 db                	test   %ebx,%ebx
 8048c05:	74 3e                	je     8048c45 <sglib_DoubleLinkedList_add_after_if_not_member+0x65>
 8048c07:	89 7c 24 04          	mov    %edi,0x4(%esp)
 8048c0b:	89 1c 24             	mov    %ebx,(%esp)
 8048c0e:	e8 fd f9 ff ff       	call   8048610 <myListCmp>
 8048c13:	85 c0                	test   %eax,%eax
 8048c15:	75 e9                	jne    8048c00 <sglib_DoubleLinkedList_add_after_if_not_member+0x20>
 8048c17:	8b 55 10             	mov    0x10(%ebp),%edx
 8048c1a:	85 db                	test   %ebx,%ebx
 8048c1c:	89 1a                	mov    %ebx,(%edx)
 8048c1e:	74 31                	je     8048c51 <sglib_DoubleLinkedList_add_after_if_not_member+0x71>
 8048c20:	8b 45 10             	mov    0x10(%ebp),%eax
 8048c23:	8b 08                	mov    (%eax),%ecx
 8048c25:	85 c9                	test   %ecx,%ecx
 8048c27:	0f 94 c0             	sete   %al
 8048c2a:	83 c4 08             	add    $0x8,%esp
 8048c2d:	5b                   	pop    %ebx
 8048c2e:	0f b6 c0             	movzbl %al,%eax
 8048c31:	5e                   	pop    %esi
 8048c32:	5f                   	pop    %edi
 8048c33:	5d                   	pop    %ebp
 8048c34:	c3                   	ret    
 8048c35:	89 7c 24 04          	mov    %edi,0x4(%esp)
 8048c39:	89 34 24             	mov    %esi,(%esp)
 8048c3c:	e8 cf f9 ff ff       	call   8048610 <myListCmp>
 8048c41:	85 c0                	test   %eax,%eax
 8048c43:	74 34                	je     8048c79 <sglib_DoubleLinkedList_add_after_if_not_member+0x99>
 8048c45:	8b 76 04             	mov    0x4(%esi),%esi
 8048c48:	85 f6                	test   %esi,%esi
 8048c4a:	75 e9                	jne    8048c35 <sglib_DoubleLinkedList_add_after_if_not_member+0x55>
 8048c4c:	8b 55 10             	mov    0x10(%ebp),%edx
 8048c4f:	89 32                	mov    %esi,(%edx)
 8048c51:	8b 55 08             	mov    0x8(%ebp),%edx
 8048c54:	8b 02                	mov    (%edx),%eax
 8048c56:	85 c0                	test   %eax,%eax
 8048c58:	74 26                	je     8048c80 <sglib_DoubleLinkedList_add_after_if_not_member+0xa0>
 8048c5a:	8b 40 04             	mov    0x4(%eax),%eax
 8048c5d:	8b 55 08             	mov    0x8(%ebp),%edx
 8048c60:	89 47 04             	mov    %eax,0x4(%edi)
 8048c63:	8b 02                	mov    (%edx),%eax
 8048c65:	89 47 08             	mov    %eax,0x8(%edi)
 8048c68:	8b 02                	mov    (%edx),%eax
 8048c6a:	89 78 04             	mov    %edi,0x4(%eax)
 8048c6d:	8b 47 04             	mov    0x4(%edi),%eax
 8048c70:	85 c0                	test   %eax,%eax
 8048c72:	74 ac                	je     8048c20 <sglib_DoubleLinkedList_add_after_if_not_member+0x40>
 8048c74:	89 78 08             	mov    %edi,0x8(%eax)
 8048c77:	eb a7                	jmp    8048c20 <sglib_DoubleLinkedList_add_after_if_not_member+0x40>
 8048c79:	8b 45 10             	mov    0x10(%ebp),%eax
 8048c7c:	89 30                	mov    %esi,(%eax)
 8048c7e:	eb a0                	jmp    8048c20 <sglib_DoubleLinkedList_add_after_if_not_member+0x40>
 8048c80:	89 3a                	mov    %edi,(%edx)
 8048c82:	c7 47 08 00 00 00 00 	movl   $0x0,0x8(%edi)
 8048c89:	c7 47 04 00 00 00 00 	movl   $0x0,0x4(%edi)
 8048c90:	eb 8e                	jmp    8048c20 <sglib_DoubleLinkedList_add_after_if_not_member+0x40>
 8048c92:	8d b4 26 00 00 00 00 	lea    0x0(%esi),%esi
 8048c99:	8d bc 27 00 00 00 00 	lea    0x0(%edi),%edi

08048ca0 <sglib_DoubleLinkedList_add_before_if_not_member>:
 8048ca0:	55                   	push   %ebp
 8048ca1:	89 e5                	mov    %esp,%ebp
 8048ca3:	57                   	push   %edi
 8048ca4:	56                   	push   %esi
 8048ca5:	53                   	push   %ebx
 8048ca6:	83 ec 08             	sub    $0x8,%esp
 8048ca9:	8b 45 08             	mov    0x8(%ebp),%eax
 8048cac:	8b 7d 0c             	mov    0xc(%ebp),%edi
 8048caf:	8b 30                	mov    (%eax),%esi
 8048cb1:	85 f6                	test   %esi,%esi
 8048cb3:	89 f3                	mov    %esi,%ebx
 8048cb5:	75 10                	jne    8048cc7 <sglib_DoubleLinkedList_add_before_if_not_member+0x27>
 8048cb7:	eb 53                	jmp    8048d0c <sglib_DoubleLinkedList_add_before_if_not_member+0x6c>
 8048cb9:	8d b4 26 00 00 00 00 	lea    0x0(%esi),%esi
 8048cc0:	8b 5b 08             	mov    0x8(%ebx),%ebx
 8048cc3:	85 db                	test   %ebx,%ebx
 8048cc5:	74 3e                	je     8048d05 <sglib_DoubleLinkedList_add_before_if_not_member+0x65>
 8048cc7:	89 7c 24 04          	mov    %edi,0x4(%esp)
 8048ccb:	89 1c 24             	mov    %ebx,(%esp)
 8048cce:	e8 3d f9 ff ff       	call   8048610 <myListCmp>
 8048cd3:	85 c0                	test   %eax,%eax
 8048cd5:	75 e9                	jne    8048cc0 <sglib_DoubleLinkedList_add_before_if_not_member+0x20>
 8048cd7:	8b 55 10             	mov    0x10(%ebp),%edx
 8048cda:	85 db                	test   %ebx,%ebx
 8048cdc:	89 1a                	mov    %ebx,(%edx)
 8048cde:	74 31                	je     8048d11 <sglib_DoubleLinkedList_add_before_if_not_member+0x71>
 8048ce0:	8b 45 10             	mov    0x10(%ebp),%eax
 8048ce3:	8b 18                	mov    (%eax),%ebx
 8048ce5:	85 db                	test   %ebx,%ebx
 8048ce7:	0f 94 c0             	sete   %al
 8048cea:	83 c4 08             	add    $0x8,%esp
 8048ced:	5b                   	pop    %ebx
 8048cee:	0f b6 c0             	movzbl %al,%eax
 8048cf1:	5e                   	pop    %esi
 8048cf2:	5f                   	pop    %edi
 8048cf3:	5d                   	pop    %ebp
 8048cf4:	c3                   	ret    
 8048cf5:	89 7c 24 04          	mov    %edi,0x4(%esp)
 8048cf9:	89 34 24             	mov    %esi,(%esp)
 8048cfc:	e8 0f f9 ff ff       	call   8048610 <myListCmp>
 8048d01:	85 c0                	test   %eax,%eax
 8048d03:	74 34                	je     8048d39 <sglib_DoubleLinkedList_add_before_if_not_member+0x99>
 8048d05:	8b 76 04             	mov    0x4(%esi),%esi
 8048d08:	85 f6                	test   %esi,%esi
 8048d0a:	75 e9                	jne    8048cf5 <sglib_DoubleLinkedList_add_before_if_not_member+0x55>
 8048d0c:	8b 55 10             	mov    0x10(%ebp),%edx
 8048d0f:	89 32                	mov    %esi,(%edx)
 8048d11:	8b 55 08             	mov    0x8(%ebp),%edx
 8048d14:	8b 02                	mov    (%edx),%eax
 8048d16:	85 c0                	test   %eax,%eax
 8048d18:	74 26                	je     8048d40 <sglib_DoubleLinkedList_add_before_if_not_member+0xa0>
 8048d1a:	8b 55 08             	mov    0x8(%ebp),%edx
 8048d1d:	89 47 04             	mov    %eax,0x4(%edi)
 8048d20:	8b 02                	mov    (%edx),%eax
 8048d22:	8b 40 08             	mov    0x8(%eax),%eax
 8048d25:	89 47 08             	mov    %eax,0x8(%edi)
 8048d28:	8b 02                	mov    (%edx),%eax
 8048d2a:	89 78 08             	mov    %edi,0x8(%eax)
 8048d2d:	8b 47 08             	mov    0x8(%edi),%eax
 8048d30:	85 c0                	test   %eax,%eax
 8048d32:	74 ac                	je     8048ce0 <sglib_DoubleLinkedList_add_before_if_not_member+0x40>
 8048d34:	89 78 04             	mov    %edi,0x4(%eax)
 8048d37:	eb a7                	jmp    8048ce0 <sglib_DoubleLinkedList_add_before_if_not_member+0x40>
 8048d39:	8b 45 10             	mov    0x10(%ebp),%eax
 8048d3c:	89 30                	mov    %esi,(%eax)
 8048d3e:	eb a0                	jmp    8048ce0 <sglib_DoubleLinkedList_add_before_if_not_member+0x40>
 8048d40:	89 3a                	mov    %edi,(%edx)
 8048d42:	c7 47 08 00 00 00 00 	movl   $0x0,0x8(%edi)
 8048d49:	c7 47 04 00 00 00 00 	movl   $0x0,0x4(%edi)
 8048d50:	eb 8e                	jmp    8048ce0 <sglib_DoubleLinkedList_add_before_if_not_member+0x40>
 8048d52:	8d b4 26 00 00 00 00 	lea    0x0(%esi),%esi
 8048d59:	8d bc 27 00 00 00 00 	lea    0x0(%edi),%edi

08048d60 <sglib_DoubleLinkedList_concat>:
 8048d60:	55                   	push   %ebp
 8048d61:	89 e5                	mov    %esp,%ebp
 8048d63:	8b 45 08             	mov    0x8(%ebp),%eax
 8048d66:	8b 4d 0c             	mov    0xc(%ebp),%ecx
 8048d69:	8b 10                	mov    (%eax),%edx
 8048d6b:	85 d2                	test   %edx,%edx
 8048d6d:	74 28                	je     8048d97 <sglib_DoubleLinkedList_concat+0x37>
 8048d6f:	85 c9                	test   %ecx,%ecx
 8048d71:	75 04                	jne    8048d77 <sglib_DoubleLinkedList_concat+0x17>
 8048d73:	eb 20                	jmp    8048d95 <sglib_DoubleLinkedList_concat+0x35>
 8048d75:	89 c2                	mov    %eax,%edx
 8048d77:	8b 42 04             	mov    0x4(%edx),%eax
 8048d7a:	85 c0                	test   %eax,%eax
 8048d7c:	75 f7                	jne    8048d75 <sglib_DoubleLinkedList_concat+0x15>
 8048d7e:	c7 41 04 00 00 00 00 	movl   $0x0,0x4(%ecx)
 8048d85:	89 4a 04             	mov    %ecx,0x4(%edx)
 8048d88:	8b 41 04             	mov    0x4(%ecx),%eax
 8048d8b:	89 51 08             	mov    %edx,0x8(%ecx)
 8048d8e:	85 c0                	test   %eax,%eax
 8048d90:	74 03                	je     8048d95 <sglib_DoubleLinkedList_concat+0x35>
 8048d92:	89 48 08             	mov    %ecx,0x8(%eax)
 8048d95:	5d                   	pop    %ebp
 8048d96:	c3                   	ret    
 8048d97:	89 08                	mov    %ecx,(%eax)
 8048d99:	5d                   	pop    %ebp
 8048d9a:	c3                   	ret    
 8048d9b:	90                   	nop    
 8048d9c:	8d 74 26 00          	lea    0x0(%esi),%esi

08048da0 <sglib_DoubleLinkedList_delete>:
 8048da0:	55                   	push   %ebp
 8048da1:	89 e5                	mov    %esp,%ebp
 8048da3:	83 ec 08             	sub    $0x8,%esp
 8048da6:	89 74 24 04          	mov    %esi,0x4(%esp)
 8048daa:	8b 75 08             	mov    0x8(%ebp),%esi
 8048dad:	89 1c 24             	mov    %ebx,(%esp)
 8048db0:	8b 5d 0c             	mov    0xc(%ebp),%ebx
 8048db3:	8b 0e                	mov    (%esi),%ecx
 8048db5:	39 d9                	cmp    %ebx,%ecx
 8048db7:	74 27                	je     8048de0 <sglib_DoubleLinkedList_delete+0x40>
 8048db9:	8b 53 04             	mov    0x4(%ebx),%edx
 8048dbc:	85 d2                	test   %edx,%edx
 8048dbe:	74 06                	je     8048dc6 <sglib_DoubleLinkedList_delete+0x26>
 8048dc0:	8b 43 08             	mov    0x8(%ebx),%eax
 8048dc3:	89 42 08             	mov    %eax,0x8(%edx)
 8048dc6:	8b 43 08             	mov    0x8(%ebx),%eax
 8048dc9:	85 c0                	test   %eax,%eax
 8048dcb:	74 03                	je     8048dd0 <sglib_DoubleLinkedList_delete+0x30>
 8048dcd:	89 50 04             	mov    %edx,0x4(%eax)
 8048dd0:	89 0e                	mov    %ecx,(%esi)
 8048dd2:	8b 1c 24             	mov    (%esp),%ebx
 8048dd5:	8b 74 24 04          	mov    0x4(%esp),%esi
 8048dd9:	89 ec                	mov    %ebp,%esp
 8048ddb:	5d                   	pop    %ebp
 8048ddc:	c3                   	ret    
 8048ddd:	8d 76 00             	lea    0x0(%esi),%esi
 8048de0:	8b 41 08             	mov    0x8(%ecx),%eax
 8048de3:	85 c0                	test   %eax,%eax
 8048de5:	74 04                	je     8048deb <sglib_DoubleLinkedList_delete+0x4b>
 8048de7:	89 c1                	mov    %eax,%ecx
 8048de9:	eb ce                	jmp    8048db9 <sglib_DoubleLinkedList_delete+0x19>
 8048deb:	8b 49 04             	mov    0x4(%ecx),%ecx
 8048dee:	66 90                	xchg   %ax,%ax
 8048df0:	eb c7                	jmp    8048db9 <sglib_DoubleLinkedList_delete+0x19>
 8048df2:	8d b4 26 00 00 00 00 	lea    0x0(%esi),%esi
 8048df9:	8d bc 27 00 00 00 00 	lea    0x0(%edi),%edi

08048e00 <sglib_DoubleLinkedList_delete_if_member>:
 8048e00:	55                   	push   %ebp
 8048e01:	89 e5                	mov    %esp,%ebp
 8048e03:	57                   	push   %edi
 8048e04:	56                   	push   %esi
 8048e05:	53                   	push   %ebx
 8048e06:	83 ec 08             	sub    $0x8,%esp
 8048e09:	8b 45 08             	mov    0x8(%ebp),%eax
 8048e0c:	8b 7d 0c             	mov    0xc(%ebp),%edi
 8048e0f:	8b 30                	mov    (%eax),%esi
 8048e11:	85 f6                	test   %esi,%esi
 8048e13:	89 f3                	mov    %esi,%ebx
 8048e15:	75 10                	jne    8048e27 <sglib_DoubleLinkedList_delete_if_member+0x27>
 8048e17:	eb 7e                	jmp    8048e97 <sglib_DoubleLinkedList_delete_if_member+0x97>
 8048e19:	8d b4 26 00 00 00 00 	lea    0x0(%esi),%esi
 8048e20:	8b 5b 08             	mov    0x8(%ebx),%ebx
 8048e23:	85 db                	test   %ebx,%ebx
 8048e25:	74 69                	je     8048e90 <sglib_DoubleLinkedList_delete_if_member+0x90>
 8048e27:	89 7c 24 04          	mov    %edi,0x4(%esp)
 8048e2b:	89 1c 24             	mov    %ebx,(%esp)
 8048e2e:	e8 dd f7 ff ff       	call   8048610 <myListCmp>
 8048e33:	85 c0                	test   %eax,%eax
 8048e35:	75 e9                	jne    8048e20 <sglib_DoubleLinkedList_delete_if_member+0x20>
 8048e37:	8b 45 10             	mov    0x10(%ebp),%eax
 8048e3a:	85 db                	test   %ebx,%ebx
 8048e3c:	89 18                	mov    %ebx,(%eax)
 8048e3e:	74 25                	je     8048e65 <sglib_DoubleLinkedList_delete_if_member+0x65>
 8048e40:	8b 45 08             	mov    0x8(%ebp),%eax
 8048e43:	8b 08                	mov    (%eax),%ecx
 8048e45:	39 d9                	cmp    %ebx,%ecx
 8048e47:	74 65                	je     8048eae <sglib_DoubleLinkedList_delete_if_member+0xae>
 8048e49:	8b 43 08             	mov    0x8(%ebx),%eax
 8048e4c:	8b 53 04             	mov    0x4(%ebx),%edx
 8048e4f:	85 d2                	test   %edx,%edx
 8048e51:	74 06                	je     8048e59 <sglib_DoubleLinkedList_delete_if_member+0x59>
 8048e53:	89 42 08             	mov    %eax,0x8(%edx)
 8048e56:	8b 43 08             	mov    0x8(%ebx),%eax
 8048e59:	85 c0                	test   %eax,%eax
 8048e5b:	74 03                	je     8048e60 <sglib_DoubleLinkedList_delete_if_member+0x60>
 8048e5d:	89 50 04             	mov    %edx,0x4(%eax)
 8048e60:	8b 45 08             	mov    0x8(%ebp),%eax
 8048e63:	89 08                	mov    %ecx,(%eax)
 8048e65:	8b 45 10             	mov    0x10(%ebp),%eax
 8048e68:	8b 30                	mov    (%eax),%esi
 8048e6a:	85 f6                	test   %esi,%esi
 8048e6c:	0f 95 c0             	setne  %al
 8048e6f:	83 c4 08             	add    $0x8,%esp
 8048e72:	5b                   	pop    %ebx
 8048e73:	0f b6 c0             	movzbl %al,%eax
 8048e76:	5e                   	pop    %esi
 8048e77:	5f                   	pop    %edi
 8048e78:	5d                   	pop    %ebp
 8048e79:	c3                   	ret    
 8048e7a:	8d b6 00 00 00 00    	lea    0x0(%esi),%esi
 8048e80:	89 7c 24 04          	mov    %edi,0x4(%esp)
 8048e84:	89 34 24             	mov    %esi,(%esp)
 8048e87:	e8 84 f7 ff ff       	call   8048610 <myListCmp>
 8048e8c:	85 c0                	test   %eax,%eax
 8048e8e:	74 0e                	je     8048e9e <sglib_DoubleLinkedList_delete_if_member+0x9e>
 8048e90:	8b 76 04             	mov    0x4(%esi),%esi
 8048e93:	85 f6                	test   %esi,%esi
 8048e95:	75 e9                	jne    8048e80 <sglib_DoubleLinkedList_delete_if_member+0x80>
 8048e97:	8b 45 10             	mov    0x10(%ebp),%eax
 8048e9a:	89 30                	mov    %esi,(%eax)
 8048e9c:	eb c7                	jmp    8048e65 <sglib_DoubleLinkedList_delete_if_member+0x65>
 8048e9e:	8b 45 10             	mov    0x10(%ebp),%eax
 8048ea1:	89 f3                	mov    %esi,%ebx
 8048ea3:	89 30                	mov    %esi,(%eax)
 8048ea5:	8b 45 08             	mov    0x8(%ebp),%eax
 8048ea8:	8b 08                	mov    (%eax),%ecx
 8048eaa:	39 d9                	cmp    %ebx,%ecx
 8048eac:	75 9b                	jne    8048e49 <sglib_DoubleLinkedList_delete_if_member+0x49>
 8048eae:	8b 43 08             	mov    0x8(%ebx),%eax
 8048eb1:	85 c0                	test   %eax,%eax
 8048eb3:	74 07                	je     8048ebc <sglib_DoubleLinkedList_delete_if_member+0xbc>
 8048eb5:	8b 53 04             	mov    0x4(%ebx),%edx
 8048eb8:	89 c1                	mov    %eax,%ecx
 8048eba:	eb 93                	jmp    8048e4f <sglib_DoubleLinkedList_delete_if_member+0x4f>
 8048ebc:	8b 4b 04             	mov    0x4(%ebx),%ecx
 8048ebf:	89 ca                	mov    %ecx,%edx
 8048ec1:	eb 8c                	jmp    8048e4f <sglib_DoubleLinkedList_delete_if_member+0x4f>
 8048ec3:	8d b6 00 00 00 00    	lea    0x0(%esi),%esi
 8048ec9:	8d bc 27 00 00 00 00 	lea    0x0(%edi),%edi

08048ed0 <sglib_DoubleLinkedList_is_member>:
 8048ed0:	55                   	push   %ebp
 8048ed1:	89 e5                	mov    %esp,%ebp
 8048ed3:	8b 55 08             	mov    0x8(%ebp),%edx
 8048ed6:	53                   	push   %ebx
 8048ed7:	8b 5d 0c             	mov    0xc(%ebp),%ebx
 8048eda:	85 d2                	test   %edx,%edx
 8048edc:	0f 95 c1             	setne  %cl
 8048edf:	84 c9                	test   %cl,%cl
 8048ee1:	74 4d                	je     8048f30 <sglib_DoubleLinkedList_is_member+0x60>
 8048ee3:	39 da                	cmp    %ebx,%edx
 8048ee5:	89 d0                	mov    %edx,%eax
 8048ee7:	74 47                	je     8048f30 <sglib_DoubleLinkedList_is_member+0x60>
 8048ee9:	8b 40 08             	mov    0x8(%eax),%eax
 8048eec:	85 c0                	test   %eax,%eax
 8048eee:	74 04                	je     8048ef4 <sglib_DoubleLinkedList_is_member+0x24>
 8048ef0:	39 c3                	cmp    %eax,%ebx
 8048ef2:	75 f5                	jne    8048ee9 <sglib_DoubleLinkedList_is_member+0x19>
 8048ef4:	85 c0                	test   %eax,%eax
 8048ef6:	0f 95 c0             	setne  %al
 8048ef9:	0f b6 c0             	movzbl %al,%eax
 8048efc:	85 c0                	test   %eax,%eax
 8048efe:	75 28                	jne    8048f28 <sglib_DoubleLinkedList_is_member+0x58>
 8048f00:	84 c9                	test   %cl,%cl
 8048f02:	74 24                	je     8048f28 <sglib_DoubleLinkedList_is_member+0x58>
 8048f04:	8b 52 04             	mov    0x4(%edx),%edx
 8048f07:	85 d2                	test   %edx,%edx
 8048f09:	74 29                	je     8048f34 <sglib_DoubleLinkedList_is_member+0x64>
 8048f0b:	39 d3                	cmp    %edx,%ebx
 8048f0d:	89 d0                	mov    %edx,%eax
 8048f0f:	74 23                	je     8048f34 <sglib_DoubleLinkedList_is_member+0x64>
 8048f11:	8b 40 04             	mov    0x4(%eax),%eax
 8048f14:	85 c0                	test   %eax,%eax
 8048f16:	74 08                	je     8048f20 <sglib_DoubleLinkedList_is_member+0x50>
 8048f18:	39 c3                	cmp    %eax,%ebx
 8048f1a:	75 f5                	jne    8048f11 <sglib_DoubleLinkedList_is_member+0x41>
 8048f1c:	8d 74 26 00          	lea    0x0(%esi),%esi
 8048f20:	85 c0                	test   %eax,%eax
 8048f22:	0f 95 c0             	setne  %al
 8048f25:	0f b6 c0             	movzbl %al,%eax
 8048f28:	5b                   	pop    %ebx
 8048f29:	5d                   	pop    %ebp
 8048f2a:	c3                   	ret    
 8048f2b:	90                   	nop    
 8048f2c:	8d 74 26 00          	lea    0x0(%esi),%esi
 8048f30:	89 d0                	mov    %edx,%eax
 8048f32:	eb c0                	jmp    8048ef4 <sglib_DoubleLinkedList_is_member+0x24>
 8048f34:	89 d0                	mov    %edx,%eax
 8048f36:	eb e8                	jmp    8048f20 <sglib_DoubleLinkedList_is_member+0x50>
 8048f38:	90                   	nop    
 8048f39:	8d b4 26 00 00 00 00 	lea    0x0(%esi),%esi

08048f40 <sglib_DoubleLinkedList_find_member>:
 8048f40:	55                   	push   %ebp
 8048f41:	31 d2                	xor    %edx,%edx
 8048f43:	89 e5                	mov    %esp,%ebp
 8048f45:	57                   	push   %edi
 8048f46:	56                   	push   %esi
 8048f47:	53                   	push   %ebx
 8048f48:	83 ec 08             	sub    $0x8,%esp
 8048f4b:	8b 7d 08             	mov    0x8(%ebp),%edi
 8048f4e:	8b 75 0c             	mov    0xc(%ebp),%esi
 8048f51:	85 ff                	test   %edi,%edi
 8048f53:	89 fb                	mov    %edi,%ebx
 8048f55:	75 10                	jne    8048f67 <sglib_DoubleLinkedList_find_member+0x27>
 8048f57:	eb 20                	jmp    8048f79 <sglib_DoubleLinkedList_find_member+0x39>
 8048f59:	8d b4 26 00 00 00 00 	lea    0x0(%esi),%esi
 8048f60:	8b 5b 08             	mov    0x8(%ebx),%ebx
 8048f63:	85 db                	test   %ebx,%ebx
 8048f65:	74 1c                	je     8048f83 <sglib_DoubleLinkedList_find_member+0x43>
 8048f67:	89 74 24 04          	mov    %esi,0x4(%esp)
 8048f6b:	89 1c 24             	mov    %ebx,(%esp)
 8048f6e:	e8 9d f6 ff ff       	call   8048610 <myListCmp>
 8048f73:	85 c0                	test   %eax,%eax
 8048f75:	75 e9                	jne    8048f60 <sglib_DoubleLinkedList_find_member+0x20>
 8048f77:	89 da                	mov    %ebx,%edx
 8048f79:	83 c4 08             	add    $0x8,%esp
 8048f7c:	89 d0                	mov    %edx,%eax
 8048f7e:	5b                   	pop    %ebx
 8048f7f:	5e                   	pop    %esi
 8048f80:	5f                   	pop    %edi
 8048f81:	5d                   	pop    %ebp
 8048f82:	c3                   	ret    
 8048f83:	8b 47 04             	mov    0x4(%edi),%eax
 8048f86:	31 d2                	xor    %edx,%edx
 8048f88:	85 c0                	test   %eax,%eax
 8048f8a:	89 c3                	mov    %eax,%ebx
 8048f8c:	75 09                	jne    8048f97 <sglib_DoubleLinkedList_find_member+0x57>
 8048f8e:	eb e9                	jmp    8048f79 <sglib_DoubleLinkedList_find_member+0x39>
 8048f90:	8b 5b 04             	mov    0x4(%ebx),%ebx
 8048f93:	85 db                	test   %ebx,%ebx
 8048f95:	74 e0                	je     8048f77 <sglib_DoubleLinkedList_find_member+0x37>
 8048f97:	89 74 24 04          	mov    %esi,0x4(%esp)
 8048f9b:	89 1c 24             	mov    %ebx,(%esp)
 8048f9e:	e8 6d f6 ff ff       	call   8048610 <myListCmp>
 8048fa3:	85 c0                	test   %eax,%eax
 8048fa5:	75 e9                	jne    8048f90 <sglib_DoubleLinkedList_find_member+0x50>
 8048fa7:	eb ce                	jmp    8048f77 <sglib_DoubleLinkedList_find_member+0x37>
 8048fa9:	8d b4 26 00 00 00 00 	lea    0x0(%esi),%esi

08048fb0 <sglib_DoubleLinkedList_get_first>:
 8048fb0:	55                   	push   %ebp
 8048fb1:	89 e5                	mov    %esp,%ebp
 8048fb3:	8b 45 08             	mov    0x8(%ebp),%eax
 8048fb6:	85 c0                	test   %eax,%eax
 8048fb8:	89 c2                	mov    %eax,%edx
 8048fba:	75 06                	jne    8048fc2 <sglib_DoubleLinkedList_get_first+0x12>
 8048fbc:	eb 0b                	jmp    8048fc9 <sglib_DoubleLinkedList_get_first+0x19>
 8048fbe:	66 90                	xchg   %ax,%ax
 8048fc0:	89 c2                	mov    %eax,%edx
 8048fc2:	8b 42 08             	mov    0x8(%edx),%eax
 8048fc5:	85 c0                	test   %eax,%eax
 8048fc7:	75 f7                	jne    8048fc0 <sglib_DoubleLinkedList_get_first+0x10>
 8048fc9:	5d                   	pop    %ebp
 8048fca:	89 d0                	mov    %edx,%eax
 8048fcc:	c3                   	ret    
 8048fcd:	8d 76 00             	lea    0x0(%esi),%esi

08048fd0 <sglib_DoubleLinkedList_get_last>:
 8048fd0:	55                   	push   %ebp
 8048fd1:	89 e5                	mov    %esp,%ebp
 8048fd3:	8b 45 08             	mov    0x8(%ebp),%eax
 8048fd6:	85 c0                	test   %eax,%eax
 8048fd8:	89 c2                	mov    %eax,%edx
 8048fda:	75 06                	jne    8048fe2 <sglib_DoubleLinkedList_get_last+0x12>
 8048fdc:	eb 0b                	jmp    8048fe9 <sglib_DoubleLinkedList_get_last+0x19>
 8048fde:	66 90                	xchg   %ax,%ax
 8048fe0:	89 c2                	mov    %eax,%edx
 8048fe2:	8b 42 04             	mov    0x4(%edx),%eax
 8048fe5:	85 c0                	test   %eax,%eax
 8048fe7:	75 f7                	jne    8048fe0 <sglib_DoubleLinkedList_get_last+0x10>
 8048fe9:	5d                   	pop    %ebp
 8048fea:	89 d0                	mov    %edx,%eax
 8048fec:	c3                   	ret    
 8048fed:	8d 76 00             	lea    0x0(%esi),%esi

08048ff0 <sglib_DoubleLinkedList_sort>:
 8048ff0:	55                   	push   %ebp
 8048ff1:	89 e5                	mov    %esp,%ebp
 8048ff3:	57                   	push   %edi
 8048ff4:	56                   	push   %esi
 8048ff5:	53                   	push   %ebx
 8048ff6:	83 ec 24             	sub    $0x24,%esp
 8048ff9:	8b 45 08             	mov    0x8(%ebp),%eax
 8048ffc:	8b 10                	mov    (%eax),%edx
 8048ffe:	85 d2                	test   %edx,%edx
 8049000:	75 04                	jne    8049006 <sglib_DoubleLinkedList_sort+0x16>
 8049002:	eb 6e                	jmp    8049072 <sglib_DoubleLinkedList_sort+0x82>
 8049004:	89 c2                	mov    %eax,%edx
 8049006:	8b 42 08             	mov    0x8(%edx),%eax
 8049009:	85 c0                	test   %eax,%eax
 804900b:	75 f7                	jne    8049004 <sglib_DoubleLinkedList_sort+0x14>
 804900d:	c7 45 f0 00 00 00 00 	movl   $0x0,0xfffffff0(%ebp)
 8049014:	89 d0                	mov    %edx,%eax
 8049016:	89 d1                	mov    %edx,%ecx
 8049018:	c7 45 d8 01 00 00 00 	movl   $0x1,0xffffffd8(%ebp)
 804901f:	90                   	nop    
 8049020:	83 7d d8 01          	cmpl   $0x1,0xffffffd8(%ebp)
 8049024:	8d 7d f0             	lea    0xfffffff0(%ebp),%edi
 8049027:	0f 9f 45 df          	setg   0xffffffdf(%ebp)
 804902b:	31 db                	xor    %ebx,%ebx
 804902d:	8d 76 00             	lea    0x0(%esi),%esi
 8049030:	80 7d df 00          	cmpb   $0x0,0xffffffdf(%ebp)
 8049034:	74 4a                	je     8049080 <sglib_DoubleLinkedList_sort+0x90>
 8049036:	85 c0                	test   %eax,%eax
 8049038:	74 14                	je     804904e <sglib_DoubleLinkedList_sort+0x5e>
 804903a:	ba 01 00 00 00       	mov    $0x1,%edx
 804903f:	83 c2 01             	add    $0x1,%edx
 8049042:	8b 40 04             	mov    0x4(%eax),%eax
 8049045:	39 55 d8             	cmp    %edx,0xffffffd8(%ebp)
 8049048:	7e 36                	jle    8049080 <sglib_DoubleLinkedList_sort+0x90>
 804904a:	85 c0                	test   %eax,%eax
 804904c:	75 f1                	jne    804903f <sglib_DoubleLinkedList_sort+0x4f>
 804904e:	85 db                	test   %ebx,%ebx
 8049050:	89 0f                	mov    %ecx,(%edi)
 8049052:	0f 84 d5 00 00 00    	je     804912d <sglib_DoubleLinkedList_sort+0x13d>
 8049058:	8b 4d f0             	mov    0xfffffff0(%ebp),%ecx
 804905b:	d1 65 d8             	shll   0xffffffd8(%ebp)
 804905e:	c7 45 f0 00 00 00 00 	movl   $0x0,0xfffffff0(%ebp)
 8049065:	85 c9                	test   %ecx,%ecx
 8049067:	89 c8                	mov    %ecx,%eax
 8049069:	75 b5                	jne    8049020 <sglib_DoubleLinkedList_sort+0x30>
 804906b:	31 db                	xor    %ebx,%ebx
 804906d:	8b 45 08             	mov    0x8(%ebp),%eax
 8049070:	89 18                	mov    %ebx,(%eax)
 8049072:	83 c4 24             	add    $0x24,%esp
 8049075:	5b                   	pop    %ebx
 8049076:	5e                   	pop    %esi
 8049077:	5f                   	pop    %edi
 8049078:	5d                   	pop    %ebp
 8049079:	c3                   	ret    
 804907a:	8d b6 00 00 00 00    	lea    0x0(%esi),%esi
 8049080:	85 c0                	test   %eax,%eax
 8049082:	74 ca                	je     804904e <sglib_DoubleLinkedList_sort+0x5e>
 8049084:	80 7d df 00          	cmpb   $0x0,0xffffffdf(%ebp)
 8049088:	8b 70 04             	mov    0x4(%eax),%esi
 804908b:	c7 40 04 00 00 00 00 	movl   $0x0,0x4(%eax)
 8049092:	74 6c                	je     8049100 <sglib_DoubleLinkedList_sort+0x110>
 8049094:	85 f6                	test   %esi,%esi
 8049096:	89 f0                	mov    %esi,%eax
 8049098:	ba 01 00 00 00       	mov    $0x1,%edx
 804909d:	74 61                	je     8049100 <sglib_DoubleLinkedList_sort+0x110>
 804909f:	83 c2 01             	add    $0x1,%edx
 80490a2:	8b 40 04             	mov    0x4(%eax),%eax
 80490a5:	39 55 d8             	cmp    %edx,0xffffffd8(%ebp)
 80490a8:	7e 58                	jle    8049102 <sglib_DoubleLinkedList_sort+0x112>
 80490aa:	85 c0                	test   %eax,%eax
 80490ac:	75 f1                	jne    804909f <sglib_DoubleLinkedList_sort+0xaf>
 80490ae:	c7 45 e0 00 00 00 00 	movl   $0x0,0xffffffe0(%ebp)
 80490b5:	89 cb                	mov    %ecx,%ebx
 80490b7:	85 db                	test   %ebx,%ebx
 80490b9:	74 25                	je     80490e0 <sglib_DoubleLinkedList_sort+0xf0>
 80490bb:	85 f6                	test   %esi,%esi
 80490bd:	74 56                	je     8049115 <sglib_DoubleLinkedList_sort+0x125>
 80490bf:	89 74 24 04          	mov    %esi,0x4(%esp)
 80490c3:	89 1c 24             	mov    %ebx,(%esp)
 80490c6:	e8 45 f5 ff ff       	call   8048610 <myListCmp>
 80490cb:	85 c0                	test   %eax,%eax
 80490cd:	78 54                	js     8049123 <sglib_DoubleLinkedList_sort+0x133>
 80490cf:	85 db                	test   %ebx,%ebx
 80490d1:	89 37                	mov    %esi,(%edi)
 80490d3:	8d 7e 04             	lea    0x4(%esi),%edi
 80490d6:	8b 76 04             	mov    0x4(%esi),%esi
 80490d9:	75 e0                	jne    80490bb <sglib_DoubleLinkedList_sort+0xcb>
 80490db:	90                   	nop    
 80490dc:	8d 74 26 00          	lea    0x0(%esi),%esi
 80490e0:	85 f6                	test   %esi,%esi
 80490e2:	89 37                	mov    %esi,(%edi)
 80490e4:	75 72                	jne    8049158 <sglib_DoubleLinkedList_sort+0x168>
 80490e6:	8b 45 e0             	mov    0xffffffe0(%ebp),%eax
 80490e9:	bb 01 00 00 00       	mov    $0x1,%ebx
 80490ee:	85 c0                	test   %eax,%eax
 80490f0:	0f 84 62 ff ff ff    	je     8049058 <sglib_DoubleLinkedList_sort+0x68>
 80490f6:	89 c1                	mov    %eax,%ecx
 80490f8:	e9 33 ff ff ff       	jmp    8049030 <sglib_DoubleLinkedList_sort+0x40>
 80490fd:	8d 76 00             	lea    0x0(%esi),%esi
 8049100:	89 f0                	mov    %esi,%eax
 8049102:	85 c0                	test   %eax,%eax
 8049104:	74 a8                	je     80490ae <sglib_DoubleLinkedList_sort+0xbe>
 8049106:	8b 50 04             	mov    0x4(%eax),%edx
 8049109:	c7 40 04 00 00 00 00 	movl   $0x0,0x4(%eax)
 8049110:	89 55 e0             	mov    %edx,0xffffffe0(%ebp)
 8049113:	eb a0                	jmp    80490b5 <sglib_DoubleLinkedList_sort+0xc5>
 8049115:	89 1f                	mov    %ebx,(%edi)
 8049117:	8d 7b 04             	lea    0x4(%ebx),%edi
 804911a:	8b 5b 04             	mov    0x4(%ebx),%ebx
 804911d:	85 db                	test   %ebx,%ebx
 804911f:	74 c5                	je     80490e6 <sglib_DoubleLinkedList_sort+0xf6>
 8049121:	eb f4                	jmp    8049117 <sglib_DoubleLinkedList_sort+0x127>
 8049123:	89 1f                	mov    %ebx,(%edi)
 8049125:	8d 7b 04             	lea    0x4(%ebx),%edi
 8049128:	8b 5b 04             	mov    0x4(%ebx),%ebx
 804912b:	eb 8a                	jmp    80490b7 <sglib_DoubleLinkedList_sort+0xc7>
 804912d:	8b 5d f0             	mov    0xfffffff0(%ebp),%ebx
 8049130:	85 db                	test   %ebx,%ebx
 8049132:	0f 84 35 ff ff ff    	je     804906d <sglib_DoubleLinkedList_sort+0x7d>
 8049138:	89 d8                	mov    %ebx,%eax
 804913a:	31 c9                	xor    %ecx,%ecx
 804913c:	eb 04                	jmp    8049142 <sglib_DoubleLinkedList_sort+0x152>
 804913e:	66 90                	xchg   %ax,%ax
 8049140:	89 d0                	mov    %edx,%eax
 8049142:	8b 50 04             	mov    0x4(%eax),%edx
 8049145:	89 48 08             	mov    %ecx,0x8(%eax)
 8049148:	89 c1                	mov    %eax,%ecx
 804914a:	85 d2                	test   %edx,%edx
 804914c:	75 f2                	jne    8049140 <sglib_DoubleLinkedList_sort+0x150>
 804914e:	8b 45 08             	mov    0x8(%ebp),%eax
 8049151:	89 18                	mov    %ebx,(%eax)
 8049153:	e9 1a ff ff ff       	jmp    8049072 <sglib_DoubleLinkedList_sort+0x82>
 8049158:	89 f3                	mov    %esi,%ebx
 804915a:	eb bb                	jmp    8049117 <sglib_DoubleLinkedList_sort+0x127>
 804915c:	8d 74 26 00          	lea    0x0(%esi),%esi

08049160 <sglib_DoubleLinkedList_len>:
 8049160:	55                   	push   %ebp
 8049161:	31 c0                	xor    %eax,%eax
 8049163:	89 e5                	mov    %esp,%ebp
 8049165:	8b 4d 08             	mov    0x8(%ebp),%ecx
 8049168:	85 c9                	test   %ecx,%ecx
 804916a:	74 24                	je     8049190 <sglib_DoubleLinkedList_len+0x30>
 804916c:	89 c8                	mov    %ecx,%eax
 804916e:	31 d2                	xor    %edx,%edx
 8049170:	8b 40 08             	mov    0x8(%eax),%eax
 8049173:	83 c2 01             	add    $0x1,%edx
 8049176:	85 c0                	test   %eax,%eax
 8049178:	75 f6                	jne    8049170 <sglib_DoubleLinkedList_len+0x10>
 804917a:	8b 41 04             	mov    0x4(%ecx),%eax
 804917d:	31 c9                	xor    %ecx,%ecx
 804917f:	85 c0                	test   %eax,%eax
 8049181:	74 0a                	je     804918d <sglib_DoubleLinkedList_len+0x2d>
 8049183:	8b 40 04             	mov    0x4(%eax),%eax
 8049186:	83 c1 01             	add    $0x1,%ecx
 8049189:	85 c0                	test   %eax,%eax
 804918b:	75 f6                	jne    8049183 <sglib_DoubleLinkedList_len+0x23>
 804918d:	8d 04 11             	lea    (%ecx,%edx,1),%eax
 8049190:	5d                   	pop    %ebp
 8049191:	c3                   	ret    
 8049192:	8d b4 26 00 00 00 00 	lea    0x0(%esi),%esi
 8049199:	8d bc 27 00 00 00 00 	lea    0x0(%edi),%edi

080491a0 <sglib_DoubleLinkedList_reverse>:
 80491a0:	55                   	push   %ebp
 80491a1:	89 e5                	mov    %esp,%ebp
 80491a3:	8b 45 08             	mov    0x8(%ebp),%eax
 80491a6:	53                   	push   %ebx
 80491a7:	8b 00                	mov    (%eax),%eax
 80491a9:	85 c0                	test   %eax,%eax
 80491ab:	74 35                	je     80491e2 <sglib_DoubleLinkedList_reverse+0x42>
 80491ad:	8b 48 04             	mov    0x4(%eax),%ecx
 80491b0:	89 cb                	mov    %ecx,%ebx
 80491b2:	eb 03                	jmp    80491b7 <sglib_DoubleLinkedList_reverse+0x17>
 80491b4:	8b 5a 04             	mov    0x4(%edx),%ebx
 80491b7:	8b 50 08             	mov    0x8(%eax),%edx
 80491ba:	89 58 08             	mov    %ebx,0x8(%eax)
 80491bd:	85 d2                	test   %edx,%edx
 80491bf:	89 50 04             	mov    %edx,0x4(%eax)
 80491c2:	89 d0                	mov    %edx,%eax
 80491c4:	75 ee                	jne    80491b4 <sglib_DoubleLinkedList_reverse+0x14>
 80491c6:	85 c9                	test   %ecx,%ecx
 80491c8:	74 18                	je     80491e2 <sglib_DoubleLinkedList_reverse+0x42>
 80491ca:	8d b6 00 00 00 00    	lea    0x0(%esi),%esi
 80491d0:	8b 51 04             	mov    0x4(%ecx),%edx
 80491d3:	8b 41 08             	mov    0x8(%ecx),%eax
 80491d6:	89 51 08             	mov    %edx,0x8(%ecx)
 80491d9:	89 41 04             	mov    %eax,0x4(%ecx)
 80491dc:	89 d1                	mov    %edx,%ecx
 80491de:	85 c9                	test   %ecx,%ecx
 80491e0:	75 ee                	jne    80491d0 <sglib_DoubleLinkedList_reverse+0x30>
 80491e2:	5b                   	pop    %ebx
 80491e3:	5d                   	pop    %ebp
 80491e4:	c3                   	ret    
 80491e5:	8d 74 26 00          	lea    0x0(%esi),%esi
 80491e9:	8d bc 27 00 00 00 00 	lea    0x0(%edi),%edi

080491f0 <sglib_DoubleLinkedList_it_current>:
 80491f0:	55                   	push   %ebp
 80491f1:	89 e5                	mov    %esp,%ebp
 80491f3:	8b 45 08             	mov    0x8(%ebp),%eax
 80491f6:	5d                   	pop    %ebp
 80491f7:	8b 00                	mov    (%eax),%eax
 80491f9:	c3                   	ret    
 80491fa:	8d b6 00 00 00 00    	lea    0x0(%esi),%esi

08049200 <sglib_DoubleLinkedList_it_next>:
 8049200:	55                   	push   %ebp
 8049201:	89 e5                	mov    %esp,%ebp
 8049203:	57                   	push   %edi
 8049204:	56                   	push   %esi
 8049205:	53                   	push   %ebx
 8049206:	83 ec 0c             	sub    $0xc,%esp
 8049209:	8b 45 08             	mov    0x8(%ebp),%eax
 804920c:	8b 70 0c             	mov    0xc(%eax),%esi
 804920f:	8b 58 04             	mov    0x4(%eax),%ebx
 8049212:	c7 40 04 00 00 00 00 	movl   $0x0,0x4(%eax)
 8049219:	85 f6                	test   %esi,%esi
 804921b:	0f 84 8d 00 00 00    	je     80492ae <sglib_DoubleLinkedList_it_next+0xae>
 8049221:	85 db                	test   %ebx,%ebx
 8049223:	8b 78 10             	mov    0x10(%eax),%edi
 8049226:	75 0f                	jne    8049237 <sglib_DoubleLinkedList_it_next+0x37>
 8049228:	eb 3a                	jmp    8049264 <sglib_DoubleLinkedList_it_next+0x64>
 804922a:	8d b6 00 00 00 00    	lea    0x0(%esi),%esi
 8049230:	8b 5b 08             	mov    0x8(%ebx),%ebx
 8049233:	85 db                	test   %ebx,%ebx
 8049235:	74 27                	je     804925e <sglib_DoubleLinkedList_it_next+0x5e>
 8049237:	89 5c 24 04          	mov    %ebx,0x4(%esp)
 804923b:	89 3c 24             	mov    %edi,(%esp)
 804923e:	66 90                	xchg   %ax,%ax
 8049240:	ff d6                	call   *%esi
 8049242:	85 c0                	test   %eax,%eax
 8049244:	75 ea                	jne    8049230 <sglib_DoubleLinkedList_it_next+0x30>
 8049246:	8b 43 08             	mov    0x8(%ebx),%eax
 8049249:	8b 55 08             	mov    0x8(%ebp),%edx
 804924c:	89 42 04             	mov    %eax,0x4(%edx)
 804924f:	8b 45 08             	mov    0x8(%ebp),%eax
 8049252:	89 18                	mov    %ebx,(%eax)
 8049254:	83 c4 0c             	add    $0xc,%esp
 8049257:	89 d8                	mov    %ebx,%eax
 8049259:	5b                   	pop    %ebx
 804925a:	5e                   	pop    %esi
 804925b:	5f                   	pop    %edi
 804925c:	5d                   	pop    %ebp
 804925d:	c3                   	ret    
 804925e:	8b 45 08             	mov    0x8(%ebp),%eax
 8049261:	8b 70 0c             	mov    0xc(%eax),%esi
 8049264:	8b 55 08             	mov    0x8(%ebp),%edx
 8049267:	85 f6                	test   %esi,%esi
 8049269:	8b 5a 08             	mov    0x8(%edx),%ebx
 804926c:	c7 42 08 00 00 00 00 	movl   $0x0,0x8(%edx)
 8049273:	74 3f                	je     80492b4 <sglib_DoubleLinkedList_it_next+0xb4>
 8049275:	85 db                	test   %ebx,%ebx
 8049277:	8b 7a 10             	mov    0x10(%edx),%edi
 804927a:	75 0b                	jne    8049287 <sglib_DoubleLinkedList_it_next+0x87>
 804927c:	eb d1                	jmp    804924f <sglib_DoubleLinkedList_it_next+0x4f>
 804927e:	66 90                	xchg   %ax,%ax
 8049280:	8b 5b 04             	mov    0x4(%ebx),%ebx
 8049283:	85 db                	test   %ebx,%ebx
 8049285:	74 c8                	je     804924f <sglib_DoubleLinkedList_it_next+0x4f>
 8049287:	89 7c 24 04          	mov    %edi,0x4(%esp)
 804928b:	89 1c 24             	mov    %ebx,(%esp)
 804928e:	66 90                	xchg   %ax,%ax
 8049290:	ff d6                	call   *%esi
 8049292:	85 c0                	test   %eax,%eax
 8049294:	75 ea                	jne    8049280 <sglib_DoubleLinkedList_it_next+0x80>
 8049296:	8b 43 04             	mov    0x4(%ebx),%eax
 8049299:	8b 55 08             	mov    0x8(%ebp),%edx
 804929c:	89 42 08             	mov    %eax,0x8(%edx)
 804929f:	8b 45 08             	mov    0x8(%ebp),%eax
 80492a2:	89 18                	mov    %ebx,(%eax)
 80492a4:	83 c4 0c             	add    $0xc,%esp
 80492a7:	89 d8                	mov    %ebx,%eax
 80492a9:	5b                   	pop    %ebx
 80492aa:	5e                   	pop    %esi
 80492ab:	5f                   	pop    %edi
 80492ac:	5d                   	pop    %ebp
 80492ad:	c3                   	ret    
 80492ae:	85 db                	test   %ebx,%ebx
 80492b0:	75 94                	jne    8049246 <sglib_DoubleLinkedList_it_next+0x46>
 80492b2:	eb b0                	jmp    8049264 <sglib_DoubleLinkedList_it_next+0x64>
 80492b4:	85 db                	test   %ebx,%ebx
 80492b6:	75 de                	jne    8049296 <sglib_DoubleLinkedList_it_next+0x96>
 80492b8:	90                   	nop    
 80492b9:	8d b4 26 00 00 00 00 	lea    0x0(%esi),%esi
 80492c0:	eb 8d                	jmp    804924f <sglib_DoubleLinkedList_it_next+0x4f>
 80492c2:	8d b4 26 00 00 00 00 	lea    0x0(%esi),%esi
 80492c9:	8d bc 27 00 00 00 00 	lea    0x0(%edi),%edi

080492d0 <sglib_DoubleLinkedList_it_init_on_equal>:
 80492d0:	55                   	push   %ebp
 80492d1:	89 e5                	mov    %esp,%ebp
 80492d3:	8b 55 08             	mov    0x8(%ebp),%edx
 80492d6:	8b 45 10             	mov    0x10(%ebp),%eax
 80492d9:	8b 4d 0c             	mov    0xc(%ebp),%ecx
 80492dc:	89 42 0c             	mov    %eax,0xc(%edx)
 80492df:	8b 45 14             	mov    0x14(%ebp),%eax
 80492e2:	85 c9                	test   %ecx,%ecx
 80492e4:	89 4a 04             	mov    %ecx,0x4(%edx)
 80492e7:	89 4a 08             	mov    %ecx,0x8(%edx)
 80492ea:	89 42 10             	mov    %eax,0x10(%edx)
 80492ed:	74 06                	je     80492f5 <sglib_DoubleLinkedList_it_init_on_equal+0x25>
 80492ef:	8b 41 04             	mov    0x4(%ecx),%eax
 80492f2:	89 42 08             	mov    %eax,0x8(%edx)
 80492f5:	89 55 08             	mov    %edx,0x8(%ebp)
 80492f8:	5d                   	pop    %ebp
 80492f9:	e9 02 ff ff ff       	jmp    8049200 <sglib_DoubleLinkedList_it_next>
 80492fe:	66 90                	xchg   %ax,%ax

08049300 <sglib_DoubleLinkedList_it_init>:
 8049300:	55                   	push   %ebp
 8049301:	89 e5                	mov    %esp,%ebp
 8049303:	83 ec 18             	sub    $0x18,%esp
 8049306:	8b 45 0c             	mov    0xc(%ebp),%eax
 8049309:	c7 44 24 0c 00 00 00 	movl   $0x0,0xc(%esp)
 8049310:	00 
 8049311:	c7 44 24 08 00 00 00 	movl   $0x0,0x8(%esp)
 8049318:	00 
 8049319:	89 44 24 04          	mov    %eax,0x4(%esp)
 804931d:	8b 45 08             	mov    0x8(%ebp),%eax
 8049320:	89 04 24             	mov    %eax,(%esp)
 8049323:	e8 a8 ff ff ff       	call   80492d0 <sglib_DoubleLinkedList_it_init_on_equal>
 8049328:	c9                   	leave  
 8049329:	c3                   	ret    
 804932a:	8d b6 00 00 00 00    	lea    0x0(%esi),%esi

08049330 <sglib_SortedList_is_member>:
 8049330:	55                   	push   %ebp
 8049331:	89 e5                	mov    %esp,%ebp
 8049333:	56                   	push   %esi
 8049334:	53                   	push   %ebx
 8049335:	83 ec 08             	sub    $0x8,%esp
 8049338:	8b 5d 08             	mov    0x8(%ebp),%ebx
 804933b:	8b 75 0c             	mov    0xc(%ebp),%esi
 804933e:	85 db                	test   %ebx,%ebx
 8049340:	75 09                	jne    804934b <sglib_SortedList_is_member+0x1b>
 8049342:	eb 4a                	jmp    804938e <sglib_SortedList_is_member+0x5e>
 8049344:	8b 5b 04             	mov    0x4(%ebx),%ebx
 8049347:	85 db                	test   %ebx,%ebx
 8049349:	74 35                	je     8049380 <sglib_SortedList_is_member+0x50>
 804934b:	89 74 24 04          	mov    %esi,0x4(%esp)
 804934f:	89 1c 24             	mov    %ebx,(%esp)
 8049352:	e8 b9 f2 ff ff       	call   8048610 <myListCmp>
 8049357:	85 c0                	test   %eax,%eax
 8049359:	78 e9                	js     8049344 <sglib_SortedList_is_member+0x14>
 804935b:	85 db                	test   %ebx,%ebx
 804935d:	74 21                	je     8049380 <sglib_SortedList_is_member+0x50>
 804935f:	39 de                	cmp    %ebx,%esi
 8049361:	74 1d                	je     8049380 <sglib_SortedList_is_member+0x50>
 8049363:	89 74 24 04          	mov    %esi,0x4(%esp)
 8049367:	89 1c 24             	mov    %ebx,(%esp)
 804936a:	e8 a1 f2 ff ff       	call   8048610 <myListCmp>
 804936f:	85 c0                	test   %eax,%eax
 8049371:	75 0d                	jne    8049380 <sglib_SortedList_is_member+0x50>
 8049373:	8b 5b 04             	mov    0x4(%ebx),%ebx
 8049376:	85 db                	test   %ebx,%ebx
 8049378:	75 e5                	jne    804935f <sglib_SortedList_is_member+0x2f>
 804937a:	8d b6 00 00 00 00    	lea    0x0(%esi),%esi
 8049380:	31 c0                	xor    %eax,%eax
 8049382:	39 f3                	cmp    %esi,%ebx
 8049384:	0f 94 c0             	sete   %al
 8049387:	83 c4 08             	add    $0x8,%esp
 804938a:	5b                   	pop    %ebx
 804938b:	5e                   	pop    %esi
 804938c:	5d                   	pop    %ebp
 804938d:	c3                   	ret    
 804938e:	31 db                	xor    %ebx,%ebx
 8049390:	eb ee                	jmp    8049380 <sglib_SortedList_is_member+0x50>
 8049392:	8d b4 26 00 00 00 00 	lea    0x0(%esi),%esi
 8049399:	8d bc 27 00 00 00 00 	lea    0x0(%edi),%edi

080493a0 <sglib_SortedList_find_member>:
 80493a0:	55                   	push   %ebp
 80493a1:	89 e5                	mov    %esp,%ebp
 80493a3:	56                   	push   %esi
 80493a4:	53                   	push   %ebx
 80493a5:	83 ec 08             	sub    $0x8,%esp
 80493a8:	8b 5d 08             	mov    0x8(%ebp),%ebx
 80493ab:	8b 75 0c             	mov    0xc(%ebp),%esi
 80493ae:	85 db                	test   %ebx,%ebx
 80493b0:	75 09                	jne    80493bb <sglib_SortedList_find_member+0x1b>
 80493b2:	eb 23                	jmp    80493d7 <sglib_SortedList_find_member+0x37>
 80493b4:	8b 5b 04             	mov    0x4(%ebx),%ebx
 80493b7:	85 db                	test   %ebx,%ebx
 80493b9:	74 1c                	je     80493d7 <sglib_SortedList_find_member+0x37>
 80493bb:	89 74 24 04          	mov    %esi,0x4(%esp)
 80493bf:	89 1c 24             	mov    %ebx,(%esp)
 80493c2:	e8 49 f2 ff ff       	call   8048610 <myListCmp>
 80493c7:	83 f8 00             	cmp    $0x0,%eax
 80493ca:	7c e8                	jl     80493b4 <sglib_SortedList_find_member+0x14>
 80493cc:	75 09                	jne    80493d7 <sglib_SortedList_find_member+0x37>
 80493ce:	83 c4 08             	add    $0x8,%esp
 80493d1:	89 d8                	mov    %ebx,%eax
 80493d3:	5b                   	pop    %ebx
 80493d4:	5e                   	pop    %esi
 80493d5:	5d                   	pop    %ebp
 80493d6:	c3                   	ret    
 80493d7:	83 c4 08             	add    $0x8,%esp
 80493da:	31 c0                	xor    %eax,%eax
 80493dc:	5b                   	pop    %ebx
 80493dd:	5e                   	pop    %esi
 80493de:	5d                   	pop    %ebp
 80493df:	c3                   	ret    

080493e0 <sglib_SortedList_add_if_not_member>:
 80493e0:	55                   	push   %ebp
 80493e1:	89 e5                	mov    %esp,%ebp
 80493e3:	57                   	push   %edi
 80493e4:	56                   	push   %esi
 80493e5:	53                   	push   %ebx
 80493e6:	83 ec 08             	sub    $0x8,%esp
 80493e9:	8b 45 08             	mov    0x8(%ebp),%eax
 80493ec:	8b 7d 0c             	mov    0xc(%ebp),%edi
 80493ef:	8b 18                	mov    (%eax),%ebx
 80493f1:	89 c6                	mov    %eax,%esi
 80493f3:	85 db                	test   %ebx,%ebx
 80493f5:	75 13                	jne    804940a <sglib_SortedList_add_if_not_member+0x2a>
 80493f7:	eb 2b                	jmp    8049424 <sglib_SortedList_add_if_not_member+0x44>
 80493f9:	8d b4 26 00 00 00 00 	lea    0x0(%esi),%esi
 8049400:	8d 73 04             	lea    0x4(%ebx),%esi
 8049403:	8b 5b 04             	mov    0x4(%ebx),%ebx
 8049406:	85 db                	test   %ebx,%ebx
 8049408:	74 1c                	je     8049426 <sglib_SortedList_add_if_not_member+0x46>
 804940a:	89 7c 24 04          	mov    %edi,0x4(%esp)
 804940e:	89 1c 24             	mov    %ebx,(%esp)
 8049411:	e8 fa f1 ff ff       	call   8048610 <myListCmp>
 8049416:	83 f8 00             	cmp    $0x0,%eax
 8049419:	7c e5                	jl     8049400 <sglib_SortedList_add_if_not_member+0x20>
 804941b:	75 09                	jne    8049426 <sglib_SortedList_add_if_not_member+0x46>
 804941d:	8b 55 10             	mov    0x10(%ebp),%edx
 8049420:	89 1a                	mov    %ebx,(%edx)
 8049422:	eb 10                	jmp    8049434 <sglib_SortedList_add_if_not_member+0x54>
 8049424:	89 c6                	mov    %eax,%esi
 8049426:	8b 45 10             	mov    0x10(%ebp),%eax
 8049429:	89 5f 04             	mov    %ebx,0x4(%edi)
 804942c:	89 3e                	mov    %edi,(%esi)
 804942e:	c7 00 00 00 00 00    	movl   $0x0,(%eax)
 8049434:	8b 45 10             	mov    0x10(%ebp),%eax
 8049437:	8b 38                	mov    (%eax),%edi
 8049439:	85 ff                	test   %edi,%edi
 804943b:	0f 94 c0             	sete   %al
 804943e:	83 c4 08             	add    $0x8,%esp
 8049441:	5b                   	pop    %ebx
 8049442:	0f b6 c0             	movzbl %al,%eax
 8049445:	5e                   	pop    %esi
 8049446:	5f                   	pop    %edi
 8049447:	5d                   	pop    %ebp
 8049448:	c3                   	ret    
 8049449:	8d b4 26 00 00 00 00 	lea    0x0(%esi),%esi

08049450 <sglib_SortedList_add>:
 8049450:	55                   	push   %ebp
 8049451:	89 e5                	mov    %esp,%ebp
 8049453:	57                   	push   %edi
 8049454:	56                   	push   %esi
 8049455:	53                   	push   %ebx
 8049456:	83 ec 08             	sub    $0x8,%esp
 8049459:	8b 45 08             	mov    0x8(%ebp),%eax
 804945c:	8b 7d 0c             	mov    0xc(%ebp),%edi
 804945f:	8b 18                	mov    (%eax),%ebx
 8049461:	89 c6                	mov    %eax,%esi
 8049463:	85 db                	test   %ebx,%ebx
 8049465:	75 13                	jne    804947a <sglib_SortedList_add+0x2a>
 8049467:	eb 21                	jmp    804948a <sglib_SortedList_add+0x3a>
 8049469:	8d b4 26 00 00 00 00 	lea    0x0(%esi),%esi
 8049470:	8d 73 04             	lea    0x4(%ebx),%esi
 8049473:	8b 5b 04             	mov    0x4(%ebx),%ebx
 8049476:	85 db                	test   %ebx,%ebx
 8049478:	74 10                	je     804948a <sglib_SortedList_add+0x3a>
 804947a:	89 7c 24 04          	mov    %edi,0x4(%esp)
 804947e:	89 1c 24             	mov    %ebx,(%esp)
 8049481:	e8 8a f1 ff ff       	call   8048610 <myListCmp>
 8049486:	85 c0                	test   %eax,%eax
 8049488:	78 e6                	js     8049470 <sglib_SortedList_add+0x20>
 804948a:	89 5f 04             	mov    %ebx,0x4(%edi)
 804948d:	89 3e                	mov    %edi,(%esi)
 804948f:	83 c4 08             	add    $0x8,%esp
 8049492:	5b                   	pop    %ebx
 8049493:	5e                   	pop    %esi
 8049494:	5f                   	pop    %edi
 8049495:	5d                   	pop    %ebp
 8049496:	c3                   	ret    
 8049497:	89 f6                	mov    %esi,%esi
 8049499:	8d bc 27 00 00 00 00 	lea    0x0(%edi),%edi

080494a0 <sglib_SortedList_delete_if_member>:
 80494a0:	55                   	push   %ebp
 80494a1:	89 e5                	mov    %esp,%ebp
 80494a3:	57                   	push   %edi
 80494a4:	56                   	push   %esi
 80494a5:	53                   	push   %ebx
 80494a6:	83 ec 08             	sub    $0x8,%esp
 80494a9:	8b 45 08             	mov    0x8(%ebp),%eax
 80494ac:	8b 7d 0c             	mov    0xc(%ebp),%edi
 80494af:	8b 18                	mov    (%eax),%ebx
 80494b1:	89 c6                	mov    %eax,%esi
 80494b3:	85 db                	test   %ebx,%ebx
 80494b5:	75 13                	jne    80494ca <sglib_SortedList_delete_if_member+0x2a>
 80494b7:	eb 32                	jmp    80494eb <sglib_SortedList_delete_if_member+0x4b>
 80494b9:	8d b4 26 00 00 00 00 	lea    0x0(%esi),%esi
 80494c0:	8d 73 04             	lea    0x4(%ebx),%esi
 80494c3:	8b 5b 04             	mov    0x4(%ebx),%ebx
 80494c6:	85 db                	test   %ebx,%ebx
 80494c8:	74 21                	je     80494eb <sglib_SortedList_delete_if_member+0x4b>
 80494ca:	89 7c 24 04          	mov    %edi,0x4(%esp)
 80494ce:	89 1c 24             	mov    %ebx,(%esp)
 80494d1:	e8 3a f1 ff ff       	call   8048610 <myListCmp>
 80494d6:	83 f8 00             	cmp    $0x0,%eax
 80494d9:	7c e5                	jl     80494c0 <sglib_SortedList_delete_if_member+0x20>
 80494db:	75 0e                	jne    80494eb <sglib_SortedList_delete_if_member+0x4b>
 80494dd:	8b 45 10             	mov    0x10(%ebp),%eax
 80494e0:	89 18                	mov    %ebx,(%eax)
 80494e2:	8b 06                	mov    (%esi),%eax
 80494e4:	8b 40 04             	mov    0x4(%eax),%eax
 80494e7:	89 06                	mov    %eax,(%esi)
 80494e9:	eb 09                	jmp    80494f4 <sglib_SortedList_delete_if_member+0x54>
 80494eb:	8b 55 10             	mov    0x10(%ebp),%edx
 80494ee:	c7 02 00 00 00 00    	movl   $0x0,(%edx)
 80494f4:	8b 45 10             	mov    0x10(%ebp),%eax
 80494f7:	8b 00                	mov    (%eax),%eax
 80494f9:	85 c0                	test   %eax,%eax
 80494fb:	0f 95 c0             	setne  %al
 80494fe:	83 c4 08             	add    $0x8,%esp
 8049501:	5b                   	pop    %ebx
 8049502:	0f b6 c0             	movzbl %al,%eax
 8049505:	5e                   	pop    %esi
 8049506:	5f                   	pop    %edi
 8049507:	5d                   	pop    %ebp
 8049508:	c3                   	ret    
 8049509:	8d b4 26 00 00 00 00 	lea    0x0(%esi),%esi

08049510 <sglib_SortedList_len>:
 8049510:	55                   	push   %ebp
 8049511:	31 d2                	xor    %edx,%edx
 8049513:	89 e5                	mov    %esp,%ebp
 8049515:	8b 45 08             	mov    0x8(%ebp),%eax
 8049518:	85 c0                	test   %eax,%eax
 804951a:	74 0e                	je     804952a <sglib_SortedList_len+0x1a>
 804951c:	8d 74 26 00          	lea    0x0(%esi),%esi
 8049520:	8b 40 04             	mov    0x4(%eax),%eax
 8049523:	83 c2 01             	add    $0x1,%edx
 8049526:	85 c0                	test   %eax,%eax
 8049528:	75 f6                	jne    8049520 <sglib_SortedList_len+0x10>
 804952a:	5d                   	pop    %ebp
 804952b:	89 d0                	mov    %edx,%eax
 804952d:	c3                   	ret    
 804952e:	66 90                	xchg   %ax,%ax

08049530 <sglib_SortedList_sort>:
 8049530:	55                   	push   %ebp
 8049531:	89 e5                	mov    %esp,%ebp
 8049533:	57                   	push   %edi
 8049534:	56                   	push   %esi
 8049535:	53                   	push   %ebx
 8049536:	83 ec 24             	sub    $0x24,%esp
 8049539:	8b 55 08             	mov    0x8(%ebp),%edx
 804953c:	c7 45 dc 01 00 00 00 	movl   $0x1,0xffffffdc(%ebp)
 8049543:	8b 02                	mov    (%edx),%eax
 8049545:	89 45 f0             	mov    %eax,0xfffffff0(%ebp)
 8049548:	8b 4d f0             	mov    0xfffffff0(%ebp),%ecx
 804954b:	31 c0                	xor    %eax,%eax
 804954d:	c7 45 f0 00 00 00 00 	movl   $0x0,0xfffffff0(%ebp)
 8049554:	85 c9                	test   %ecx,%ecx
 8049556:	74 4a                	je     80495a2 <sglib_SortedList_sort+0x72>
 8049558:	83 7d dc 01          	cmpl   $0x1,0xffffffdc(%ebp)
 804955c:	89 c8                	mov    %ecx,%eax
 804955e:	8d 7d f0             	lea    0xfffffff0(%ebp),%edi
 8049561:	0f 9f 45 e3          	setg   0xffffffe3(%ebp)
 8049565:	31 db                	xor    %ebx,%ebx
 8049567:	80 7d e3 00          	cmpb   $0x0,0xffffffe3(%ebp)
 804956b:	74 43                	je     80495b0 <sglib_SortedList_sort+0x80>
 804956d:	85 c0                	test   %eax,%eax
 804956f:	74 14                	je     8049585 <sglib_SortedList_sort+0x55>
 8049571:	ba 01 00 00 00       	mov    $0x1,%edx
 8049576:	83 c2 01             	add    $0x1,%edx
 8049579:	8b 40 04             	mov    0x4(%eax),%eax
 804957c:	3b 55 dc             	cmp    0xffffffdc(%ebp),%edx
 804957f:	7d 2f                	jge    80495b0 <sglib_SortedList_sort+0x80>
 8049581:	85 c0                	test   %eax,%eax
 8049583:	75 f1                	jne    8049576 <sglib_SortedList_sort+0x46>
 8049585:	85 db                	test   %ebx,%ebx
 8049587:	89 0f                	mov    %ecx,(%edi)
 8049589:	0f 84 ce 00 00 00    	je     804965d <sglib_SortedList_sort+0x12d>
 804958f:	8b 4d f0             	mov    0xfffffff0(%ebp),%ecx
 8049592:	31 c0                	xor    %eax,%eax
 8049594:	d1 65 dc             	shll   0xffffffdc(%ebp)
 8049597:	c7 45 f0 00 00 00 00 	movl   $0x0,0xfffffff0(%ebp)
 804959e:	85 c9                	test   %ecx,%ecx
 80495a0:	75 b6                	jne    8049558 <sglib_SortedList_sort+0x28>
 80495a2:	8b 55 08             	mov    0x8(%ebp),%edx
 80495a5:	89 02                	mov    %eax,(%edx)
 80495a7:	83 c4 24             	add    $0x24,%esp
 80495aa:	5b                   	pop    %ebx
 80495ab:	5e                   	pop    %esi
 80495ac:	5f                   	pop    %edi
 80495ad:	5d                   	pop    %ebp
 80495ae:	c3                   	ret    
 80495af:	90                   	nop    
 80495b0:	85 c0                	test   %eax,%eax
 80495b2:	74 d1                	je     8049585 <sglib_SortedList_sort+0x55>
 80495b4:	80 7d e3 00          	cmpb   $0x0,0xffffffe3(%ebp)
 80495b8:	8b 70 04             	mov    0x4(%eax),%esi
 80495bb:	c7 40 04 00 00 00 00 	movl   $0x0,0x4(%eax)
 80495c2:	74 6c                	je     8049630 <sglib_SortedList_sort+0x100>
 80495c4:	85 f6                	test   %esi,%esi
 80495c6:	89 f0                	mov    %esi,%eax
 80495c8:	ba 01 00 00 00       	mov    $0x1,%edx
 80495cd:	74 61                	je     8049630 <sglib_SortedList_sort+0x100>
 80495cf:	83 c2 01             	add    $0x1,%edx
 80495d2:	8b 40 04             	mov    0x4(%eax),%eax
 80495d5:	3b 55 dc             	cmp    0xffffffdc(%ebp),%edx
 80495d8:	7d 58                	jge    8049632 <sglib_SortedList_sort+0x102>
 80495da:	85 c0                	test   %eax,%eax
 80495dc:	75 f1                	jne    80495cf <sglib_SortedList_sort+0x9f>
 80495de:	c7 45 d8 00 00 00 00 	movl   $0x0,0xffffffd8(%ebp)
 80495e5:	89 cb                	mov    %ecx,%ebx
 80495e7:	85 db                	test   %ebx,%ebx
 80495e9:	74 25                	je     8049610 <sglib_SortedList_sort+0xe0>
 80495eb:	85 f6                	test   %esi,%esi
 80495ed:	74 56                	je     8049645 <sglib_SortedList_sort+0x115>
 80495ef:	89 74 24 04          	mov    %esi,0x4(%esp)
 80495f3:	89 1c 24             	mov    %ebx,(%esp)
 80495f6:	e8 15 f0 ff ff       	call   8048610 <myListCmp>
 80495fb:	85 c0                	test   %eax,%eax
 80495fd:	78 54                	js     8049653 <sglib_SortedList_sort+0x123>
 80495ff:	85 db                	test   %ebx,%ebx
 8049601:	89 37                	mov    %esi,(%edi)
 8049603:	8d 7e 04             	lea    0x4(%esi),%edi
 8049606:	8b 76 04             	mov    0x4(%esi),%esi
 8049609:	75 e0                	jne    80495eb <sglib_SortedList_sort+0xbb>
 804960b:	90                   	nop    
 804960c:	8d 74 26 00          	lea    0x0(%esi),%esi
 8049610:	85 f6                	test   %esi,%esi
 8049612:	89 37                	mov    %esi,(%edi)
 8049614:	75 57                	jne    804966d <sglib_SortedList_sort+0x13d>
 8049616:	8b 45 d8             	mov    0xffffffd8(%ebp),%eax
 8049619:	bb 01 00 00 00       	mov    $0x1,%ebx
 804961e:	85 c0                	test   %eax,%eax
 8049620:	0f 84 69 ff ff ff    	je     804958f <sglib_SortedList_sort+0x5f>
 8049626:	89 c1                	mov    %eax,%ecx
 8049628:	e9 3a ff ff ff       	jmp    8049567 <sglib_SortedList_sort+0x37>
 804962d:	8d 76 00             	lea    0x0(%esi),%esi
 8049630:	89 f0                	mov    %esi,%eax
 8049632:	85 c0                	test   %eax,%eax
 8049634:	74 a8                	je     80495de <sglib_SortedList_sort+0xae>
 8049636:	8b 50 04             	mov    0x4(%eax),%edx
 8049639:	c7 40 04 00 00 00 00 	movl   $0x0,0x4(%eax)
 8049640:	89 55 d8             	mov    %edx,0xffffffd8(%ebp)
 8049643:	eb a0                	jmp    80495e5 <sglib_SortedList_sort+0xb5>
 8049645:	89 1f                	mov    %ebx,(%edi)
 8049647:	8d 7b 04             	lea    0x4(%ebx),%edi
 804964a:	8b 5b 04             	mov    0x4(%ebx),%ebx
 804964d:	85 db                	test   %ebx,%ebx
 804964f:	74 c5                	je     8049616 <sglib_SortedList_sort+0xe6>
 8049651:	eb f4                	jmp    8049647 <sglib_SortedList_sort+0x117>
 8049653:	89 1f                	mov    %ebx,(%edi)
 8049655:	8d 7b 04             	lea    0x4(%ebx),%edi
 8049658:	8b 5b 04             	mov    0x4(%ebx),%ebx
 804965b:	eb 8a                	jmp    80495e7 <sglib_SortedList_sort+0xb7>
 804965d:	8b 45 f0             	mov    0xfffffff0(%ebp),%eax
 8049660:	8b 55 08             	mov    0x8(%ebp),%edx
 8049663:	89 02                	mov    %eax,(%edx)
 8049665:	83 c4 24             	add    $0x24,%esp
 8049668:	5b                   	pop    %ebx
 8049669:	5e                   	pop    %esi
 804966a:	5f                   	pop    %edi
 804966b:	5d                   	pop    %ebp
 804966c:	c3                   	ret    
 804966d:	89 f3                	mov    %esi,%ebx
 804966f:	eb d6                	jmp    8049647 <sglib_SortedList_sort+0x117>
 8049671:	eb 0d                	jmp    8049680 <sglib_SortedList_it_current>
 8049673:	90                   	nop    
 8049674:	90                   	nop    
 8049675:	90                   	nop    
 8049676:	90                   	nop    
 8049677:	90                   	nop    
 8049678:	90                   	nop    
 8049679:	90                   	nop    
 804967a:	90                   	nop    
 804967b:	90                   	nop    
 804967c:	90                   	nop    
 804967d:	90                   	nop    
 804967e:	90                   	nop    
 804967f:	90                   	nop    

08049680 <sglib_SortedList_it_current>:
 8049680:	55                   	push   %ebp
 8049681:	89 e5                	mov    %esp,%ebp
 8049683:	8b 45 08             	mov    0x8(%ebp),%eax
 8049686:	5d                   	pop    %ebp
 8049687:	8b 00                	mov    (%eax),%eax
 8049689:	c3                   	ret    
 804968a:	8d b6 00 00 00 00    	lea    0x0(%esi),%esi

08049690 <sglib_SortedList_it_next>:
 8049690:	55                   	push   %ebp
 8049691:	89 e5                	mov    %esp,%ebp
 8049693:	57                   	push   %edi
 8049694:	56                   	push   %esi
 8049695:	53                   	push   %ebx
 8049696:	83 ec 0c             	sub    $0xc,%esp
 8049699:	8b 45 08             	mov    0x8(%ebp),%eax
 804969c:	8b 78 08             	mov    0x8(%eax),%edi
 804969f:	8b 58 04             	mov    0x4(%eax),%ebx
 80496a2:	c7 40 04 00 00 00 00 	movl   $0x0,0x4(%eax)
 80496a9:	85 ff                	test   %edi,%edi
 80496ab:	74 47                	je     80496f4 <sglib_SortedList_it_next+0x64>
 80496ad:	85 db                	test   %ebx,%ebx
 80496af:	8b 70 0c             	mov    0xc(%eax),%esi
 80496b2:	75 09                	jne    80496bd <sglib_SortedList_it_next+0x2d>
 80496b4:	eb 2f                	jmp    80496e5 <sglib_SortedList_it_next+0x55>
 80496b6:	8b 5b 04             	mov    0x4(%ebx),%ebx
 80496b9:	85 db                	test   %ebx,%ebx
 80496bb:	74 28                	je     80496e5 <sglib_SortedList_it_next+0x55>
 80496bd:	89 74 24 04          	mov    %esi,0x4(%esp)
 80496c1:	89 1c 24             	mov    %ebx,(%esp)
 80496c4:	ff d7                	call   *%edi
 80496c6:	83 f8 00             	cmp    $0x0,%eax
 80496c9:	7c eb                	jl     80496b6 <sglib_SortedList_it_next+0x26>
 80496cb:	7f 32                	jg     80496ff <sglib_SortedList_it_next+0x6f>
 80496cd:	8b 45 08             	mov    0x8(%ebp),%eax
 80496d0:	89 18                	mov    %ebx,(%eax)
 80496d2:	8b 43 04             	mov    0x4(%ebx),%eax
 80496d5:	8b 55 08             	mov    0x8(%ebp),%edx
 80496d8:	89 42 04             	mov    %eax,0x4(%edx)
 80496db:	83 c4 0c             	add    $0xc,%esp
 80496de:	89 d8                	mov    %ebx,%eax
 80496e0:	5b                   	pop    %ebx
 80496e1:	5e                   	pop    %esi
 80496e2:	5f                   	pop    %edi
 80496e3:	5d                   	pop    %ebp
 80496e4:	c3                   	ret    
 80496e5:	8b 45 08             	mov    0x8(%ebp),%eax
 80496e8:	89 18                	mov    %ebx,(%eax)
 80496ea:	83 c4 0c             	add    $0xc,%esp
 80496ed:	89 d8                	mov    %ebx,%eax
 80496ef:	5b                   	pop    %ebx
 80496f0:	5e                   	pop    %esi
 80496f1:	5f                   	pop    %edi
 80496f2:	5d                   	pop    %ebp
 80496f3:	c3                   	ret    
 80496f4:	8b 55 08             	mov    0x8(%ebp),%edx
 80496f7:	85 db                	test   %ebx,%ebx
 80496f9:	89 1a                	mov    %ebx,(%edx)
 80496fb:	75 d5                	jne    80496d2 <sglib_SortedList_it_next+0x42>
 80496fd:	eb dc                	jmp    80496db <sglib_SortedList_it_next+0x4b>
 80496ff:	8b 55 08             	mov    0x8(%ebp),%edx
 8049702:	31 db                	xor    %ebx,%ebx
 8049704:	c7 02 00 00 00 00    	movl   $0x0,(%edx)
 804970a:	eb cf                	jmp    80496db <sglib_SortedList_it_next+0x4b>
 804970c:	8d 74 26 00          	lea    0x0(%esi),%esi

08049710 <sglib_SortedList_it_init_on_equal>:
 8049710:	55                   	push   %ebp
 8049711:	89 e5                	mov    %esp,%ebp
 8049713:	8b 55 08             	mov    0x8(%ebp),%edx
 8049716:	8b 45 10             	mov    0x10(%ebp),%eax
 8049719:	89 42 08             	mov    %eax,0x8(%edx)
 804971c:	8b 45 14             	mov    0x14(%ebp),%eax
 804971f:	89 42 0c             	mov    %eax,0xc(%edx)
 8049722:	8b 45 0c             	mov    0xc(%ebp),%eax
 8049725:	89 42 04             	mov    %eax,0x4(%edx)
 8049728:	5d                   	pop    %ebp
 8049729:	e9 62 ff ff ff       	jmp    8049690 <sglib_SortedList_it_next>
 804972e:	66 90                	xchg   %ax,%ax

08049730 <sglib_SortedList_it_init>:
 8049730:	55                   	push   %ebp
 8049731:	89 e5                	mov    %esp,%ebp
 8049733:	83 ec 18             	sub    $0x18,%esp
 8049736:	8b 45 0c             	mov    0xc(%ebp),%eax
 8049739:	c7 44 24 0c 00 00 00 	movl   $0x0,0xc(%esp)
 8049740:	00 
 8049741:	c7 44 24 08 00 00 00 	movl   $0x0,0x8(%esp)
 8049748:	00 
 8049749:	89 44 24 04          	mov    %eax,0x4(%esp)
 804974d:	8b 45 08             	mov    0x8(%ebp),%eax
 8049750:	89 04 24             	mov    %eax,(%esp)
 8049753:	e8 b8 ff ff ff       	call   8049710 <sglib_SortedList_it_init_on_equal>
 8049758:	c9                   	leave  
 8049759:	c3                   	ret    
 804975a:	8d b6 00 00 00 00    	lea    0x0(%esi),%esi

08049760 <sglib_ReverseSortedList_is_member>:
 8049760:	55                   	push   %ebp
 8049761:	89 e5                	mov    %esp,%ebp
 8049763:	8b 45 08             	mov    0x8(%ebp),%eax
 8049766:	8b 55 0c             	mov    0xc(%ebp),%edx
 8049769:	85 c0                	test   %eax,%eax
 804976b:	74 19                	je     8049786 <sglib_ReverseSortedList_is_member+0x26>
 804976d:	39 d0                	cmp    %edx,%eax
 804976f:	74 15                	je     8049786 <sglib_ReverseSortedList_is_member+0x26>
 8049771:	8b 0a                	mov    (%edx),%ecx
 8049773:	3b 08                	cmp    (%eax),%ecx
 8049775:	75 0f                	jne    8049786 <sglib_ReverseSortedList_is_member+0x26>
 8049777:	8b 40 04             	mov    0x4(%eax),%eax
 804977a:	85 c0                	test   %eax,%eax
 804977c:	74 08                	je     8049786 <sglib_ReverseSortedList_is_member+0x26>
 804977e:	39 c2                	cmp    %eax,%edx
 8049780:	74 04                	je     8049786 <sglib_ReverseSortedList_is_member+0x26>
 8049782:	39 08                	cmp    %ecx,(%eax)
 8049784:	74 f1                	je     8049777 <sglib_ReverseSortedList_is_member+0x17>
 8049786:	39 d0                	cmp    %edx,%eax
 8049788:	5d                   	pop    %ebp
 8049789:	0f 94 c0             	sete   %al
 804978c:	0f b6 c0             	movzbl %al,%eax
 804978f:	c3                   	ret    

08049790 <sglib_ReverseSortedList_find_member>:
 8049790:	55                   	push   %ebp
 8049791:	89 e5                	mov    %esp,%ebp
 8049793:	53                   	push   %ebx
 8049794:	8b 5d 08             	mov    0x8(%ebp),%ebx
 8049797:	85 db                	test   %ebx,%ebx
 8049799:	74 29                	je     80497c4 <sglib_ReverseSortedList_find_member+0x34>
 804979b:	8b 45 0c             	mov    0xc(%ebp),%eax
 804979e:	8b 10                	mov    (%eax),%edx
 80497a0:	89 d1                	mov    %edx,%ecx
 80497a2:	2b 0b                	sub    (%ebx),%ecx
 80497a4:	79 23                	jns    80497c9 <sglib_ReverseSortedList_find_member+0x39>
 80497a6:	89 d8                	mov    %ebx,%eax
 80497a8:	eb 0c                	jmp    80497b6 <sglib_ReverseSortedList_find_member+0x26>
 80497aa:	8d b6 00 00 00 00    	lea    0x0(%esi),%esi
 80497b0:	89 d1                	mov    %edx,%ecx
 80497b2:	2b 08                	sub    (%eax),%ecx
 80497b4:	79 07                	jns    80497bd <sglib_ReverseSortedList_find_member+0x2d>
 80497b6:	8b 40 04             	mov    0x4(%eax),%eax
 80497b9:	85 c0                	test   %eax,%eax
 80497bb:	75 f3                	jne    80497b0 <sglib_ReverseSortedList_find_member+0x20>
 80497bd:	85 c9                	test   %ecx,%ecx
 80497bf:	75 03                	jne    80497c4 <sglib_ReverseSortedList_find_member+0x34>
 80497c1:	5b                   	pop    %ebx
 80497c2:	5d                   	pop    %ebp
 80497c3:	c3                   	ret    
 80497c4:	5b                   	pop    %ebx
 80497c5:	31 c0                	xor    %eax,%eax
 80497c7:	5d                   	pop    %ebp
 80497c8:	c3                   	ret    
 80497c9:	89 d8                	mov    %ebx,%eax
 80497cb:	90                   	nop    
 80497cc:	8d 74 26 00          	lea    0x0(%esi),%esi
 80497d0:	eb eb                	jmp    80497bd <sglib_ReverseSortedList_find_member+0x2d>
 80497d2:	8d b4 26 00 00 00 00 	lea    0x0(%esi),%esi
 80497d9:	8d bc 27 00 00 00 00 	lea    0x0(%edi),%edi

080497e0 <sglib_ReverseSortedList_add_if_not_member>:
 80497e0:	55                   	push   %ebp
 80497e1:	89 e5                	mov    %esp,%ebp
 80497e3:	57                   	push   %edi
 80497e4:	8b 7d 0c             	mov    0xc(%ebp),%edi
 80497e7:	56                   	push   %esi
 80497e8:	8b 75 08             	mov    0x8(%ebp),%esi
 80497eb:	53                   	push   %ebx
 80497ec:	8b 06                	mov    (%esi),%eax
 80497ee:	89 f1                	mov    %esi,%ecx
 80497f0:	85 c0                	test   %eax,%eax
 80497f2:	74 2f                	je     8049823 <sglib_ReverseSortedList_add_if_not_member+0x43>
 80497f4:	8b 17                	mov    (%edi),%edx
 80497f6:	eb 0a                	jmp    8049802 <sglib_ReverseSortedList_add_if_not_member+0x22>
 80497f8:	8d 48 04             	lea    0x4(%eax),%ecx
 80497fb:	8b 40 04             	mov    0x4(%eax),%eax
 80497fe:	85 c0                	test   %eax,%eax
 8049800:	74 06                	je     8049808 <sglib_ReverseSortedList_add_if_not_member+0x28>
 8049802:	89 d3                	mov    %edx,%ebx
 8049804:	2b 18                	sub    (%eax),%ebx
 8049806:	78 f0                	js     80497f8 <sglib_ReverseSortedList_add_if_not_member+0x18>
 8049808:	85 db                	test   %ebx,%ebx
 804980a:	75 17                	jne    8049823 <sglib_ReverseSortedList_add_if_not_member+0x43>
 804980c:	8b 55 10             	mov    0x10(%ebp),%edx
 804980f:	89 02                	mov    %eax,(%edx)
 8049811:	8b 45 10             	mov    0x10(%ebp),%eax
 8049814:	5b                   	pop    %ebx
 8049815:	5e                   	pop    %esi
 8049816:	5f                   	pop    %edi
 8049817:	8b 00                	mov    (%eax),%eax
 8049819:	5d                   	pop    %ebp
 804981a:	85 c0                	test   %eax,%eax
 804981c:	0f 94 c0             	sete   %al
 804981f:	0f b6 c0             	movzbl %al,%eax
 8049822:	c3                   	ret    
 8049823:	89 47 04             	mov    %eax,0x4(%edi)
 8049826:	8b 45 10             	mov    0x10(%ebp),%eax
 8049829:	89 39                	mov    %edi,(%ecx)
 804982b:	c7 00 00 00 00 00    	movl   $0x0,(%eax)
 8049831:	eb de                	jmp    8049811 <sglib_ReverseSortedList_add_if_not_member+0x31>
 8049833:	8d b6 00 00 00 00    	lea    0x0(%esi),%esi
 8049839:	8d bc 27 00 00 00 00 	lea    0x0(%edi),%edi

08049840 <sglib_ReverseSortedList_add>:
 8049840:	55                   	push   %ebp
 8049841:	89 e5                	mov    %esp,%ebp
 8049843:	8b 55 08             	mov    0x8(%ebp),%edx
 8049846:	53                   	push   %ebx
 8049847:	8b 5d 0c             	mov    0xc(%ebp),%ebx
 804984a:	8b 02                	mov    (%edx),%eax
 804984c:	85 c0                	test   %eax,%eax
 804984e:	74 12                	je     8049862 <sglib_ReverseSortedList_add+0x22>
 8049850:	8b 0b                	mov    (%ebx),%ecx
 8049852:	eb 0a                	jmp    804985e <sglib_ReverseSortedList_add+0x1e>
 8049854:	8d 50 04             	lea    0x4(%eax),%edx
 8049857:	8b 40 04             	mov    0x4(%eax),%eax
 804985a:	85 c0                	test   %eax,%eax
 804985c:	74 04                	je     8049862 <sglib_ReverseSortedList_add+0x22>
 804985e:	3b 08                	cmp    (%eax),%ecx
 8049860:	78 f2                	js     8049854 <sglib_ReverseSortedList_add+0x14>
 8049862:	89 43 04             	mov    %eax,0x4(%ebx)
 8049865:	89 1a                	mov    %ebx,(%edx)
 8049867:	5b                   	pop    %ebx
 8049868:	5d                   	pop    %ebp
 8049869:	c3                   	ret    
 804986a:	8d b6 00 00 00 00    	lea    0x0(%esi),%esi

08049870 <sglib_ReverseSortedList_delete_if_member>:
 8049870:	55                   	push   %ebp
 8049871:	89 e5                	mov    %esp,%ebp
 8049873:	56                   	push   %esi
 8049874:	53                   	push   %ebx
 8049875:	8b 4d 08             	mov    0x8(%ebp),%ecx
 8049878:	8b 75 10             	mov    0x10(%ebp),%esi
 804987b:	8b 11                	mov    (%ecx),%edx
 804987d:	85 d2                	test   %edx,%edx
 804987f:	74 30                	je     80498b1 <sglib_ReverseSortedList_delete_if_member+0x41>
 8049881:	8b 45 0c             	mov    0xc(%ebp),%eax
 8049884:	8b 00                	mov    (%eax),%eax
 8049886:	eb 0a                	jmp    8049892 <sglib_ReverseSortedList_delete_if_member+0x22>
 8049888:	8d 4a 04             	lea    0x4(%edx),%ecx
 804988b:	8b 52 04             	mov    0x4(%edx),%edx
 804988e:	85 d2                	test   %edx,%edx
 8049890:	74 06                	je     8049898 <sglib_ReverseSortedList_delete_if_member+0x28>
 8049892:	89 c3                	mov    %eax,%ebx
 8049894:	2b 1a                	sub    (%edx),%ebx
 8049896:	78 f0                	js     8049888 <sglib_ReverseSortedList_delete_if_member+0x18>
 8049898:	85 db                	test   %ebx,%ebx
 804989a:	75 15                	jne    80498b1 <sglib_ReverseSortedList_delete_if_member+0x41>
 804989c:	89 16                	mov    %edx,(%esi)
 804989e:	8b 01                	mov    (%ecx),%eax
 80498a0:	8b 40 04             	mov    0x4(%eax),%eax
 80498a3:	89 01                	mov    %eax,(%ecx)
 80498a5:	31 c0                	xor    %eax,%eax
 80498a7:	83 3e 00             	cmpl   $0x0,(%esi)
 80498aa:	5b                   	pop    %ebx
 80498ab:	5e                   	pop    %esi
 80498ac:	5d                   	pop    %ebp
 80498ad:	0f 95 c0             	setne  %al
 80498b0:	c3                   	ret    
 80498b1:	c7 06 00 00 00 00    	movl   $0x0,(%esi)
 80498b7:	31 c0                	xor    %eax,%eax
 80498b9:	83 3e 00             	cmpl   $0x0,(%esi)
 80498bc:	5b                   	pop    %ebx
 80498bd:	5e                   	pop    %esi
 80498be:	5d                   	pop    %ebp
 80498bf:	0f 95 c0             	setne  %al
 80498c2:	c3                   	ret    
 80498c3:	8d b6 00 00 00 00    	lea    0x0(%esi),%esi
 80498c9:	8d bc 27 00 00 00 00 	lea    0x0(%edi),%edi

080498d0 <sglib_ReverseSortedList_len>:
 80498d0:	55                   	push   %ebp
 80498d1:	31 d2                	xor    %edx,%edx
 80498d3:	89 e5                	mov    %esp,%ebp
 80498d5:	8b 45 08             	mov    0x8(%ebp),%eax
 80498d8:	85 c0                	test   %eax,%eax
 80498da:	74 0e                	je     80498ea <sglib_ReverseSortedList_len+0x1a>
 80498dc:	8d 74 26 00          	lea    0x0(%esi),%esi
 80498e0:	8b 40 04             	mov    0x4(%eax),%eax
 80498e3:	83 c2 01             	add    $0x1,%edx
 80498e6:	85 c0                	test   %eax,%eax
 80498e8:	75 f6                	jne    80498e0 <sglib_ReverseSortedList_len+0x10>
 80498ea:	5d                   	pop    %ebp
 80498eb:	89 d0                	mov    %edx,%eax
 80498ed:	c3                   	ret    
 80498ee:	66 90                	xchg   %ax,%ax

080498f0 <sglib_ReverseSortedList_sort>:
 80498f0:	55                   	push   %ebp
 80498f1:	89 e5                	mov    %esp,%ebp
 80498f3:	57                   	push   %edi
 80498f4:	56                   	push   %esi
 80498f5:	53                   	push   %ebx
 80498f6:	83 ec 1c             	sub    $0x1c,%esp
 80498f9:	8b 55 08             	mov    0x8(%ebp),%edx
 80498fc:	c7 45 dc 01 00 00 00 	movl   $0x1,0xffffffdc(%ebp)
 8049903:	8b 02                	mov    (%edx),%eax
 8049905:	89 45 f0             	mov    %eax,0xfffffff0(%ebp)
 8049908:	8b 55 f0             	mov    0xfffffff0(%ebp),%edx
 804990b:	31 c0                	xor    %eax,%eax
 804990d:	c7 45 f0 00 00 00 00 	movl   $0x0,0xfffffff0(%ebp)
 8049914:	85 d2                	test   %edx,%edx
 8049916:	74 4a                	je     8049962 <sglib_ReverseSortedList_sort+0x72>
 8049918:	83 7d dc 01          	cmpl   $0x1,0xffffffdc(%ebp)
 804991c:	89 d1                	mov    %edx,%ecx
 804991e:	8d 5d f0             	lea    0xfffffff0(%ebp),%ebx
 8049921:	0f 9f 45 e3          	setg   0xffffffe3(%ebp)
 8049925:	31 ff                	xor    %edi,%edi
 8049927:	85 c9                	test   %ecx,%ecx
 8049929:	74 1a                	je     8049945 <sglib_ReverseSortedList_sort+0x55>
 804992b:	80 7d e3 00          	cmpb   $0x0,0xffffffe3(%ebp)
 804992f:	b8 01 00 00 00       	mov    $0x1,%eax
 8049934:	74 3a                	je     8049970 <sglib_ReverseSortedList_sort+0x80>
 8049936:	83 c0 01             	add    $0x1,%eax
 8049939:	8b 49 04             	mov    0x4(%ecx),%ecx
 804993c:	3b 45 dc             	cmp    0xffffffdc(%ebp),%eax
 804993f:	7d 2f                	jge    8049970 <sglib_ReverseSortedList_sort+0x80>
 8049941:	85 c9                	test   %ecx,%ecx
 8049943:	75 f1                	jne    8049936 <sglib_ReverseSortedList_sort+0x46>
 8049945:	85 ff                	test   %edi,%edi
 8049947:	89 13                	mov    %edx,(%ebx)
 8049949:	0f 84 ae 00 00 00    	je     80499fd <sglib_ReverseSortedList_sort+0x10d>
 804994f:	8b 55 f0             	mov    0xfffffff0(%ebp),%edx
 8049952:	31 c0                	xor    %eax,%eax
 8049954:	d1 65 dc             	shll   0xffffffdc(%ebp)
 8049957:	c7 45 f0 00 00 00 00 	movl   $0x0,0xfffffff0(%ebp)
 804995e:	85 d2                	test   %edx,%edx
 8049960:	75 b6                	jne    8049918 <sglib_ReverseSortedList_sort+0x28>
 8049962:	8b 55 08             	mov    0x8(%ebp),%edx
 8049965:	89 02                	mov    %eax,(%edx)
 8049967:	83 c4 1c             	add    $0x1c,%esp
 804996a:	5b                   	pop    %ebx
 804996b:	5e                   	pop    %esi
 804996c:	5f                   	pop    %edi
 804996d:	5d                   	pop    %ebp
 804996e:	c3                   	ret    
 804996f:	90                   	nop    
 8049970:	85 c9                	test   %ecx,%ecx
 8049972:	74 d1                	je     8049945 <sglib_ReverseSortedList_sort+0x55>
 8049974:	8b 41 04             	mov    0x4(%ecx),%eax
 8049977:	c7 41 04 00 00 00 00 	movl   $0x0,0x4(%ecx)
 804997e:	85 c0                	test   %eax,%eax
 8049980:	0f 95 c1             	setne  %cl
 8049983:	80 7d e3 00          	cmpb   $0x0,0xffffffe3(%ebp)
 8049987:	89 cf                	mov    %ecx,%edi
 8049989:	74 59                	je     80499e4 <sglib_ReverseSortedList_sort+0xf4>
 804998b:	84 c9                	test   %cl,%cl
 804998d:	be 01 00 00 00       	mov    $0x1,%esi
 8049992:	89 45 d8             	mov    %eax,0xffffffd8(%ebp)
 8049995:	74 4d                	je     80499e4 <sglib_ReverseSortedList_sort+0xf4>
 8049997:	8b 4d d8             	mov    0xffffffd8(%ebp),%ecx
 804999a:	83 c6 01             	add    $0x1,%esi
 804999d:	3b 75 dc             	cmp    0xffffffdc(%ebp),%esi
 80499a0:	8b 49 04             	mov    0x4(%ecx),%ecx
 80499a3:	89 4d d8             	mov    %ecx,0xffffffd8(%ebp)
 80499a6:	7d 3f                	jge    80499e7 <sglib_ReverseSortedList_sort+0xf7>
 80499a8:	85 c9                	test   %ecx,%ecx
 80499aa:	75 eb                	jne    8049997 <sglib_ReverseSortedList_sort+0xa7>
 80499ac:	31 f6                	xor    %esi,%esi
 80499ae:	66 90                	xchg   %ax,%ax
 80499b0:	89 f9                	mov    %edi,%ecx
 80499b2:	84 c9                	test   %cl,%cl
 80499b4:	74 0c                	je     80499c2 <sglib_ReverseSortedList_sort+0xd2>
 80499b6:	89 03                	mov    %eax,(%ebx)
 80499b8:	8d 58 04             	lea    0x4(%eax),%ebx
 80499bb:	8b 40 04             	mov    0x4(%eax),%eax
 80499be:	85 c0                	test   %eax,%eax
 80499c0:	75 f4                	jne    80499b6 <sglib_ReverseSortedList_sort+0xc6>
 80499c2:	89 13                	mov    %edx,(%ebx)
 80499c4:	8d 5a 04             	lea    0x4(%edx),%ebx
 80499c7:	8b 52 04             	mov    0x4(%edx),%edx
 80499ca:	85 d2                	test   %edx,%edx
 80499cc:	75 f6                	jne    80499c4 <sglib_ReverseSortedList_sort+0xd4>
 80499ce:	85 f6                	test   %esi,%esi
 80499d0:	bf 01 00 00 00       	mov    $0x1,%edi
 80499d5:	89 f1                	mov    %esi,%ecx
 80499d7:	0f 84 72 ff ff ff    	je     804994f <sglib_ReverseSortedList_sort+0x5f>
 80499dd:	89 f2                	mov    %esi,%edx
 80499df:	e9 43 ff ff ff       	jmp    8049927 <sglib_ReverseSortedList_sort+0x37>
 80499e4:	89 45 d8             	mov    %eax,0xffffffd8(%ebp)
 80499e7:	8b 4d d8             	mov    0xffffffd8(%ebp),%ecx
 80499ea:	85 c9                	test   %ecx,%ecx
 80499ec:	74 be                	je     80499ac <sglib_ReverseSortedList_sort+0xbc>
 80499ee:	8b 4d d8             	mov    0xffffffd8(%ebp),%ecx
 80499f1:	8b 71 04             	mov    0x4(%ecx),%esi
 80499f4:	c7 41 04 00 00 00 00 	movl   $0x0,0x4(%ecx)
 80499fb:	eb b3                	jmp    80499b0 <sglib_ReverseSortedList_sort+0xc0>
 80499fd:	8b 45 f0             	mov    0xfffffff0(%ebp),%eax
 8049a00:	8b 55 08             	mov    0x8(%ebp),%edx
 8049a03:	89 02                	mov    %eax,(%edx)
 8049a05:	83 c4 1c             	add    $0x1c,%esp
 8049a08:	5b                   	pop    %ebx
 8049a09:	5e                   	pop    %esi
 8049a0a:	5f                   	pop    %edi
 8049a0b:	5d                   	pop    %ebp
 8049a0c:	c3                   	ret    
 8049a0d:	8d 76 00             	lea    0x0(%esi),%esi

08049a10 <sglib_ReverseSortedList_it_current>:
 8049a10:	55                   	push   %ebp
 8049a11:	89 e5                	mov    %esp,%ebp
 8049a13:	8b 45 08             	mov    0x8(%ebp),%eax
 8049a16:	5d                   	pop    %ebp
 8049a17:	8b 00                	mov    (%eax),%eax
 8049a19:	c3                   	ret    
 8049a1a:	8d b6 00 00 00 00    	lea    0x0(%esi),%esi

08049a20 <sglib_ReverseSortedList_it_next>:
 8049a20:	55                   	push   %ebp
 8049a21:	89 e5                	mov    %esp,%ebp
 8049a23:	57                   	push   %edi
 8049a24:	56                   	push   %esi
 8049a25:	53                   	push   %ebx
 8049a26:	83 ec 0c             	sub    $0xc,%esp
 8049a29:	8b 45 08             	mov    0x8(%ebp),%eax
 8049a2c:	8b 78 08             	mov    0x8(%eax),%edi
 8049a2f:	8b 58 04             	mov    0x4(%eax),%ebx
 8049a32:	c7 40 04 00 00 00 00 	movl   $0x0,0x4(%eax)
 8049a39:	85 ff                	test   %edi,%edi
 8049a3b:	74 47                	je     8049a84 <sglib_ReverseSortedList_it_next+0x64>
 8049a3d:	85 db                	test   %ebx,%ebx
 8049a3f:	8b 70 0c             	mov    0xc(%eax),%esi
 8049a42:	75 09                	jne    8049a4d <sglib_ReverseSortedList_it_next+0x2d>
 8049a44:	eb 2f                	jmp    8049a75 <sglib_ReverseSortedList_it_next+0x55>
 8049a46:	8b 5b 04             	mov    0x4(%ebx),%ebx
 8049a49:	85 db                	test   %ebx,%ebx
 8049a4b:	74 28                	je     8049a75 <sglib_ReverseSortedList_it_next+0x55>
 8049a4d:	89 74 24 04          	mov    %esi,0x4(%esp)
 8049a51:	89 1c 24             	mov    %ebx,(%esp)
 8049a54:	ff d7                	call   *%edi
 8049a56:	83 f8 00             	cmp    $0x0,%eax
 8049a59:	7c eb                	jl     8049a46 <sglib_ReverseSortedList_it_next+0x26>
 8049a5b:	7f 32                	jg     8049a8f <sglib_ReverseSortedList_it_next+0x6f>
 8049a5d:	8b 45 08             	mov    0x8(%ebp),%eax
 8049a60:	89 18                	mov    %ebx,(%eax)
 8049a62:	8b 43 04             	mov    0x4(%ebx),%eax
 8049a65:	8b 55 08             	mov    0x8(%ebp),%edx
 8049a68:	89 42 04             	mov    %eax,0x4(%edx)
 8049a6b:	83 c4 0c             	add    $0xc,%esp
 8049a6e:	89 d8                	mov    %ebx,%eax
 8049a70:	5b                   	pop    %ebx
 8049a71:	5e                   	pop    %esi
 8049a72:	5f                   	pop    %edi
 8049a73:	5d                   	pop    %ebp
 8049a74:	c3                   	ret    
 8049a75:	8b 45 08             	mov    0x8(%ebp),%eax
 8049a78:	89 18                	mov    %ebx,(%eax)
 8049a7a:	83 c4 0c             	add    $0xc,%esp
 8049a7d:	89 d8                	mov    %ebx,%eax
 8049a7f:	5b                   	pop    %ebx
 8049a80:	5e                   	pop    %esi
 8049a81:	5f                   	pop    %edi
 8049a82:	5d                   	pop    %ebp
 8049a83:	c3                   	ret    
 8049a84:	8b 55 08             	mov    0x8(%ebp),%edx
 8049a87:	85 db                	test   %ebx,%ebx
 8049a89:	89 1a                	mov    %ebx,(%edx)
 8049a8b:	75 d5                	jne    8049a62 <sglib_ReverseSortedList_it_next+0x42>
 8049a8d:	eb dc                	jmp    8049a6b <sglib_ReverseSortedList_it_next+0x4b>
 8049a8f:	8b 55 08             	mov    0x8(%ebp),%edx
 8049a92:	31 db                	xor    %ebx,%ebx
 8049a94:	c7 02 00 00 00 00    	movl   $0x0,(%edx)
 8049a9a:	eb cf                	jmp    8049a6b <sglib_ReverseSortedList_it_next+0x4b>
 8049a9c:	8d 74 26 00          	lea    0x0(%esi),%esi

08049aa0 <sglib_ReverseSortedList_it_init_on_equal>:
 8049aa0:	55                   	push   %ebp
 8049aa1:	89 e5                	mov    %esp,%ebp
 8049aa3:	8b 55 08             	mov    0x8(%ebp),%edx
 8049aa6:	8b 45 10             	mov    0x10(%ebp),%eax
 8049aa9:	89 42 08             	mov    %eax,0x8(%edx)
 8049aac:	8b 45 14             	mov    0x14(%ebp),%eax
 8049aaf:	89 42 0c             	mov    %eax,0xc(%edx)
 8049ab2:	8b 45 0c             	mov    0xc(%ebp),%eax
 8049ab5:	89 42 04             	mov    %eax,0x4(%edx)
 8049ab8:	5d                   	pop    %ebp
 8049ab9:	e9 62 ff ff ff       	jmp    8049a20 <sglib_ReverseSortedList_it_next>
 8049abe:	66 90                	xchg   %ax,%ax

08049ac0 <sglib_ReverseSortedList_it_init>:
 8049ac0:	55                   	push   %ebp
 8049ac1:	89 e5                	mov    %esp,%ebp
 8049ac3:	83 ec 18             	sub    $0x18,%esp
 8049ac6:	8b 45 0c             	mov    0xc(%ebp),%eax
 8049ac9:	c7 44 24 0c 00 00 00 	movl   $0x0,0xc(%esp)
 8049ad0:	00 
 8049ad1:	c7 44 24 08 00 00 00 	movl   $0x0,0x8(%esp)
 8049ad8:	00 
 8049ad9:	89 44 24 04          	mov    %eax,0x4(%esp)
 8049add:	8b 45 08             	mov    0x8(%ebp),%eax
 8049ae0:	89 04 24             	mov    %eax,(%esp)
 8049ae3:	e8 b8 ff ff ff       	call   8049aa0 <sglib_ReverseSortedList_it_init_on_equal>
 8049ae8:	c9                   	leave  
 8049ae9:	c3                   	ret    
 8049aea:	8d b6 00 00 00 00    	lea    0x0(%esi),%esi

08049af0 <sglib___Tree_add_recursive>:
 8049af0:	55                   	push   %ebp
 8049af1:	89 e5                	mov    %esp,%ebp
 8049af3:	83 ec 14             	sub    $0x14,%esp
 8049af6:	89 75 f8             	mov    %esi,0xfffffff8(%ebp)
 8049af9:	89 d6                	mov    %edx,%esi
 8049afb:	89 7d fc             	mov    %edi,0xfffffffc(%ebp)
 8049afe:	89 c7                	mov    %eax,%edi
 8049b00:	89 5d f4             	mov    %ebx,0xfffffff4(%ebp)
 8049b03:	8b 18                	mov    (%eax),%ebx
 8049b05:	85 db                	test   %ebx,%ebx
 8049b07:	0f 84 c3 00 00 00    	je     8049bd0 <sglib___Tree_add_recursive+0xe0>
 8049b0d:	89 5c 24 04          	mov    %ebx,0x4(%esp)
 8049b11:	89 14 24             	mov    %edx,(%esp)
 8049b14:	e8 f7 ea ff ff       	call   8048610 <myListCmp>
 8049b19:	83 f8 00             	cmp    $0x0,%eax
 8049b1c:	7c 46                	jl     8049b64 <sglib___Tree_add_recursive+0x74>
 8049b1e:	74 40                	je     8049b60 <sglib___Tree_add_recursive+0x70>
 8049b20:	8d 43 14             	lea    0x14(%ebx),%eax
 8049b23:	89 f2                	mov    %esi,%edx
 8049b25:	e8 c6 ff ff ff       	call   8049af0 <sglib___Tree_add_recursive>
 8049b2a:	80 7b 0c 00          	cmpb   $0x0,0xc(%ebx)
 8049b2e:	66 90                	xchg   %ax,%ax
 8049b30:	75 20                	jne    8049b52 <sglib___Tree_add_recursive+0x62>
 8049b32:	8b 37                	mov    (%edi),%esi
 8049b34:	8b 46 10             	mov    0x10(%esi),%eax
 8049b37:	8b 5e 14             	mov    0x14(%esi),%ebx
 8049b3a:	85 c0                	test   %eax,%eax
 8049b3c:	74 0a                	je     8049b48 <sglib___Tree_add_recursive+0x58>
 8049b3e:	80 78 0c 01          	cmpb   $0x1,0xc(%eax)
 8049b42:	0f 84 df 00 00 00    	je     8049c27 <sglib___Tree_add_recursive+0x137>
 8049b48:	80 7b 0c 01          	cmpb   $0x1,0xc(%ebx)
 8049b4c:	0f 84 8e 00 00 00    	je     8049be0 <sglib___Tree_add_recursive+0xf0>
 8049b52:	8b 5d f4             	mov    0xfffffff4(%ebp),%ebx
 8049b55:	8b 75 f8             	mov    0xfffffff8(%ebp),%esi
 8049b58:	8b 7d fc             	mov    0xfffffffc(%ebp),%edi
 8049b5b:	89 ec                	mov    %ebp,%esp
 8049b5d:	5d                   	pop    %ebp
 8049b5e:	c3                   	ret    
 8049b5f:	90                   	nop    
 8049b60:	39 de                	cmp    %ebx,%esi
 8049b62:	73 bc                	jae    8049b20 <sglib___Tree_add_recursive+0x30>
 8049b64:	8d 43 10             	lea    0x10(%ebx),%eax
 8049b67:	89 f2                	mov    %esi,%edx
 8049b69:	e8 82 ff ff ff       	call   8049af0 <sglib___Tree_add_recursive>
 8049b6e:	80 7b 0c 00          	cmpb   $0x0,0xc(%ebx)
 8049b72:	75 de                	jne    8049b52 <sglib___Tree_add_recursive+0x62>
 8049b74:	8b 37                	mov    (%edi),%esi
 8049b76:	8b 46 14             	mov    0x14(%esi),%eax
 8049b79:	8b 5e 10             	mov    0x10(%esi),%ebx
 8049b7c:	85 c0                	test   %eax,%eax
 8049b7e:	74 0a                	je     8049b8a <sglib___Tree_add_recursive+0x9a>
 8049b80:	80 78 0c 01          	cmpb   $0x1,0xc(%eax)
 8049b84:	0f 84 dd 00 00 00    	je     8049c67 <sglib___Tree_add_recursive+0x177>
 8049b8a:	80 7b 0c 01          	cmpb   $0x1,0xc(%ebx)
 8049b8e:	75 c2                	jne    8049b52 <sglib___Tree_add_recursive+0x62>
 8049b90:	8b 53 10             	mov    0x10(%ebx),%edx
 8049b93:	85 d2                	test   %edx,%edx
 8049b95:	74 0a                	je     8049ba1 <sglib___Tree_add_recursive+0xb1>
 8049b97:	80 7a 0c 01          	cmpb   $0x1,0xc(%edx)
 8049b9b:	0f 84 0a 01 00 00    	je     8049cab <sglib___Tree_add_recursive+0x1bb>
 8049ba1:	8b 4b 14             	mov    0x14(%ebx),%ecx
 8049ba4:	85 c9                	test   %ecx,%ecx
 8049ba6:	74 aa                	je     8049b52 <sglib___Tree_add_recursive+0x62>
 8049ba8:	80 79 0c 01          	cmpb   $0x1,0xc(%ecx)
 8049bac:	75 a4                	jne    8049b52 <sglib___Tree_add_recursive+0x62>
 8049bae:	8b 51 14             	mov    0x14(%ecx),%edx
 8049bb1:	8b 41 10             	mov    0x10(%ecx),%eax
 8049bb4:	c6 41 0c 00          	movb   $0x0,0xc(%ecx)
 8049bb8:	c6 46 0c 01          	movb   $0x1,0xc(%esi)
 8049bbc:	89 56 10             	mov    %edx,0x10(%esi)
 8049bbf:	89 43 14             	mov    %eax,0x14(%ebx)
 8049bc2:	89 59 10             	mov    %ebx,0x10(%ecx)
 8049bc5:	89 71 14             	mov    %esi,0x14(%ecx)
 8049bc8:	89 0f                	mov    %ecx,(%edi)
 8049bca:	eb 86                	jmp    8049b52 <sglib___Tree_add_recursive+0x62>
 8049bcc:	8d 74 26 00          	lea    0x0(%esi),%esi
 8049bd0:	c6 42 0c 01          	movb   $0x1,0xc(%edx)
 8049bd4:	89 17                	mov    %edx,(%edi)
 8049bd6:	e9 77 ff ff ff       	jmp    8049b52 <sglib___Tree_add_recursive+0x62>
 8049bdb:	90                   	nop    
 8049bdc:	8d 74 26 00          	lea    0x0(%esi),%esi
 8049be0:	8b 53 14             	mov    0x14(%ebx),%edx
 8049be3:	85 d2                	test   %edx,%edx
 8049be5:	74 0a                	je     8049bf1 <sglib___Tree_add_recursive+0x101>
 8049be7:	80 7a 0c 01          	cmpb   $0x1,0xc(%edx)
 8049beb:	0f 84 9f 00 00 00    	je     8049c90 <sglib___Tree_add_recursive+0x1a0>
 8049bf1:	8b 4b 10             	mov    0x10(%ebx),%ecx
 8049bf4:	85 c9                	test   %ecx,%ecx
 8049bf6:	0f 84 56 ff ff ff    	je     8049b52 <sglib___Tree_add_recursive+0x62>
 8049bfc:	80 79 0c 01          	cmpb   $0x1,0xc(%ecx)
 8049c00:	0f 85 4c ff ff ff    	jne    8049b52 <sglib___Tree_add_recursive+0x62>
 8049c06:	8b 51 10             	mov    0x10(%ecx),%edx
 8049c09:	8b 41 14             	mov    0x14(%ecx),%eax
 8049c0c:	c6 41 0c 00          	movb   $0x0,0xc(%ecx)
 8049c10:	c6 46 0c 01          	movb   $0x1,0xc(%esi)
 8049c14:	89 56 14             	mov    %edx,0x14(%esi)
 8049c17:	89 43 10             	mov    %eax,0x10(%ebx)
 8049c1a:	89 59 14             	mov    %ebx,0x14(%ecx)
 8049c1d:	89 71 10             	mov    %esi,0x10(%ecx)
 8049c20:	89 0f                	mov    %ecx,(%edi)
 8049c22:	e9 2b ff ff ff       	jmp    8049b52 <sglib___Tree_add_recursive+0x62>
 8049c27:	80 7b 0c 01          	cmpb   $0x1,0xc(%ebx)
 8049c2b:	0f 85 21 ff ff ff    	jne    8049b52 <sglib___Tree_add_recursive+0x62>
 8049c31:	8b 53 14             	mov    0x14(%ebx),%edx
 8049c34:	85 d2                	test   %edx,%edx
 8049c36:	74 06                	je     8049c3e <sglib___Tree_add_recursive+0x14e>
 8049c38:	80 7a 0c 01          	cmpb   $0x1,0xc(%edx)
 8049c3c:	74 18                	je     8049c56 <sglib___Tree_add_recursive+0x166>
 8049c3e:	8b 53 10             	mov    0x10(%ebx),%edx
 8049c41:	85 d2                	test   %edx,%edx
 8049c43:	0f 84 09 ff ff ff    	je     8049b52 <sglib___Tree_add_recursive+0x62>
 8049c49:	80 7a 0c 01          	cmpb   $0x1,0xc(%edx)
 8049c4d:	8d 76 00             	lea    0x0(%esi),%esi
 8049c50:	0f 85 fc fe ff ff    	jne    8049b52 <sglib___Tree_add_recursive+0x62>
 8049c56:	c6 43 0c 00          	movb   $0x0,0xc(%ebx)
 8049c5a:	c6 40 0c 00          	movb   $0x0,0xc(%eax)
 8049c5e:	c6 46 0c 01          	movb   $0x1,0xc(%esi)
 8049c62:	e9 eb fe ff ff       	jmp    8049b52 <sglib___Tree_add_recursive+0x62>
 8049c67:	80 7b 0c 01          	cmpb   $0x1,0xc(%ebx)
 8049c6b:	0f 85 e1 fe ff ff    	jne    8049b52 <sglib___Tree_add_recursive+0x62>
 8049c71:	8b 53 10             	mov    0x10(%ebx),%edx
 8049c74:	85 d2                	test   %edx,%edx
 8049c76:	74 06                	je     8049c7e <sglib___Tree_add_recursive+0x18e>
 8049c78:	80 7a 0c 01          	cmpb   $0x1,0xc(%edx)
 8049c7c:	74 d8                	je     8049c56 <sglib___Tree_add_recursive+0x166>
 8049c7e:	8b 53 14             	mov    0x14(%ebx),%edx
 8049c81:	85 d2                	test   %edx,%edx
 8049c83:	75 c4                	jne    8049c49 <sglib___Tree_add_recursive+0x159>
 8049c85:	e9 c8 fe ff ff       	jmp    8049b52 <sglib___Tree_add_recursive+0x62>
 8049c8a:	8d b6 00 00 00 00    	lea    0x0(%esi),%esi
 8049c90:	8b 43 10             	mov    0x10(%ebx),%eax
 8049c93:	c6 46 0c 01          	movb   $0x1,0xc(%esi)
 8049c97:	89 73 10             	mov    %esi,0x10(%ebx)
 8049c9a:	c6 43 0c 00          	movb   $0x0,0xc(%ebx)
 8049c9e:	89 46 14             	mov    %eax,0x14(%esi)
 8049ca1:	89 53 14             	mov    %edx,0x14(%ebx)
 8049ca4:	89 1f                	mov    %ebx,(%edi)
 8049ca6:	e9 a7 fe ff ff       	jmp    8049b52 <sglib___Tree_add_recursive+0x62>
 8049cab:	8b 43 14             	mov    0x14(%ebx),%eax
 8049cae:	c6 46 0c 01          	movb   $0x1,0xc(%esi)
 8049cb2:	89 73 14             	mov    %esi,0x14(%ebx)
 8049cb5:	c6 43 0c 00          	movb   $0x0,0xc(%ebx)
 8049cb9:	89 46 10             	mov    %eax,0x10(%esi)
 8049cbc:	89 53 10             	mov    %edx,0x10(%ebx)
 8049cbf:	89 1f                	mov    %ebx,(%edi)
 8049cc1:	e9 8c fe ff ff       	jmp    8049b52 <sglib___Tree_add_recursive+0x62>
 8049cc6:	8d 76 00             	lea    0x0(%esi),%esi
 8049cc9:	8d bc 27 00 00 00 00 	lea    0x0(%edi),%edi

08049cd0 <sglib_Tree_add>:
 8049cd0:	55                   	push   %ebp
 8049cd1:	89 e5                	mov    %esp,%ebp
 8049cd3:	8b 55 0c             	mov    0xc(%ebp),%edx
 8049cd6:	53                   	push   %ebx
 8049cd7:	8b 5d 08             	mov    0x8(%ebp),%ebx
 8049cda:	c7 42 14 00 00 00 00 	movl   $0x0,0x14(%edx)
 8049ce1:	89 d8                	mov    %ebx,%eax
 8049ce3:	c7 42 10 00 00 00 00 	movl   $0x0,0x10(%edx)
 8049cea:	e8 01 fe ff ff       	call   8049af0 <sglib___Tree_add_recursive>
 8049cef:	8b 03                	mov    (%ebx),%eax
 8049cf1:	c6 40 0c 00          	movb   $0x0,0xc(%eax)
 8049cf5:	5b                   	pop    %ebx
 8049cf6:	5d                   	pop    %ebp
 8049cf7:	c3                   	ret    
 8049cf8:	90                   	nop    
 8049cf9:	8d b4 26 00 00 00 00 	lea    0x0(%esi),%esi

08049d00 <sglib_Tree_find_member>:
 8049d00:	55                   	push   %ebp
 8049d01:	89 e5                	mov    %esp,%ebp
 8049d03:	56                   	push   %esi
 8049d04:	53                   	push   %ebx
 8049d05:	31 db                	xor    %ebx,%ebx
 8049d07:	83 ec 08             	sub    $0x8,%esp
 8049d0a:	8b 45 08             	mov    0x8(%ebp),%eax
 8049d0d:	8b 75 0c             	mov    0xc(%ebp),%esi
 8049d10:	85 c0                	test   %eax,%eax
 8049d12:	74 26                	je     8049d3a <sglib_Tree_find_member+0x3a>
 8049d14:	89 c3                	mov    %eax,%ebx
 8049d16:	eb 0a                	jmp    8049d22 <sglib_Tree_find_member+0x22>
 8049d18:	74 20                	je     8049d3a <sglib_Tree_find_member+0x3a>
 8049d1a:	8b 5b 14             	mov    0x14(%ebx),%ebx
 8049d1d:	85 db                	test   %ebx,%ebx
 8049d1f:	90                   	nop    
 8049d20:	74 18                	je     8049d3a <sglib_Tree_find_member+0x3a>
 8049d22:	89 5c 24 04          	mov    %ebx,0x4(%esp)
 8049d26:	89 34 24             	mov    %esi,(%esp)
 8049d29:	e8 e2 e8 ff ff       	call   8048610 <myListCmp>
 8049d2e:	83 f8 00             	cmp    $0x0,%eax
 8049d31:	7d e5                	jge    8049d18 <sglib_Tree_find_member+0x18>
 8049d33:	8b 5b 10             	mov    0x10(%ebx),%ebx
 8049d36:	85 db                	test   %ebx,%ebx
 8049d38:	75 e8                	jne    8049d22 <sglib_Tree_find_member+0x22>
 8049d3a:	83 c4 08             	add    $0x8,%esp
 8049d3d:	89 d8                	mov    %ebx,%eax
 8049d3f:	5b                   	pop    %ebx
 8049d40:	5e                   	pop    %esi
 8049d41:	5d                   	pop    %ebp
 8049d42:	c3                   	ret    
 8049d43:	8d b6 00 00 00 00    	lea    0x0(%esi),%esi
 8049d49:	8d bc 27 00 00 00 00 	lea    0x0(%edi),%edi

08049d50 <sglib_Tree_add_if_not_member>:
 8049d50:	55                   	push   %ebp
 8049d51:	89 e5                	mov    %esp,%ebp
 8049d53:	83 ec 10             	sub    $0x10,%esp
 8049d56:	89 5d f8             	mov    %ebx,0xfffffff8(%ebp)
 8049d59:	8b 5d 0c             	mov    0xc(%ebp),%ebx
 8049d5c:	89 75 fc             	mov    %esi,0xfffffffc(%ebp)
 8049d5f:	8b 75 08             	mov    0x8(%ebp),%esi
 8049d62:	89 5c 24 04          	mov    %ebx,0x4(%esp)
 8049d66:	8b 06                	mov    (%esi),%eax
 8049d68:	89 04 24             	mov    %eax,(%esp)
 8049d6b:	e8 90 ff ff ff       	call   8049d00 <sglib_Tree_find_member>
 8049d70:	8b 55 10             	mov    0x10(%ebp),%edx
 8049d73:	89 02                	mov    %eax,(%edx)
 8049d75:	31 d2                	xor    %edx,%edx
 8049d77:	85 c0                	test   %eax,%eax
 8049d79:	74 0c                	je     8049d87 <sglib_Tree_add_if_not_member+0x37>
 8049d7b:	8b 5d f8             	mov    0xfffffff8(%ebp),%ebx
 8049d7e:	89 d0                	mov    %edx,%eax
 8049d80:	8b 75 fc             	mov    0xfffffffc(%ebp),%esi
 8049d83:	89 ec                	mov    %ebp,%esp
 8049d85:	5d                   	pop    %ebp
 8049d86:	c3                   	ret    
 8049d87:	89 5c 24 04          	mov    %ebx,0x4(%esp)
 8049d8b:	89 34 24             	mov    %esi,(%esp)
 8049d8e:	e8 3d ff ff ff       	call   8049cd0 <sglib_Tree_add>
 8049d93:	8b 5d f8             	mov    0xfffffff8(%ebp),%ebx
 8049d96:	ba 01 00 00 00       	mov    $0x1,%edx
 8049d9b:	8b 75 fc             	mov    0xfffffffc(%ebp),%esi
 8049d9e:	89 ec                	mov    %ebp,%esp
 8049da0:	89 d0                	mov    %edx,%eax
 8049da2:	5d                   	pop    %ebp
 8049da3:	c3                   	ret    
 8049da4:	8d b6 00 00 00 00    	lea    0x0(%esi),%esi
 8049daa:	8d bf 00 00 00 00    	lea    0x0(%edi),%edi

08049db0 <sglib__Tree_it_compute_current_elem>:
 8049db0:	55                   	push   %ebp
 8049db1:	89 e5                	mov    %esp,%ebp
 8049db3:	57                   	push   %edi
 8049db4:	56                   	push   %esi
 8049db5:	53                   	push   %ebx
 8049db6:	83 ec 1c             	sub    $0x1c,%esp
 8049db9:	8b 7d 08             	mov    0x8(%ebp),%edi
 8049dbc:	8b 87 88 02 00 00    	mov    0x288(%edi),%eax
 8049dc2:	8b 97 8c 02 00 00    	mov    0x28c(%edi),%edx
 8049dc8:	0f b7 b7 84 02 00 00 	movzwl 0x284(%edi),%esi
 8049dcf:	c7 07 00 00 00 00    	movl   $0x0,(%edi)
 8049dd5:	89 45 ec             	mov    %eax,0xffffffec(%ebp)
 8049dd8:	89 55 f0             	mov    %edx,0xfffffff0(%ebp)
 8049ddb:	90                   	nop    
 8049ddc:	8d 74 26 00          	lea    0x0(%esi),%esi
 8049de0:	66 85 f6             	test   %si,%si
 8049de3:	7e 4b                	jle    8049e30 <sglib__Tree_it_compute_current_elem+0x80>
 8049de5:	8b 1f                	mov    (%edi),%ebx
 8049de7:	85 db                	test   %ebx,%ebx
 8049de9:	75 45                	jne    8049e30 <sglib__Tree_it_compute_current_elem+0x80>
 8049deb:	0f bf c6             	movswl %si,%eax
 8049dee:	83 e8 01             	sub    $0x1,%eax
 8049df1:	89 45 e8             	mov    %eax,0xffffffe8(%ebp)
 8049df4:	0f b6 44 07 04       	movzbl 0x4(%edi,%eax,1),%eax
 8049df9:	3c 01                	cmp    $0x1,%al
 8049dfb:	7e 3b                	jle    8049e38 <sglib__Tree_it_compute_current_elem+0x88>
 8049dfd:	8d 46 ff             	lea    0xffffffff(%esi),%eax
 8049e00:	66 89 87 84 02 00 00 	mov    %ax,0x284(%edi)
 8049e07:	89 c6                	mov    %eax,%esi
 8049e09:	66 85 f6             	test   %si,%si
 8049e0c:	7e 22                	jle    8049e30 <sglib__Tree_it_compute_current_elem+0x80>
 8049e0e:	0f bf c6             	movswl %si,%eax
 8049e11:	8d 50 ff             	lea    0xffffffff(%eax),%edx
 8049e14:	66 0f be 44 17 04    	movsbw 0x4(%edi,%edx,1),%ax
 8049e1a:	66 39 87 86 02 00 00 	cmp    %ax,0x286(%edi)
 8049e21:	75 bd                	jne    8049de0 <sglib__Tree_it_compute_current_elem+0x30>
 8049e23:	8b 84 97 84 00 00 00 	mov    0x84(%edi,%edx,4),%eax
 8049e2a:	89 07                	mov    %eax,(%edi)
 8049e2c:	eb b2                	jmp    8049de0 <sglib__Tree_it_compute_current_elem+0x30>
 8049e2e:	66 90                	xchg   %ax,%ax
 8049e30:	83 c4 1c             	add    $0x1c,%esp
 8049e33:	5b                   	pop    %ebx
 8049e34:	5e                   	pop    %esi
 8049e35:	5f                   	pop    %edi
 8049e36:	5d                   	pop    %ebp
 8049e37:	c3                   	ret    
 8049e38:	84 c0                	test   %al,%al
 8049e3a:	75 63                	jne    8049e9f <sglib__Tree_it_compute_current_elem+0xef>
 8049e3c:	8b 55 e8             	mov    0xffffffe8(%ebp),%edx
 8049e3f:	8b 84 97 84 00 00 00 	mov    0x84(%edi,%edx,4),%eax
 8049e46:	8b 50 10             	mov    0x10(%eax),%edx
 8049e49:	8b 45 ec             	mov    0xffffffec(%ebp),%eax
 8049e4c:	85 c0                	test   %eax,%eax
 8049e4e:	74 63                	je     8049eb3 <sglib__Tree_it_compute_current_elem+0x103>
 8049e50:	8b 45 f0             	mov    0xfffffff0(%ebp),%eax
 8049e53:	85 c0                	test   %eax,%eax
 8049e55:	0f 84 83 00 00 00    	je     8049ede <sglib__Tree_it_compute_current_elem+0x12e>
 8049e5b:	85 d2                	test   %edx,%edx
 8049e5d:	89 d3                	mov    %edx,%ebx
 8049e5f:	75 11                	jne    8049e72 <sglib__Tree_it_compute_current_elem+0xc2>
 8049e61:	eb 2f                	jmp    8049e92 <sglib__Tree_it_compute_current_elem+0xe2>
 8049e63:	74 54                	je     8049eb9 <sglib__Tree_it_compute_current_elem+0x109>
 8049e65:	8b 5b 14             	mov    0x14(%ebx),%ebx
 8049e68:	85 db                	test   %ebx,%ebx
 8049e6a:	8d b6 00 00 00 00    	lea    0x0(%esi),%esi
 8049e70:	74 19                	je     8049e8b <sglib__Tree_it_compute_current_elem+0xdb>
 8049e72:	8b 55 ec             	mov    0xffffffec(%ebp),%edx
 8049e75:	89 5c 24 04          	mov    %ebx,0x4(%esp)
 8049e79:	89 14 24             	mov    %edx,(%esp)
 8049e7c:	ff 55 f0             	call   *0xfffffff0(%ebp)
 8049e7f:	83 f8 00             	cmp    $0x0,%eax
 8049e82:	7d df                	jge    8049e63 <sglib__Tree_it_compute_current_elem+0xb3>
 8049e84:	8b 5b 10             	mov    0x10(%ebx),%ebx
 8049e87:	85 db                	test   %ebx,%ebx
 8049e89:	75 e7                	jne    8049e72 <sglib__Tree_it_compute_current_elem+0xc2>
 8049e8b:	0f b7 b7 84 02 00 00 	movzwl 0x284(%edi),%esi
 8049e92:	8b 45 e8             	mov    0xffffffe8(%ebp),%eax
 8049e95:	80 44 07 04 01       	addb   $0x1,0x4(%edi,%eax,1)
 8049e9a:	e9 6a ff ff ff       	jmp    8049e09 <sglib__Tree_it_compute_current_elem+0x59>
 8049e9f:	8b 55 e8             	mov    0xffffffe8(%ebp),%edx
 8049ea2:	8b 84 97 84 00 00 00 	mov    0x84(%edi,%edx,4),%eax
 8049ea9:	8b 50 14             	mov    0x14(%eax),%edx
 8049eac:	8b 45 ec             	mov    0xffffffec(%ebp),%eax
 8049eaf:	85 c0                	test   %eax,%eax
 8049eb1:	75 9d                	jne    8049e50 <sglib__Tree_it_compute_current_elem+0xa0>
 8049eb3:	85 d2                	test   %edx,%edx
 8049eb5:	75 04                	jne    8049ebb <sglib__Tree_it_compute_current_elem+0x10b>
 8049eb7:	eb d9                	jmp    8049e92 <sglib__Tree_it_compute_current_elem+0xe2>
 8049eb9:	89 da                	mov    %ebx,%edx
 8049ebb:	8b 45 e8             	mov    0xffffffe8(%ebp),%eax
 8049ebe:	66 83 87 84 02 00 00 	addw   $0x1,0x284(%edi)
 8049ec5:	01 
 8049ec6:	0f b7 b7 84 02 00 00 	movzwl 0x284(%edi),%esi
 8049ecd:	83 c0 01             	add    $0x1,%eax
 8049ed0:	89 94 87 84 00 00 00 	mov    %edx,0x84(%edi,%eax,4)
 8049ed7:	c6 44 07 04 00       	movb   $0x0,0x4(%edi,%eax,1)
 8049edc:	eb b4                	jmp    8049e92 <sglib__Tree_it_compute_current_elem+0xe2>
 8049ede:	85 d2                	test   %edx,%edx
 8049ee0:	89 d3                	mov    %edx,%ebx
 8049ee2:	75 0e                	jne    8049ef2 <sglib__Tree_it_compute_current_elem+0x142>
 8049ee4:	eb ac                	jmp    8049e92 <sglib__Tree_it_compute_current_elem+0xe2>
 8049ee6:	74 d1                	je     8049eb9 <sglib__Tree_it_compute_current_elem+0x109>
 8049ee8:	8b 5b 14             	mov    0x14(%ebx),%ebx
 8049eeb:	85 db                	test   %ebx,%ebx
 8049eed:	8d 76 00             	lea    0x0(%esi),%esi
 8049ef0:	74 a0                	je     8049e92 <sglib__Tree_it_compute_current_elem+0xe2>
 8049ef2:	8b 45 ec             	mov    0xffffffec(%ebp),%eax
 8049ef5:	89 5c 24 04          	mov    %ebx,0x4(%esp)
 8049ef9:	89 04 24             	mov    %eax,(%esp)
 8049efc:	e8 0f e7 ff ff       	call   8048610 <myListCmp>
 8049f01:	83 f8 00             	cmp    $0x0,%eax
 8049f04:	7d e0                	jge    8049ee6 <sglib__Tree_it_compute_current_elem+0x136>
 8049f06:	8b 5b 10             	mov    0x10(%ebx),%ebx
 8049f09:	eb e0                	jmp    8049eeb <sglib__Tree_it_compute_current_elem+0x13b>
 8049f0b:	90                   	nop    
 8049f0c:	8d 74 26 00          	lea    0x0(%esi),%esi

08049f10 <sglib_Tree_it_current>:
 8049f10:	55                   	push   %ebp
 8049f11:	89 e5                	mov    %esp,%ebp
 8049f13:	8b 45 08             	mov    0x8(%ebp),%eax
 8049f16:	5d                   	pop    %ebp
 8049f17:	8b 00                	mov    (%eax),%eax
 8049f19:	c3                   	ret    
 8049f1a:	8d b6 00 00 00 00    	lea    0x0(%esi),%esi

08049f20 <sglib_Tree_it_next>:
 8049f20:	55                   	push   %ebp
 8049f21:	89 e5                	mov    %esp,%ebp
 8049f23:	53                   	push   %ebx
 8049f24:	83 ec 04             	sub    $0x4,%esp
 8049f27:	8b 5d 08             	mov    0x8(%ebp),%ebx
 8049f2a:	89 1c 24             	mov    %ebx,(%esp)
 8049f2d:	e8 7e fe ff ff       	call   8049db0 <sglib__Tree_it_compute_current_elem>
 8049f32:	8b 03                	mov    (%ebx),%eax
 8049f34:	83 c4 04             	add    $0x4,%esp
 8049f37:	5b                   	pop    %ebx
 8049f38:	5d                   	pop    %ebp
 8049f39:	c3                   	ret    
 8049f3a:	8d b6 00 00 00 00    	lea    0x0(%esi),%esi

08049f40 <sglib_hashed_SimpleList_init>:
 8049f40:	55                   	push   %ebp
 8049f41:	b8 01 00 00 00       	mov    $0x1,%eax
 8049f46:	89 e5                	mov    %esp,%ebp
 8049f48:	8b 55 08             	mov    0x8(%ebp),%edx
 8049f4b:	90                   	nop    
 8049f4c:	8d 74 26 00          	lea    0x0(%esi),%esi
 8049f50:	c7 44 82 fc 00 00 00 	movl   $0x0,0xfffffffc(%edx,%eax,4)
 8049f57:	00 
 8049f58:	83 c0 01             	add    $0x1,%eax
 8049f5b:	83 f8 65             	cmp    $0x65,%eax
 8049f5e:	75 f0                	jne    8049f50 <sglib_hashed_SimpleList_init+0x10>
 8049f60:	5d                   	pop    %ebp
 8049f61:	c3                   	ret    
 8049f62:	8d b4 26 00 00 00 00 	lea    0x0(%esi),%esi
 8049f69:	8d bc 27 00 00 00 00 	lea    0x0(%edi),%edi

08049f70 <sglib_hashed_SimpleList_add>:
 8049f70:	55                   	push   %ebp
 8049f71:	89 e5                	mov    %esp,%ebp
 8049f73:	53                   	push   %ebx
 8049f74:	83 ec 04             	sub    $0x4,%esp
 8049f77:	8b 5d 0c             	mov    0xc(%ebp),%ebx
 8049f7a:	89 1c 24             	mov    %ebx,(%esp)
 8049f7d:	e8 9e e6 ff ff       	call   8048620 <slistHashFunction>
 8049f82:	ba 1f 85 eb 51       	mov    $0x51eb851f,%edx
 8049f87:	89 c1                	mov    %eax,%ecx
 8049f89:	f7 e2                	mul    %edx
 8049f8b:	c1 ea 05             	shr    $0x5,%edx
 8049f8e:	6b d2 64             	imul   $0x64,%edx,%edx
 8049f91:	29 d1                	sub    %edx,%ecx
 8049f93:	8b 55 08             	mov    0x8(%ebp),%edx
 8049f96:	8d 04 8a             	lea    (%edx,%ecx,4),%eax
 8049f99:	89 45 08             	mov    %eax,0x8(%ebp)
 8049f9c:	83 c4 04             	add    $0x4,%esp
 8049f9f:	5b                   	pop    %ebx
 8049fa0:	5d                   	pop    %ebp
 8049fa1:	e9 6a e7 ff ff       	jmp    8048710 <sglib_SimpleList_add>
 8049fa6:	8d 76 00             	lea    0x0(%esi),%esi
 8049fa9:	8d bc 27 00 00 00 00 	lea    0x0(%edi),%edi

08049fb0 <sglib_hashed_SimpleList_add_if_not_member>:
 8049fb0:	55                   	push   %ebp
 8049fb1:	89 e5                	mov    %esp,%ebp
 8049fb3:	53                   	push   %ebx
 8049fb4:	83 ec 04             	sub    $0x4,%esp
 8049fb7:	8b 5d 0c             	mov    0xc(%ebp),%ebx
 8049fba:	89 1c 24             	mov    %ebx,(%esp)
 8049fbd:	e8 5e e6 ff ff       	call   8048620 <slistHashFunction>
 8049fc2:	ba 1f 85 eb 51       	mov    $0x51eb851f,%edx
 8049fc7:	89 c1                	mov    %eax,%ecx
 8049fc9:	f7 e2                	mul    %edx
 8049fcb:	c1 ea 05             	shr    $0x5,%edx
 8049fce:	6b d2 64             	imul   $0x64,%edx,%edx
 8049fd1:	29 d1                	sub    %edx,%ecx
 8049fd3:	8b 55 08             	mov    0x8(%ebp),%edx
 8049fd6:	8d 04 8a             	lea    (%edx,%ecx,4),%eax
 8049fd9:	89 45 08             	mov    %eax,0x8(%ebp)
 8049fdc:	83 c4 04             	add    $0x4,%esp
 8049fdf:	5b                   	pop    %ebx
 8049fe0:	5d                   	pop    %ebp
 8049fe1:	e9 ca e6 ff ff       	jmp    80486b0 <sglib_SimpleList_add_if_not_member>
 8049fe6:	8d 76 00             	lea    0x0(%esi),%esi
 8049fe9:	8d bc 27 00 00 00 00 	lea    0x0(%edi),%edi

08049ff0 <sglib_hashed_SimpleList_delete_if_member>:
 8049ff0:	55                   	push   %ebp
 8049ff1:	89 e5                	mov    %esp,%ebp
 8049ff3:	53                   	push   %ebx
 8049ff4:	83 ec 04             	sub    $0x4,%esp
 8049ff7:	8b 5d 0c             	mov    0xc(%ebp),%ebx
 8049ffa:	89 1c 24             	mov    %ebx,(%esp)
 8049ffd:	e8 1e e6 ff ff       	call   8048620 <slistHashFunction>
 804a002:	ba 1f 85 eb 51       	mov    $0x51eb851f,%edx
 804a007:	89 c1                	mov    %eax,%ecx
 804a009:	f7 e2                	mul    %edx
 804a00b:	c1 ea 05             	shr    $0x5,%edx
 804a00e:	6b d2 64             	imul   $0x64,%edx,%edx
 804a011:	29 d1                	sub    %edx,%ecx
 804a013:	8b 55 08             	mov    0x8(%ebp),%edx
 804a016:	8d 04 8a             	lea    (%edx,%ecx,4),%eax
 804a019:	89 45 08             	mov    %eax,0x8(%ebp)
 804a01c:	83 c4 04             	add    $0x4,%esp
 804a01f:	5b                   	pop    %ebx
 804a020:	5d                   	pop    %ebp
 804a021:	e9 3a e7 ff ff       	jmp    8048760 <sglib_SimpleList_delete_if_member>
 804a026:	8d 76 00             	lea    0x0(%esi),%esi
 804a029:	8d bc 27 00 00 00 00 	lea    0x0(%edi),%edi

0804a030 <sglib_hashed_SimpleList_is_member>:
 804a030:	55                   	push   %ebp
 804a031:	89 e5                	mov    %esp,%ebp
 804a033:	53                   	push   %ebx
 804a034:	83 ec 04             	sub    $0x4,%esp
 804a037:	8b 5d 0c             	mov    0xc(%ebp),%ebx
 804a03a:	89 1c 24             	mov    %ebx,(%esp)
 804a03d:	e8 de e5 ff ff       	call   8048620 <slistHashFunction>
 804a042:	ba 1f 85 eb 51       	mov    $0x51eb851f,%edx
 804a047:	89 c1                	mov    %eax,%ecx
 804a049:	f7 e2                	mul    %edx
 804a04b:	c1 ea 05             	shr    $0x5,%edx
 804a04e:	6b d2 64             	imul   $0x64,%edx,%edx
 804a051:	29 d1                	sub    %edx,%ecx
 804a053:	8b 55 08             	mov    0x8(%ebp),%edx
 804a056:	8b 04 8a             	mov    (%edx,%ecx,4),%eax
 804a059:	89 45 08             	mov    %eax,0x8(%ebp)
 804a05c:	83 c4 04             	add    $0x4,%esp
 804a05f:	5b                   	pop    %ebx
 804a060:	5d                   	pop    %ebp
 804a061:	e9 ca e5 ff ff       	jmp    8048630 <sglib_SimpleList_is_member>
 804a066:	8d 76 00             	lea    0x0(%esi),%esi
 804a069:	8d bc 27 00 00 00 00 	lea    0x0(%edi),%edi

0804a070 <sglib_hashed_SimpleList_find_member>:
 804a070:	55                   	push   %ebp
 804a071:	89 e5                	mov    %esp,%ebp
 804a073:	53                   	push   %ebx
 804a074:	83 ec 04             	sub    $0x4,%esp
 804a077:	8b 5d 0c             	mov    0xc(%ebp),%ebx
 804a07a:	89 1c 24             	mov    %ebx,(%esp)
 804a07d:	e8 9e e5 ff ff       	call   8048620 <slistHashFunction>
 804a082:	ba 1f 85 eb 51       	mov    $0x51eb851f,%edx
 804a087:	89 c1                	mov    %eax,%ecx
 804a089:	f7 e2                	mul    %edx
 804a08b:	c1 ea 05             	shr    $0x5,%edx
 804a08e:	6b d2 64             	imul   $0x64,%edx,%edx
 804a091:	29 d1                	sub    %edx,%ecx
 804a093:	8b 55 08             	mov    0x8(%ebp),%edx
 804a096:	8b 04 8a             	mov    (%edx,%ecx,4),%eax
 804a099:	89 45 08             	mov    %eax,0x8(%ebp)
 804a09c:	83 c4 04             	add    $0x4,%esp
 804a09f:	5b                   	pop    %ebx
 804a0a0:	5d                   	pop    %ebp
 804a0a1:	e9 ca e5 ff ff       	jmp    8048670 <sglib_SimpleList_find_member>
 804a0a6:	8d 76 00             	lea    0x0(%esi),%esi
 804a0a9:	8d bc 27 00 00 00 00 	lea    0x0(%edi),%edi

0804a0b0 <sglib_hashed_SimpleList_it_current>:
 804a0b0:	55                   	push   %ebp
 804a0b1:	89 e5                	mov    %esp,%ebp
 804a0b3:	5d                   	pop    %ebp
 804a0b4:	e9 a7 e8 ff ff       	jmp    8048960 <sglib_SimpleList_it_current>
 804a0b9:	8d b4 26 00 00 00 00 	lea    0x0(%esi),%esi

0804a0c0 <sglib_hashed_SimpleList_it_next>:
 804a0c0:	55                   	push   %ebp
 804a0c1:	89 e5                	mov    %esp,%ebp
 804a0c3:	53                   	push   %ebx
 804a0c4:	83 ec 14             	sub    $0x14,%esp
 804a0c7:	8b 5d 08             	mov    0x8(%ebp),%ebx
 804a0ca:	89 1c 24             	mov    %ebx,(%esp)
 804a0cd:	e8 9e e8 ff ff       	call   8048970 <sglib_SimpleList_it_next>
 804a0d2:	85 c0                	test   %eax,%eax
 804a0d4:	74 26                	je     804a0fc <sglib_hashed_SimpleList_it_next+0x3c>
 804a0d6:	eb 32                	jmp    804a10a <sglib_hashed_SimpleList_it_next+0x4a>
 804a0d8:	8b 43 1c             	mov    0x1c(%ebx),%eax
 804a0db:	89 44 24 0c          	mov    %eax,0xc(%esp)
 804a0df:	8b 43 18             	mov    0x18(%ebx),%eax
 804a0e2:	89 44 24 08          	mov    %eax,0x8(%esp)
 804a0e6:	8b 43 10             	mov    0x10(%ebx),%eax
 804a0e9:	8b 04 90             	mov    (%eax,%edx,4),%eax
 804a0ec:	89 1c 24             	mov    %ebx,(%esp)
 804a0ef:	89 44 24 04          	mov    %eax,0x4(%esp)
 804a0f3:	e8 e8 e8 ff ff       	call   80489e0 <sglib_SimpleList_it_init_on_equal>
 804a0f8:	85 c0                	test   %eax,%eax
 804a0fa:	75 0e                	jne    804a10a <sglib_hashed_SimpleList_it_next+0x4a>
 804a0fc:	8b 53 14             	mov    0x14(%ebx),%edx
 804a0ff:	83 c2 01             	add    $0x1,%edx
 804a102:	83 fa 63             	cmp    $0x63,%edx
 804a105:	89 53 14             	mov    %edx,0x14(%ebx)
 804a108:	7e ce                	jle    804a0d8 <sglib_hashed_SimpleList_it_next+0x18>
 804a10a:	83 c4 14             	add    $0x14,%esp
 804a10d:	5b                   	pop    %ebx
 804a10e:	5d                   	pop    %ebp
 804a10f:	c3                   	ret    

0804a110 <sglib_hashed_SimpleList_it_init_on_equal>:
 804a110:	55                   	push   %ebp
 804a111:	89 e5                	mov    %esp,%ebp
 804a113:	53                   	push   %ebx
 804a114:	83 ec 14             	sub    $0x14,%esp
 804a117:	8b 5d 08             	mov    0x8(%ebp),%ebx
 804a11a:	8b 4d 0c             	mov    0xc(%ebp),%ecx
 804a11d:	8b 45 14             	mov    0x14(%ebp),%eax
 804a120:	8b 55 10             	mov    0x10(%ebp),%edx
 804a123:	c7 43 14 00 00 00 00 	movl   $0x0,0x14(%ebx)
 804a12a:	89 4b 10             	mov    %ecx,0x10(%ebx)
 804a12d:	89 43 1c             	mov    %eax,0x1c(%ebx)
 804a130:	89 53 18             	mov    %edx,0x18(%ebx)
 804a133:	89 44 24 0c          	mov    %eax,0xc(%esp)
 804a137:	89 54 24 08          	mov    %edx,0x8(%esp)
 804a13b:	8b 01                	mov    (%ecx),%eax
 804a13d:	89 1c 24             	mov    %ebx,(%esp)
 804a140:	89 44 24 04          	mov    %eax,0x4(%esp)
 804a144:	e8 97 e8 ff ff       	call   80489e0 <sglib_SimpleList_it_init_on_equal>
 804a149:	85 c0                	test   %eax,%eax
 804a14b:	74 06                	je     804a153 <sglib_hashed_SimpleList_it_init_on_equal+0x43>
 804a14d:	83 c4 14             	add    $0x14,%esp
 804a150:	5b                   	pop    %ebx
 804a151:	5d                   	pop    %ebp
 804a152:	c3                   	ret    
 804a153:	89 5d 08             	mov    %ebx,0x8(%ebp)
 804a156:	83 c4 14             	add    $0x14,%esp
 804a159:	5b                   	pop    %ebx
 804a15a:	5d                   	pop    %ebp
 804a15b:	e9 60 ff ff ff       	jmp    804a0c0 <sglib_hashed_SimpleList_it_next>

0804a160 <sglib_hashed_SimpleList_it_init>:
 804a160:	55                   	push   %ebp
 804a161:	89 e5                	mov    %esp,%ebp
 804a163:	83 ec 18             	sub    $0x18,%esp
 804a166:	8b 45 0c             	mov    0xc(%ebp),%eax
 804a169:	c7 44 24 0c 00 00 00 	movl   $0x0,0xc(%esp)
 804a170:	00 
 804a171:	c7 44 24 08 00 00 00 	movl   $0x0,0x8(%esp)
 804a178:	00 
 804a179:	89 44 24 04          	mov    %eax,0x4(%esp)
 804a17d:	8b 45 08             	mov    0x8(%ebp),%eax
 804a180:	89 04 24             	mov    %eax,(%esp)
 804a183:	e8 88 ff ff ff       	call   804a110 <sglib_hashed_SimpleList_it_init_on_equal>
 804a188:	c9                   	leave  
 804a189:	c3                   	ret    
 804a18a:	8d b6 00 00 00 00    	lea    0x0(%esi),%esi

0804a190 <check_double_linked_list_element>:
 804a190:	55                   	push   %ebp
 804a191:	89 e5                	mov    %esp,%ebp
 804a193:	83 ec 18             	sub    $0x18,%esp
 804a196:	8b 55 08             	mov    0x8(%ebp),%edx
 804a199:	85 d2                	test   %edx,%edx
 804a19b:	74 18                	je     804a1b5 <check_double_linked_list_element+0x25>
 804a19d:	8b 42 08             	mov    0x8(%edx),%eax
 804a1a0:	85 c0                	test   %eax,%eax
 804a1a2:	74 05                	je     804a1a9 <check_double_linked_list_element+0x19>
 804a1a4:	39 50 04             	cmp    %edx,0x4(%eax)
 804a1a7:	75 32                	jne    804a1db <check_double_linked_list_element+0x4b>
 804a1a9:	8b 42 04             	mov    0x4(%edx),%eax
 804a1ac:	85 c0                	test   %eax,%eax
 804a1ae:	74 05                	je     804a1b5 <check_double_linked_list_element+0x25>
 804a1b0:	39 50 08             	cmp    %edx,0x8(%eax)
 804a1b3:	75 02                	jne    804a1b7 <check_double_linked_list_element+0x27>
 804a1b5:	c9                   	leave  
 804a1b6:	c3                   	ret    
 804a1b7:	c7 44 24 0c 40 00 05 	movl   $0x8050040,0xc(%esp)
 804a1be:	08 
 804a1bf:	c7 44 24 08 df 00 00 	movl   $0xdf,0x8(%esp)
 804a1c6:	00 
 804a1c7:	c7 44 24 04 6c f5 04 	movl   $0x804f56c,0x4(%esp)
 804a1ce:	08 
 804a1cf:	c7 04 24 8e f5 04 08 	movl   $0x804f58e,(%esp)
 804a1d6:	e8 bd e2 ff ff       	call   8048498 <__assert_fail@plt>
 804a1db:	c7 44 24 0c 40 00 05 	movl   $0x8050040,0xc(%esp)
 804a1e2:	08 
 804a1e3:	c7 44 24 08 de 00 00 	movl   $0xde,0x8(%esp)
 804a1ea:	00 
 804a1eb:	c7 44 24 04 6c f5 04 	movl   $0x804f56c,0x4(%esp)
 804a1f2:	08 
 804a1f3:	c7 04 24 77 f5 04 08 	movl   $0x804f577,(%esp)
 804a1fa:	e8 99 e2 ff ff       	call   8048498 <__assert_fail@plt>
 804a1ff:	90                   	nop    

0804a200 <check_double_linked_list_consistency>:
 804a200:	55                   	push   %ebp
 804a201:	89 e5                	mov    %esp,%ebp
 804a203:	56                   	push   %esi
 804a204:	53                   	push   %ebx
 804a205:	83 ec 10             	sub    $0x10,%esp
 804a208:	8b 75 08             	mov    0x8(%ebp),%esi
 804a20b:	85 f6                	test   %esi,%esi
 804a20d:	74 22                	je     804a231 <check_double_linked_list_consistency+0x31>
 804a20f:	89 f3                	mov    %esi,%ebx
 804a211:	89 1c 24             	mov    %ebx,(%esp)
 804a214:	e8 77 ff ff ff       	call   804a190 <check_double_linked_list_element>
 804a219:	8b 5b 08             	mov    0x8(%ebx),%ebx
 804a21c:	85 db                	test   %ebx,%ebx
 804a21e:	75 f1                	jne    804a211 <check_double_linked_list_consistency+0x11>
 804a220:	89 f3                	mov    %esi,%ebx
 804a222:	89 1c 24             	mov    %ebx,(%esp)
 804a225:	e8 66 ff ff ff       	call   804a190 <check_double_linked_list_element>
 804a22a:	8b 5b 04             	mov    0x4(%ebx),%ebx
 804a22d:	85 db                	test   %ebx,%ebx
 804a22f:	75 f1                	jne    804a222 <check_double_linked_list_consistency+0x22>
 804a231:	83 c4 10             	add    $0x10,%esp
 804a234:	5b                   	pop    %ebx
 804a235:	5e                   	pop    %esi
 804a236:	5d                   	pop    %ebp
 804a237:	c3                   	ret    
 804a238:	90                   	nop    
 804a239:	8d b4 26 00 00 00 00 	lea    0x0(%esi),%esi

0804a240 <check_list_equality>:
 804a240:	55                   	push   %ebp
 804a241:	89 e5                	mov    %esp,%ebp
 804a243:	53                   	push   %ebx
 804a244:	83 ec 14             	sub    $0x14,%esp
 804a247:	8b 4d 08             	mov    0x8(%ebp),%ecx
 804a24a:	8b 5d 0c             	mov    0xc(%ebp),%ebx
 804a24d:	85 c9                	test   %ecx,%ecx
 804a24f:	89 da                	mov    %ebx,%edx
 804a251:	74 45                	je     804a298 <check_list_equality+0x58>
 804a253:	85 db                	test   %ebx,%ebx
 804a255:	75 17                	jne    804a26e <check_list_equality+0x2e>
 804a257:	eb 1b                	jmp    804a274 <check_list_equality+0x34>
 804a259:	8d b4 26 00 00 00 00 	lea    0x0(%esi),%esi
 804a260:	8b 49 04             	mov    0x4(%ecx),%ecx
 804a263:	8b 52 04             	mov    0x4(%edx),%edx
 804a266:	85 c9                	test   %ecx,%ecx
 804a268:	74 2e                	je     804a298 <check_list_equality+0x58>
 804a26a:	85 d2                	test   %edx,%edx
 804a26c:	74 06                	je     804a274 <check_list_equality+0x34>
 804a26e:	8b 01                	mov    (%ecx),%eax
 804a270:	3b 02                	cmp    (%edx),%eax
 804a272:	74 ec                	je     804a260 <check_list_equality+0x20>
 804a274:	c7 44 24 0c 24 01 05 	movl   $0x8050124,0xc(%esp)
 804a27b:	08 
 804a27c:	c7 44 24 08 a9 00 00 	movl   $0xa9,0x8(%esp)
 804a283:	00 
 804a284:	c7 44 24 04 6c f5 04 	movl   $0x804f56c,0x4(%esp)
 804a28b:	08 
 804a28c:	c7 04 24 68 f7 04 08 	movl   $0x804f768,(%esp)
 804a293:	e8 00 e2 ff ff       	call   8048498 <__assert_fail@plt>
 804a298:	85 d2                	test   %edx,%edx
 804a29a:	75 06                	jne    804a2a2 <check_list_equality+0x62>
 804a29c:	83 c4 14             	add    $0x14,%esp
 804a29f:	5b                   	pop    %ebx
 804a2a0:	5d                   	pop    %ebp
 804a2a1:	c3                   	ret    
 804a2a2:	c7 44 24 0c 24 01 05 	movl   $0x8050124,0xc(%esp)
 804a2a9:	08 
 804a2aa:	c7 44 24 08 ad 00 00 	movl   $0xad,0x8(%esp)
 804a2b1:	00 
 804a2b2:	c7 44 24 04 6c f5 04 	movl   $0x804f56c,0x4(%esp)
 804a2b9:	08 
 804a2ba:	c7 04 24 a5 f5 04 08 	movl   $0x804f5a5,(%esp)
 804a2c1:	e8 d2 e1 ff ff       	call   8048498 <__assert_fail@plt>
 804a2c6:	8d 76 00             	lea    0x0(%esi),%esi
 804a2c9:	8d bc 27 00 00 00 00 	lea    0x0(%edi),%edi

0804a2d0 <compare_unique_counts>:
 804a2d0:	55                   	push   %ebp
 804a2d1:	b8 01 00 00 00       	mov    $0x1,%eax
 804a2d6:	89 e5                	mov    %esp,%ebp
 804a2d8:	83 ec 18             	sub    $0x18,%esp
 804a2db:	8b 4d 08             	mov    0x8(%ebp),%ecx
 804a2de:	8b 55 0c             	mov    0xc(%ebp),%edx
 804a2e1:	eb 11                	jmp    804a2f4 <compare_unique_counts+0x24>
 804a2e3:	83 7c 82 fc 00       	cmpl   $0x0,0xfffffffc(%edx,%eax,4)
 804a2e8:	75 3e                	jne    804a328 <compare_unique_counts+0x58>
 804a2ea:	83 c0 01             	add    $0x1,%eax
 804a2ed:	3d e9 03 00 00       	cmp    $0x3e9,%eax
 804a2f2:	74 32                	je     804a326 <compare_unique_counts+0x56>
 804a2f4:	83 7c 81 fc 00       	cmpl   $0x0,0xfffffffc(%ecx,%eax,4)
 804a2f9:	74 e8                	je     804a2e3 <compare_unique_counts+0x13>
 804a2fb:	83 7c 82 fc 01       	cmpl   $0x1,0xfffffffc(%edx,%eax,4)
 804a300:	74 e8                	je     804a2ea <compare_unique_counts+0x1a>
 804a302:	c7 44 24 0c 38 01 05 	movl   $0x8050138,0xc(%esp)
 804a309:	08 
 804a30a:	c7 44 24 08 83 00 00 	movl   $0x83,0x8(%esp)
 804a311:	00 
 804a312:	c7 44 24 04 6c f5 04 	movl   $0x804f56c,0x4(%esp)
 804a319:	08 
 804a31a:	c7 04 24 ca f5 04 08 	movl   $0x804f5ca,(%esp)
 804a321:	e8 72 e1 ff ff       	call   8048498 <__assert_fail@plt>
 804a326:	c9                   	leave  
 804a327:	c3                   	ret    
 804a328:	c7 44 24 0c 38 01 05 	movl   $0x8050138,0xc(%esp)
 804a32f:	08 
 804a330:	c7 44 24 08 82 00 00 	movl   $0x82,0x8(%esp)
 804a337:	00 
 804a338:	c7 44 24 04 6c f5 04 	movl   $0x804f56c,0x4(%esp)
 804a33f:	08 
 804a340:	c7 04 24 b7 f5 04 08 	movl   $0x804f5b7,(%esp)
 804a347:	e8 4c e1 ff ff       	call   8048498 <__assert_fail@plt>
 804a34c:	8d 74 26 00          	lea    0x0(%esi),%esi

0804a350 <sglib___Tree_consistency_check_recursive>:
 804a350:	55                   	push   %ebp
 804a351:	89 e5                	mov    %esp,%ebp
 804a353:	57                   	push   %edi
 804a354:	56                   	push   %esi
 804a355:	53                   	push   %ebx
 804a356:	89 c3                	mov    %eax,%ebx
 804a358:	83 ec 1c             	sub    $0x1c,%esp
 804a35b:	85 c0                	test   %eax,%eax
 804a35d:	89 55 f0             	mov    %edx,0xfffffff0(%ebp)
 804a360:	89 4d ec             	mov    %ecx,0xffffffec(%ebp)
 804a363:	75 35                	jne    804a39a <sglib___Tree_consistency_check_recursive+0x4a>
 804a365:	eb 6d                	jmp    804a3d4 <sglib___Tree_consistency_check_recursive+0x84>
 804a367:	85 ff                	test   %edi,%edi
 804a369:	74 0b                	je     804a376 <sglib___Tree_consistency_check_recursive+0x26>
 804a36b:	80 7f 0c 00          	cmpb   $0x0,0xc(%edi)
 804a36f:	90                   	nop    
 804a370:	0f 85 f1 00 00 00    	jne    804a467 <sglib___Tree_consistency_check_recursive+0x117>
 804a376:	85 f6                	test   %esi,%esi
 804a378:	74 0c                	je     804a386 <sglib___Tree_consistency_check_recursive+0x36>
 804a37a:	80 7e 0c 00          	cmpb   $0x0,0xc(%esi)
 804a37e:	66 90                	xchg   %ax,%ax
 804a380:	0f 85 b0 00 00 00    	jne    804a436 <sglib___Tree_consistency_check_recursive+0xe6>
 804a386:	8b 4d ec             	mov    0xffffffec(%ebp),%ecx
 804a389:	89 f8                	mov    %edi,%eax
 804a38b:	8b 55 f0             	mov    0xfffffff0(%ebp),%edx
 804a38e:	e8 bd ff ff ff       	call   804a350 <sglib___Tree_consistency_check_recursive>
 804a393:	8b 5b 14             	mov    0x14(%ebx),%ebx
 804a396:	85 db                	test   %ebx,%ebx
 804a398:	74 3a                	je     804a3d4 <sglib___Tree_consistency_check_recursive+0x84>
 804a39a:	8b 7b 10             	mov    0x10(%ebx),%edi
 804a39d:	85 ff                	test   %edi,%edi
 804a39f:	74 10                	je     804a3b1 <sglib___Tree_consistency_check_recursive+0x61>
 804a3a1:	89 5c 24 04          	mov    %ebx,0x4(%esp)
 804a3a5:	89 3c 24             	mov    %edi,(%esp)
 804a3a8:	e8 63 e2 ff ff       	call   8048610 <myListCmp>
 804a3ad:	85 c0                	test   %eax,%eax
 804a3af:	7f 3d                	jg     804a3ee <sglib___Tree_consistency_check_recursive+0x9e>
 804a3b1:	8b 73 14             	mov    0x14(%ebx),%esi
 804a3b4:	85 f6                	test   %esi,%esi
 804a3b6:	74 10                	je     804a3c8 <sglib___Tree_consistency_check_recursive+0x78>
 804a3b8:	89 74 24 04          	mov    %esi,0x4(%esp)
 804a3bc:	89 1c 24             	mov    %ebx,(%esp)
 804a3bf:	e8 4c e2 ff ff       	call   8048610 <myListCmp>
 804a3c4:	85 c0                	test   %eax,%eax
 804a3c6:	7f 4a                	jg     804a412 <sglib___Tree_consistency_check_recursive+0xc2>
 804a3c8:	80 7b 0c 01          	cmpb   $0x1,0xc(%ebx)
 804a3cc:	74 99                	je     804a367 <sglib___Tree_consistency_check_recursive+0x17>
 804a3ce:	83 45 ec 01          	addl   $0x1,0xffffffec(%ebp)
 804a3d2:	eb b2                	jmp    804a386 <sglib___Tree_consistency_check_recursive+0x36>
 804a3d4:	8b 55 f0             	mov    0xfffffff0(%ebp),%edx
 804a3d7:	8b 02                	mov    (%edx),%eax
 804a3d9:	85 c0                	test   %eax,%eax
 804a3db:	78 7d                	js     804a45a <sglib___Tree_consistency_check_recursive+0x10a>
 804a3dd:	39 45 ec             	cmp    %eax,0xffffffec(%ebp)
 804a3e0:	0f 85 a5 00 00 00    	jne    804a48b <sglib___Tree_consistency_check_recursive+0x13b>
 804a3e6:	83 c4 1c             	add    $0x1c,%esp
 804a3e9:	5b                   	pop    %ebx
 804a3ea:	5e                   	pop    %esi
 804a3eb:	5f                   	pop    %edi
 804a3ec:	5d                   	pop    %ebp
 804a3ed:	c3                   	ret    
 804a3ee:	c7 44 24 0c 80 01 05 	movl   $0x8050180,0xc(%esp)
 804a3f5:	08 
 804a3f6:	c7 44 24 08 48 00 00 	movl   $0x48,0x8(%esp)
 804a3fd:	00 
 804a3fe:	c7 44 24 04 6c f5 04 	movl   $0x804f56c,0x4(%esp)
 804a405:	08 
 804a406:	c7 04 24 8c f7 04 08 	movl   $0x804f78c,(%esp)
 804a40d:	e8 86 e0 ff ff       	call   8048498 <__assert_fail@plt>
 804a412:	c7 44 24 0c 80 01 05 	movl   $0x8050180,0xc(%esp)
 804a419:	08 
 804a41a:	c7 44 24 08 48 00 00 	movl   $0x48,0x8(%esp)
 804a421:	00 
 804a422:	c7 44 24 04 6c f5 04 	movl   $0x804f56c,0x4(%esp)
 804a429:	08 
 804a42a:	c7 04 24 ac f7 04 08 	movl   $0x804f7ac,(%esp)
 804a431:	e8 62 e0 ff ff       	call   8048498 <__assert_fail@plt>
 804a436:	c7 44 24 0c 80 01 05 	movl   $0x8050180,0xc(%esp)
 804a43d:	08 
 804a43e:	c7 44 24 08 48 00 00 	movl   $0x48,0x8(%esp)
 804a445:	00 
 804a446:	c7 44 24 04 6c f5 04 	movl   $0x804f56c,0x4(%esp)
 804a44d:	08 
 804a44e:	c7 04 24 04 f8 04 08 	movl   $0x804f804,(%esp)
 804a455:	e8 3e e0 ff ff       	call   8048498 <__assert_fail@plt>
 804a45a:	8b 45 ec             	mov    0xffffffec(%ebp),%eax
 804a45d:	89 02                	mov    %eax,(%edx)
 804a45f:	83 c4 1c             	add    $0x1c,%esp
 804a462:	5b                   	pop    %ebx
 804a463:	5e                   	pop    %esi
 804a464:	5f                   	pop    %edi
 804a465:	5d                   	pop    %ebp
 804a466:	c3                   	ret    
 804a467:	c7 44 24 0c 80 01 05 	movl   $0x8050180,0xc(%esp)
 804a46e:	08 
 804a46f:	c7 44 24 08 48 00 00 	movl   $0x48,0x8(%esp)
 804a476:	00 
 804a477:	c7 44 24 04 6c f5 04 	movl   $0x804f56c,0x4(%esp)
 804a47e:	08 
 804a47f:	c7 04 24 cc f7 04 08 	movl   $0x804f7cc,(%esp)
 804a486:	e8 0d e0 ff ff       	call   8048498 <__assert_fail@plt>
 804a48b:	c7 44 24 0c 80 01 05 	movl   $0x8050180,0xc(%esp)
 804a492:	08 
 804a493:	c7 44 24 08 48 00 00 	movl   $0x48,0x8(%esp)
 804a49a:	00 
 804a49b:	c7 44 24 04 6c f5 04 	movl   $0x804f56c,0x4(%esp)
 804a4a2:	08 
 804a4a3:	c7 04 24 dd f5 04 08 	movl   $0x804f5dd,(%esp)
 804a4aa:	e8 e9 df ff ff       	call   8048498 <__assert_fail@plt>
 804a4af:	90                   	nop    

0804a4b0 <sglib___Tree_consistency_check>:
 804a4b0:	55                   	push   %ebp
 804a4b1:	89 e5                	mov    %esp,%ebp
 804a4b3:	83 ec 28             	sub    $0x28,%esp
 804a4b6:	8b 45 08             	mov    0x8(%ebp),%eax
 804a4b9:	85 c0                	test   %eax,%eax
 804a4bb:	74 06                	je     804a4c3 <sglib___Tree_consistency_check+0x13>
 804a4bd:	80 78 0c 00          	cmpb   $0x0,0xc(%eax)
 804a4c1:	75 13                	jne    804a4d6 <sglib___Tree_consistency_check+0x26>
 804a4c3:	8d 55 fc             	lea    0xfffffffc(%ebp),%edx
 804a4c6:	31 c9                	xor    %ecx,%ecx
 804a4c8:	c7 45 fc ff ff ff ff 	movl   $0xffffffff,0xfffffffc(%ebp)
 804a4cf:	e8 7c fe ff ff       	call   804a350 <sglib___Tree_consistency_check_recursive>
 804a4d4:	c9                   	leave  
 804a4d5:	c3                   	ret    
 804a4d6:	c7 44 24 0c 60 01 05 	movl   $0x8050160,0xc(%esp)
 804a4dd:	08 
 804a4de:	c7 44 24 08 48 00 00 	movl   $0x48,0x8(%esp)
 804a4e5:	00 
 804a4e6:	c7 44 24 04 6c f5 04 	movl   $0x804f56c,0x4(%esp)
 804a4ed:	08 
 804a4ee:	c7 04 24 3c f8 04 08 	movl   $0x804f83c,(%esp)
 804a4f5:	e8 9e df ff ff       	call   8048498 <__assert_fail@plt>
 804a4fa:	8d b6 00 00 00 00    	lea    0x0(%esi),%esi

0804a500 <sglib__Tree_it_init>:
 804a500:	55                   	push   %ebp
 804a501:	89 e5                	mov    %esp,%ebp
 804a503:	57                   	push   %edi
 804a504:	56                   	push   %esi
 804a505:	53                   	push   %ebx
 804a506:	83 ec 1c             	sub    $0x1c,%esp
 804a509:	8b 5d 08             	mov    0x8(%ebp),%ebx
 804a50c:	8b 45 0c             	mov    0xc(%ebp),%eax
 804a50f:	8b 75 14             	mov    0x14(%ebp),%esi
 804a512:	8b 7d 18             	mov    0x18(%ebp),%edi
 804a515:	85 db                	test   %ebx,%ebx
 804a517:	0f 84 e3 00 00 00    	je     804a600 <sglib__Tree_it_init+0x100>
 804a51d:	8b 55 08             	mov    0x8(%ebp),%edx
 804a520:	85 ff                	test   %edi,%edi
 804a522:	0f b7 4d 10          	movzwl 0x10(%ebp),%ecx
 804a526:	89 ba 88 02 00 00    	mov    %edi,0x288(%edx)
 804a52c:	66 89 8a 86 02 00 00 	mov    %cx,0x286(%edx)
 804a533:	89 b2 8c 02 00 00    	mov    %esi,0x28c(%edx)
 804a539:	74 79                	je     804a5b4 <sglib__Tree_it_init+0xb4>
 804a53b:	85 f6                	test   %esi,%esi
 804a53d:	74 7b                	je     804a5ba <sglib__Tree_it_init+0xba>
 804a53f:	85 c0                	test   %eax,%eax
 804a541:	89 c3                	mov    %eax,%ebx
 804a543:	75 0d                	jne    804a552 <sglib__Tree_it_init+0x52>
 804a545:	eb 20                	jmp    804a567 <sglib__Tree_it_init+0x67>
 804a547:	74 3d                	je     804a586 <sglib__Tree_it_init+0x86>
 804a549:	8b 5b 14             	mov    0x14(%ebx),%ebx
 804a54c:	85 db                	test   %ebx,%ebx
 804a54e:	66 90                	xchg   %ax,%ax
 804a550:	74 15                	je     804a567 <sglib__Tree_it_init+0x67>
 804a552:	89 5c 24 04          	mov    %ebx,0x4(%esp)
 804a556:	89 3c 24             	mov    %edi,(%esp)
 804a559:	ff d6                	call   *%esi
 804a55b:	83 f8 00             	cmp    $0x0,%eax
 804a55e:	7d e7                	jge    804a547 <sglib__Tree_it_init+0x47>
 804a560:	8b 5b 10             	mov    0x10(%ebx),%ebx
 804a563:	85 db                	test   %ebx,%ebx
 804a565:	75 eb                	jne    804a552 <sglib__Tree_it_init+0x52>
 804a567:	8b 45 08             	mov    0x8(%ebp),%eax
 804a56a:	8b 55 08             	mov    0x8(%ebp),%edx
 804a56d:	66 c7 80 84 02 00 00 	movw   $0x0,0x284(%eax)
 804a574:	00 00 
 804a576:	c7 00 00 00 00 00    	movl   $0x0,(%eax)
 804a57c:	8b 02                	mov    (%edx),%eax
 804a57e:	83 c4 1c             	add    $0x1c,%esp
 804a581:	5b                   	pop    %ebx
 804a582:	5e                   	pop    %esi
 804a583:	5f                   	pop    %edi
 804a584:	5d                   	pop    %ebp
 804a585:	c3                   	ret    
 804a586:	89 d8                	mov    %ebx,%eax
 804a588:	8b 55 08             	mov    0x8(%ebp),%edx
 804a58b:	c6 42 04 00          	movb   $0x0,0x4(%edx)
 804a58f:	8b 4d 10             	mov    0x10(%ebp),%ecx
 804a592:	66 c7 82 84 02 00 00 	movw   $0x1,0x284(%edx)
 804a599:	01 00 
 804a59b:	89 82 84 00 00 00    	mov    %eax,0x84(%edx)
 804a5a1:	85 c9                	test   %ecx,%ecx
 804a5a3:	75 43                	jne    804a5e8 <sglib__Tree_it_init+0xe8>
 804a5a5:	89 02                	mov    %eax,(%edx)
 804a5a7:	8b 55 08             	mov    0x8(%ebp),%edx
 804a5aa:	8b 02                	mov    (%edx),%eax
 804a5ac:	83 c4 1c             	add    $0x1c,%esp
 804a5af:	5b                   	pop    %ebx
 804a5b0:	5e                   	pop    %esi
 804a5b1:	5f                   	pop    %edi
 804a5b2:	5d                   	pop    %ebp
 804a5b3:	c3                   	ret    
 804a5b4:	85 c0                	test   %eax,%eax
 804a5b6:	75 d0                	jne    804a588 <sglib__Tree_it_init+0x88>
 804a5b8:	eb ad                	jmp    804a567 <sglib__Tree_it_init+0x67>
 804a5ba:	85 c0                	test   %eax,%eax
 804a5bc:	89 c3                	mov    %eax,%ebx
 804a5be:	66 90                	xchg   %ax,%ax
 804a5c0:	75 10                	jne    804a5d2 <sglib__Tree_it_init+0xd2>
 804a5c2:	eb a3                	jmp    804a567 <sglib__Tree_it_init+0x67>
 804a5c4:	74 c0                	je     804a586 <sglib__Tree_it_init+0x86>
 804a5c6:	8b 5b 14             	mov    0x14(%ebx),%ebx
 804a5c9:	85 db                	test   %ebx,%ebx
 804a5cb:	90                   	nop    
 804a5cc:	8d 74 26 00          	lea    0x0(%esi),%esi
 804a5d0:	74 95                	je     804a567 <sglib__Tree_it_init+0x67>
 804a5d2:	89 5c 24 04          	mov    %ebx,0x4(%esp)
 804a5d6:	89 3c 24             	mov    %edi,(%esp)
 804a5d9:	e8 32 e0 ff ff       	call   8048610 <myListCmp>
 804a5de:	83 f8 00             	cmp    $0x0,%eax
 804a5e1:	7d e1                	jge    804a5c4 <sglib__Tree_it_init+0xc4>
 804a5e3:	8b 5b 10             	mov    0x10(%ebx),%ebx
 804a5e6:	eb e1                	jmp    804a5c9 <sglib__Tree_it_init+0xc9>
 804a5e8:	8b 4d 08             	mov    0x8(%ebp),%ecx
 804a5eb:	89 0c 24             	mov    %ecx,(%esp)
 804a5ee:	e8 bd f7 ff ff       	call   8049db0 <sglib__Tree_it_compute_current_elem>
 804a5f3:	8b 55 08             	mov    0x8(%ebp),%edx
 804a5f6:	8b 02                	mov    (%edx),%eax
 804a5f8:	83 c4 1c             	add    $0x1c,%esp
 804a5fb:	5b                   	pop    %ebx
 804a5fc:	5e                   	pop    %esi
 804a5fd:	5f                   	pop    %edi
 804a5fe:	5d                   	pop    %ebp
 804a5ff:	c3                   	ret    
 804a600:	c7 44 24 0c a9 01 05 	movl   $0x80501a9,0xc(%esp)
 804a607:	08 
 804a608:	c7 44 24 08 48 00 00 	movl   $0x48,0x8(%esp)
 804a60f:	00 
 804a610:	c7 44 24 04 6c f5 04 	movl   $0x804f56c,0x4(%esp)
 804a617:	08 
 804a618:	c7 04 24 f0 f5 04 08 	movl   $0x804f5f0,(%esp)
 804a61f:	e8 74 de ff ff       	call   8048498 <__assert_fail@plt>
 804a624:	8d b6 00 00 00 00    	lea    0x0(%esi),%esi
 804a62a:	8d bf 00 00 00 00    	lea    0x0(%edi),%edi

0804a630 <sglib_Tree_it_init_on_equal>:
 804a630:	55                   	push   %ebp
 804a631:	89 e5                	mov    %esp,%ebp
 804a633:	83 ec 18             	sub    $0x18,%esp
 804a636:	8b 45 14             	mov    0x14(%ebp),%eax
 804a639:	c7 44 24 08 01 00 00 	movl   $0x1,0x8(%esp)
 804a640:	00 
 804a641:	89 44 24 10          	mov    %eax,0x10(%esp)
 804a645:	8b 45 10             	mov    0x10(%ebp),%eax
 804a648:	89 44 24 0c          	mov    %eax,0xc(%esp)
 804a64c:	8b 45 0c             	mov    0xc(%ebp),%eax
 804a64f:	89 44 24 04          	mov    %eax,0x4(%esp)
 804a653:	8b 45 08             	mov    0x8(%ebp),%eax
 804a656:	89 04 24             	mov    %eax,(%esp)
 804a659:	e8 a2 fe ff ff       	call   804a500 <sglib__Tree_it_init>
 804a65e:	c9                   	leave  
 804a65f:	c3                   	ret    

0804a660 <sglib_Tree_it_init_postorder>:
 804a660:	55                   	push   %ebp
 804a661:	89 e5                	mov    %esp,%ebp
 804a663:	83 ec 18             	sub    $0x18,%esp
 804a666:	8b 45 0c             	mov    0xc(%ebp),%eax
 804a669:	c7 44 24 10 00 00 00 	movl   $0x0,0x10(%esp)
 804a670:	00 
 804a671:	c7 44 24 0c 00 00 00 	movl   $0x0,0xc(%esp)
 804a678:	00 
 804a679:	c7 44 24 08 02 00 00 	movl   $0x2,0x8(%esp)
 804a680:	00 
 804a681:	89 44 24 04          	mov    %eax,0x4(%esp)
 804a685:	8b 45 08             	mov    0x8(%ebp),%eax
 804a688:	89 04 24             	mov    %eax,(%esp)
 804a68b:	e8 70 fe ff ff       	call   804a500 <sglib__Tree_it_init>
 804a690:	c9                   	leave  
 804a691:	c3                   	ret    
 804a692:	8d b4 26 00 00 00 00 	lea    0x0(%esi),%esi
 804a699:	8d bc 27 00 00 00 00 	lea    0x0(%edi),%edi

0804a6a0 <sglib_Tree_it_init_inorder>:
 804a6a0:	55                   	push   %ebp
 804a6a1:	89 e5                	mov    %esp,%ebp
 804a6a3:	83 ec 18             	sub    $0x18,%esp
 804a6a6:	8b 45 0c             	mov    0xc(%ebp),%eax
 804a6a9:	c7 44 24 10 00 00 00 	movl   $0x0,0x10(%esp)
 804a6b0:	00 
 804a6b1:	c7 44 24 0c 00 00 00 	movl   $0x0,0xc(%esp)
 804a6b8:	00 
 804a6b9:	c7 44 24 08 01 00 00 	movl   $0x1,0x8(%esp)
 804a6c0:	00 
 804a6c1:	89 44 24 04          	mov    %eax,0x4(%esp)
 804a6c5:	8b 45 08             	mov    0x8(%ebp),%eax
 804a6c8:	89 04 24             	mov    %eax,(%esp)
 804a6cb:	e8 30 fe ff ff       	call   804a500 <sglib__Tree_it_init>
 804a6d0:	c9                   	leave  
 804a6d1:	c3                   	ret    
 804a6d2:	8d b4 26 00 00 00 00 	lea    0x0(%esi),%esi
 804a6d9:	8d bc 27 00 00 00 00 	lea    0x0(%edi),%edi

0804a6e0 <sglib_Tree_it_init_preorder>:
 804a6e0:	55                   	push   %ebp
 804a6e1:	89 e5                	mov    %esp,%ebp
 804a6e3:	83 ec 18             	sub    $0x18,%esp
 804a6e6:	8b 45 0c             	mov    0xc(%ebp),%eax
 804a6e9:	c7 44 24 10 00 00 00 	movl   $0x0,0x10(%esp)
 804a6f0:	00 
 804a6f1:	c7 44 24 0c 00 00 00 	movl   $0x0,0xc(%esp)
 804a6f8:	00 
 804a6f9:	c7 44 24 08 00 00 00 	movl   $0x0,0x8(%esp)
 804a700:	00 
 804a701:	89 44 24 04          	mov    %eax,0x4(%esp)
 804a705:	8b 45 08             	mov    0x8(%ebp),%eax
 804a708:	89 04 24             	mov    %eax,(%esp)
 804a70b:	e8 f0 fd ff ff       	call   804a500 <sglib__Tree_it_init>
 804a710:	c9                   	leave  
 804a711:	c3                   	ret    
 804a712:	8d b4 26 00 00 00 00 	lea    0x0(%esi),%esi
 804a719:	8d bc 27 00 00 00 00 	lea    0x0(%edi),%edi

0804a720 <sglib_Tree_it_init>:
 804a720:	55                   	push   %ebp
 804a721:	89 e5                	mov    %esp,%ebp
 804a723:	83 ec 18             	sub    $0x18,%esp
 804a726:	8b 45 0c             	mov    0xc(%ebp),%eax
 804a729:	c7 44 24 10 00 00 00 	movl   $0x0,0x10(%esp)
 804a730:	00 
 804a731:	c7 44 24 0c 00 00 00 	movl   $0x0,0xc(%esp)
 804a738:	00 
 804a739:	c7 44 24 08 02 00 00 	movl   $0x2,0x8(%esp)
 804a740:	00 
 804a741:	89 44 24 04          	mov    %eax,0x4(%esp)
 804a745:	8b 45 08             	mov    0x8(%ebp),%eax
 804a748:	89 04 24             	mov    %eax,(%esp)
 804a74b:	e8 b0 fd ff ff       	call   804a500 <sglib__Tree_it_init>
 804a750:	c9                   	leave  
 804a751:	c3                   	ret    
 804a752:	8d b4 26 00 00 00 00 	lea    0x0(%esi),%esi
 804a759:	8d bc 27 00 00 00 00 	lea    0x0(%edi),%edi

0804a760 <sglib_Tree_len>:
 804a760:	55                   	push   %ebp
 804a761:	89 e5                	mov    %esp,%ebp
 804a763:	57                   	push   %edi
 804a764:	56                   	push   %esi
 804a765:	53                   	push   %ebx
 804a766:	81 ec 9c 02 00 00    	sub    $0x29c,%esp
 804a76c:	8b 45 08             	mov    0x8(%ebp),%eax
 804a76f:	85 c0                	test   %eax,%eax
 804a771:	0f 84 ae 00 00 00    	je     804a825 <sglib_Tree_len+0xc5>
 804a777:	31 ff                	xor    %edi,%edi
 804a779:	31 d2                	xor    %edx,%edx
 804a77b:	90                   	nop    
 804a77c:	8d 74 26 00          	lea    0x0(%esi),%esi
 804a780:	8d b5 74 fd ff ff    	lea    0xfffffd74(%ebp),%esi
 804a786:	8d 9d 74 ff ff ff    	lea    0xffffff74(%ebp),%ebx
 804a78c:	8d 74 26 00          	lea    0x0(%esi),%esi
 804a790:	83 c2 01             	add    $0x1,%edx
 804a793:	8b 48 14             	mov    0x14(%eax),%ecx
 804a796:	83 fa 7f             	cmp    $0x7f,%edx
 804a799:	8b 40 10             	mov    0x10(%eax),%eax
 804a79c:	7f 63                	jg     804a801 <sglib_Tree_len+0xa1>
 804a79e:	85 c0                	test   %eax,%eax
 804a7a0:	89 4c 96 fc          	mov    %ecx,0xfffffffc(%esi,%edx,4)
 804a7a4:	c6 44 1a ff 00       	movb   $0x0,0xffffffff(%edx,%ebx,1)
 804a7a9:	75 e5                	jne    804a790 <sglib_Tree_len+0x30>
 804a7ab:	90                   	nop    
 804a7ac:	8d 74 26 00          	lea    0x0(%esi),%esi
 804a7b0:	83 ea 01             	sub    $0x1,%edx
 804a7b3:	0f b6 84 15 74 ff ff 	movzbl 0xffffff74(%ebp,%edx,1),%eax
 804a7ba:	ff 
 804a7bb:	3c 01                	cmp    $0x1,%al
 804a7bd:	83 d7 00             	adc    $0x0,%edi
 804a7c0:	83 c0 01             	add    $0x1,%eax
 804a7c3:	85 d2                	test   %edx,%edx
 804a7c5:	88 84 15 74 ff ff ff 	mov    %al,0xffffff74(%ebp,%edx,1)
 804a7cc:	7e 1b                	jle    804a7e9 <sglib_Tree_len+0x89>
 804a7ce:	8b 84 95 74 fd ff ff 	mov    0xfffffd74(%ebp,%edx,4),%eax
 804a7d5:	85 c0                	test   %eax,%eax
 804a7d7:	74 d7                	je     804a7b0 <sglib_Tree_len+0x50>
 804a7d9:	c7 84 95 74 fd ff ff 	movl   $0x0,0xfffffd74(%ebp,%edx,4)
 804a7e0:	00 00 00 00 
 804a7e4:	83 c2 01             	add    $0x1,%edx
 804a7e7:	eb 97                	jmp    804a780 <sglib_Tree_len+0x20>
 804a7e9:	8b 84 95 74 fd ff ff 	mov    0xfffffd74(%ebp,%edx,4),%eax
 804a7f0:	85 c0                	test   %eax,%eax
 804a7f2:	75 e5                	jne    804a7d9 <sglib_Tree_len+0x79>
 804a7f4:	81 c4 9c 02 00 00    	add    $0x29c,%esp
 804a7fa:	89 f8                	mov    %edi,%eax
 804a7fc:	5b                   	pop    %ebx
 804a7fd:	5e                   	pop    %esi
 804a7fe:	5f                   	pop    %edi
 804a7ff:	5d                   	pop    %ebp
 804a800:	c3                   	ret    
 804a801:	c7 44 24 0c bd 01 05 	movl   $0x80501bd,0xc(%esp)
 804a808:	08 
 804a809:	c7 44 24 08 48 00 00 	movl   $0x48,0x8(%esp)
 804a810:	00 
 804a811:	c7 44 24 04 6c f5 04 	movl   $0x804f56c,0x4(%esp)
 804a818:	08 
 804a819:	c7 04 24 60 f8 04 08 	movl   $0x804f860,(%esp)
 804a820:	e8 73 dc ff ff       	call   8048498 <__assert_fail@plt>
 804a825:	31 ff                	xor    %edi,%edi
 804a827:	eb cb                	jmp    804a7f4 <sglib_Tree_len+0x94>
 804a829:	8d b4 26 00 00 00 00 	lea    0x0(%esi),%esi

0804a830 <sglib_Tree_is_member>:
 804a830:	55                   	push   %ebp
 804a831:	89 e5                	mov    %esp,%ebp
 804a833:	56                   	push   %esi
 804a834:	53                   	push   %ebx
 804a835:	83 ec 10             	sub    $0x10,%esp
 804a838:	8b 5d 08             	mov    0x8(%ebp),%ebx
 804a83b:	8b 75 0c             	mov    0xc(%ebp),%esi
 804a83e:	85 db                	test   %ebx,%ebx
 804a840:	74 23                	je     804a865 <sglib_Tree_is_member+0x35>
 804a842:	89 5c 24 04          	mov    %ebx,0x4(%esp)
 804a846:	89 34 24             	mov    %esi,(%esp)
 804a849:	e8 c2 dd ff ff       	call   8048610 <myListCmp>
 804a84e:	83 f8 00             	cmp    $0x0,%eax
 804a851:	7c 0b                	jl     804a85e <sglib_Tree_is_member+0x2e>
 804a853:	0f 94 c2             	sete   %dl
 804a856:	84 d2                	test   %dl,%dl
 804a858:	74 16                	je     804a870 <sglib_Tree_is_member+0x40>
 804a85a:	39 de                	cmp    %ebx,%esi
 804a85c:	73 12                	jae    804a870 <sglib_Tree_is_member+0x40>
 804a85e:	8b 5b 10             	mov    0x10(%ebx),%ebx
 804a861:	85 db                	test   %ebx,%ebx
 804a863:	75 dd                	jne    804a842 <sglib_Tree_is_member+0x12>
 804a865:	83 c4 10             	add    $0x10,%esp
 804a868:	31 c0                	xor    %eax,%eax
 804a86a:	5b                   	pop    %ebx
 804a86b:	5e                   	pop    %esi
 804a86c:	5d                   	pop    %ebp
 804a86d:	c3                   	ret    
 804a86e:	66 90                	xchg   %ax,%ax
 804a870:	85 c0                	test   %eax,%eax
 804a872:	75 1c                	jne    804a890 <sglib_Tree_is_member+0x60>
 804a874:	84 d2                	test   %dl,%dl
 804a876:	74 04                	je     804a87c <sglib_Tree_is_member+0x4c>
 804a878:	39 de                	cmp    %ebx,%esi
 804a87a:	77 14                	ja     804a890 <sglib_Tree_is_member+0x60>
 804a87c:	39 f3                	cmp    %esi,%ebx
 804a87e:	b8 01 00 00 00       	mov    $0x1,%eax
 804a883:	75 10                	jne    804a895 <sglib_Tree_is_member+0x65>
 804a885:	83 c4 10             	add    $0x10,%esp
 804a888:	5b                   	pop    %ebx
 804a889:	5e                   	pop    %esi
 804a88a:	5d                   	pop    %ebp
 804a88b:	c3                   	ret    
 804a88c:	8d 74 26 00          	lea    0x0(%esi),%esi
 804a890:	8b 5b 14             	mov    0x14(%ebx),%ebx
 804a893:	eb a9                	jmp    804a83e <sglib_Tree_is_member+0xe>
 804a895:	c7 44 24 0c cc 01 05 	movl   $0x80501cc,0xc(%esp)
 804a89c:	08 
 804a89d:	c7 44 24 08 48 00 00 	movl   $0x48,0x8(%esp)
 804a8a4:	00 
 804a8a5:	c7 44 24 04 6c f5 04 	movl   $0x804f56c,0x4(%esp)
 804a8ac:	08 
 804a8ad:	c7 04 24 00 f6 04 08 	movl   $0x804f600,(%esp)
 804a8b4:	e8 df db ff ff       	call   8048498 <__assert_fail@plt>
 804a8b9:	8d b4 26 00 00 00 00 	lea    0x0(%esi),%esi

0804a8c0 <sglib___Tree_fix_right_deletion_discrepancy>:
 804a8c0:	55                   	push   %ebp
 804a8c1:	89 c1                	mov    %eax,%ecx
 804a8c3:	89 e5                	mov    %esp,%ebp
 804a8c5:	83 ec 38             	sub    $0x38,%esp
 804a8c8:	89 5d f4             	mov    %ebx,0xfffffff4(%ebp)
 804a8cb:	89 75 f8             	mov    %esi,0xfffffff8(%ebp)
 804a8ce:	89 7d fc             	mov    %edi,0xfffffffc(%ebp)
 804a8d1:	8b 38                	mov    (%eax),%edi
 804a8d3:	85 ff                	test   %edi,%edi
 804a8d5:	0f 84 70 02 00 00    	je     804ab4b <sglib___Tree_fix_right_deletion_discrepancy+0x28b>
 804a8db:	8b 5f 10             	mov    0x10(%edi),%ebx
 804a8de:	85 db                	test   %ebx,%ebx
 804a8e0:	0f 84 62 01 00 00    	je     804aa48 <sglib___Tree_fix_right_deletion_discrepancy+0x188>
 804a8e6:	80 7b 0c 01          	cmpb   $0x1,0xc(%ebx)
 804a8ea:	8b 53 10             	mov    0x10(%ebx),%edx
 804a8ed:	8b 73 14             	mov    0x14(%ebx),%esi
 804a8f0:	74 7e                	je     804a970 <sglib___Tree_fix_right_deletion_discrepancy+0xb0>
 804a8f2:	85 d2                	test   %edx,%edx
 804a8f4:	74 06                	je     804a8fc <sglib___Tree_fix_right_deletion_discrepancy+0x3c>
 804a8f6:	80 7a 0c 00          	cmpb   $0x0,0xc(%edx)
 804a8fa:	75 38                	jne    804a934 <sglib___Tree_fix_right_deletion_discrepancy+0x74>
 804a8fc:	85 f6                	test   %esi,%esi
 804a8fe:	66 90                	xchg   %ax,%ax
 804a900:	74 06                	je     804a908 <sglib___Tree_fix_right_deletion_discrepancy+0x48>
 804a902:	80 7e 0c 00          	cmpb   $0x0,0xc(%esi)
 804a906:	75 28                	jne    804a930 <sglib___Tree_fix_right_deletion_discrepancy+0x70>
 804a908:	31 c0                	xor    %eax,%eax
 804a90a:	80 7f 0c 00          	cmpb   $0x0,0xc(%edi)
 804a90e:	c6 47 0c 00          	movb   $0x0,0xc(%edi)
 804a912:	c6 43 0c 01          	movb   $0x1,0xc(%ebx)
 804a916:	0f 94 c0             	sete   %al
 804a919:	8d b4 26 00 00 00 00 	lea    0x0(%esi),%esi
 804a920:	8b 5d f4             	mov    0xfffffff4(%ebp),%ebx
 804a923:	8b 75 f8             	mov    0xfffffff8(%ebp),%esi
 804a926:	8b 7d fc             	mov    0xfffffffc(%ebp),%edi
 804a929:	89 ec                	mov    %ebp,%esp
 804a92b:	5d                   	pop    %ebp
 804a92c:	c3                   	ret    
 804a92d:	8d 76 00             	lea    0x0(%esi),%esi
 804a930:	85 d2                	test   %edx,%edx
 804a932:	74 0e                	je     804a942 <sglib___Tree_fix_right_deletion_discrepancy+0x82>
 804a934:	80 7a 0c 01          	cmpb   $0x1,0xc(%edx)
 804a938:	0f 84 1f 01 00 00    	je     804aa5d <sglib___Tree_fix_right_deletion_discrepancy+0x19d>
 804a93e:	85 f6                	test   %esi,%esi
 804a940:	74 0a                	je     804a94c <sglib___Tree_fix_right_deletion_discrepancy+0x8c>
 804a942:	80 7e 0c 01          	cmpb   $0x1,0xc(%esi)
 804a946:	0f 84 b9 00 00 00    	je     804aa05 <sglib___Tree_fix_right_deletion_discrepancy+0x145>
 804a94c:	c7 44 24 0c 00 02 05 	movl   $0x8050200,0xc(%esp)
 804a953:	08 
 804a954:	c7 44 24 08 48 00 00 	movl   $0x48,0x8(%esp)
 804a95b:	00 
 804a95c:	c7 44 24 04 6c f5 04 	movl   $0x804f56c,0x4(%esp)
 804a963:	08 
 804a964:	c7 04 24 c8 f8 04 08 	movl   $0x804f8c8,(%esp)
 804a96b:	e8 28 db ff ff       	call   8048498 <__assert_fail@plt>
 804a970:	85 f6                	test   %esi,%esi
 804a972:	0f 84 44 01 00 00    	je     804aabc <sglib___Tree_fix_right_deletion_discrepancy+0x1fc>
 804a978:	80 7e 0c 00          	cmpb   $0x0,0xc(%esi)
 804a97c:	0f 85 f5 01 00 00    	jne    804ab77 <sglib___Tree_fix_right_deletion_discrepancy+0x2b7>
 804a982:	8b 46 10             	mov    0x10(%esi),%eax
 804a985:	89 45 e4             	mov    %eax,0xffffffe4(%ebp)
 804a988:	8b 46 14             	mov    0x14(%esi),%eax
 804a98b:	89 45 f0             	mov    %eax,0xfffffff0(%ebp)
 804a98e:	8b 45 e4             	mov    0xffffffe4(%ebp),%eax
 804a991:	85 c0                	test   %eax,%eax
 804a993:	74 09                	je     804a99e <sglib___Tree_fix_right_deletion_discrepancy+0xde>
 804a995:	8b 45 e4             	mov    0xffffffe4(%ebp),%eax
 804a998:	80 78 0c 00          	cmpb   $0x0,0xc(%eax)
 804a99c:	75 22                	jne    804a9c0 <sglib___Tree_fix_right_deletion_discrepancy+0x100>
 804a99e:	8b 45 f0             	mov    0xfffffff0(%ebp),%eax
 804a9a1:	85 c0                	test   %eax,%eax
 804a9a3:	0f 84 88 00 00 00    	je     804aa31 <sglib___Tree_fix_right_deletion_discrepancy+0x171>
 804a9a9:	8b 45 f0             	mov    0xfffffff0(%ebp),%eax
 804a9ac:	80 78 0c 00          	cmpb   $0x0,0xc(%eax)
 804a9b0:	74 7f                	je     804aa31 <sglib___Tree_fix_right_deletion_discrepancy+0x171>
 804a9b2:	8b 45 e4             	mov    0xffffffe4(%ebp),%eax
 804a9b5:	85 c0                	test   %eax,%eax
 804a9b7:	74 1b                	je     804a9d4 <sglib___Tree_fix_right_deletion_discrepancy+0x114>
 804a9b9:	8d b4 26 00 00 00 00 	lea    0x0(%esi),%esi
 804a9c0:	8b 45 e4             	mov    0xffffffe4(%ebp),%eax
 804a9c3:	80 78 0c 01          	cmpb   $0x1,0xc(%eax)
 804a9c7:	0f 84 06 01 00 00    	je     804aad3 <sglib___Tree_fix_right_deletion_discrepancy+0x213>
 804a9cd:	8b 45 f0             	mov    0xfffffff0(%ebp),%eax
 804a9d0:	85 c0                	test   %eax,%eax
 804a9d2:	74 0d                	je     804a9e1 <sglib___Tree_fix_right_deletion_discrepancy+0x121>
 804a9d4:	8b 55 f0             	mov    0xfffffff0(%ebp),%edx
 804a9d7:	80 7a 0c 01          	cmpb   $0x1,0xc(%edx)
 804a9db:	0f 84 28 01 00 00    	je     804ab09 <sglib___Tree_fix_right_deletion_discrepancy+0x249>
 804a9e1:	c7 44 24 0c 00 02 05 	movl   $0x8050200,0xc(%esp)
 804a9e8:	08 
 804a9e9:	c7 44 24 08 48 00 00 	movl   $0x48,0x8(%esp)
 804a9f0:	00 
 804a9f1:	c7 44 24 04 6c f5 04 	movl   $0x804f56c,0x4(%esp)
 804a9f8:	08 
 804a9f9:	c7 04 24 c8 f5 04 08 	movl   $0x804f5c8,(%esp)
 804aa00:	e8 93 da ff ff       	call   8048498 <__assert_fail@plt>
 804aa05:	8b 56 14             	mov    0x14(%esi),%edx
 804aa08:	8b 46 10             	mov    0x10(%esi),%eax
 804aa0b:	89 31                	mov    %esi,(%ecx)
 804aa0d:	89 7e 14             	mov    %edi,0x14(%esi)
 804aa10:	89 55 e8             	mov    %edx,0xffffffe8(%ebp)
 804aa13:	0f b6 57 0c          	movzbl 0xc(%edi),%edx
 804aa17:	89 43 14             	mov    %eax,0x14(%ebx)
 804aa1a:	89 5e 10             	mov    %ebx,0x10(%esi)
 804aa1d:	88 56 0c             	mov    %dl,0xc(%esi)
 804aa20:	c6 47 0c 00          	movb   $0x0,0xc(%edi)
 804aa24:	8b 45 e8             	mov    0xffffffe8(%ebp),%eax
 804aa27:	89 47 10             	mov    %eax,0x10(%edi)
 804aa2a:	31 c0                	xor    %eax,%eax
 804aa2c:	e9 ef fe ff ff       	jmp    804a920 <sglib___Tree_fix_right_deletion_discrepancy+0x60>
 804aa31:	31 c0                	xor    %eax,%eax
 804aa33:	89 19                	mov    %ebx,(%ecx)
 804aa35:	c6 43 0c 00          	movb   $0x0,0xc(%ebx)
 804aa39:	89 7b 14             	mov    %edi,0x14(%ebx)
 804aa3c:	89 77 10             	mov    %esi,0x10(%edi)
 804aa3f:	c6 46 0c 01          	movb   $0x1,0xc(%esi)
 804aa43:	e9 d8 fe ff ff       	jmp    804a920 <sglib___Tree_fix_right_deletion_discrepancy+0x60>
 804aa48:	80 7f 0c 01          	cmpb   $0x1,0xc(%edi)
 804aa4c:	0f 85 49 01 00 00    	jne    804ab9b <sglib___Tree_fix_right_deletion_discrepancy+0x2db>
 804aa52:	31 c0                	xor    %eax,%eax
 804aa54:	c6 47 0c 00          	movb   $0x0,0xc(%edi)
 804aa58:	e9 c3 fe ff ff       	jmp    804a920 <sglib___Tree_fix_right_deletion_discrepancy+0x60>
 804aa5d:	85 f6                	test   %esi,%esi
 804aa5f:	90                   	nop    
 804aa60:	74 3c                	je     804aa9e <sglib___Tree_fix_right_deletion_discrepancy+0x1de>
 804aa62:	0f b6 46 0c          	movzbl 0xc(%esi),%eax
 804aa66:	84 c0                	test   %al,%al
 804aa68:	74 34                	je     804aa9e <sglib___Tree_fix_right_deletion_discrepancy+0x1de>
 804aa6a:	2c 01                	sub    $0x1,%al
 804aa6c:	0f 85 4d 01 00 00    	jne    804abbf <sglib___Tree_fix_right_deletion_discrepancy+0x2ff>
 804aa72:	8b 56 14             	mov    0x14(%esi),%edx
 804aa75:	8b 46 10             	mov    0x10(%esi),%eax
 804aa78:	89 31                	mov    %esi,(%ecx)
 804aa7a:	89 7e 14             	mov    %edi,0x14(%esi)
 804aa7d:	89 55 ec             	mov    %edx,0xffffffec(%ebp)
 804aa80:	0f b6 57 0c          	movzbl 0xc(%edi),%edx
 804aa84:	89 43 14             	mov    %eax,0x14(%ebx)
 804aa87:	89 5e 10             	mov    %ebx,0x10(%esi)
 804aa8a:	88 56 0c             	mov    %dl,0xc(%esi)
 804aa8d:	c6 47 0c 00          	movb   $0x0,0xc(%edi)
 804aa91:	8b 45 ec             	mov    0xffffffec(%ebp),%eax
 804aa94:	89 47 10             	mov    %eax,0x10(%edi)
 804aa97:	31 c0                	xor    %eax,%eax
 804aa99:	e9 82 fe ff ff       	jmp    804a920 <sglib___Tree_fix_right_deletion_discrepancy+0x60>
 804aa9e:	89 19                	mov    %ebx,(%ecx)
 804aaa0:	0f b6 47 0c          	movzbl 0xc(%edi),%eax
 804aaa4:	89 7b 14             	mov    %edi,0x14(%ebx)
 804aaa7:	89 77 10             	mov    %esi,0x10(%edi)
 804aaaa:	88 43 0c             	mov    %al,0xc(%ebx)
 804aaad:	31 c0                	xor    %eax,%eax
 804aaaf:	c6 47 0c 00          	movb   $0x0,0xc(%edi)
 804aab3:	c6 42 0c 00          	movb   $0x0,0xc(%edx)
 804aab7:	e9 64 fe ff ff       	jmp    804a920 <sglib___Tree_fix_right_deletion_discrepancy+0x60>
 804aabc:	89 18                	mov    %ebx,(%eax)
 804aabe:	31 c0                	xor    %eax,%eax
 804aac0:	c6 43 0c 00          	movb   $0x0,0xc(%ebx)
 804aac4:	89 7b 14             	mov    %edi,0x14(%ebx)
 804aac7:	c7 47 10 00 00 00 00 	movl   $0x0,0x10(%edi)
 804aace:	e9 4d fe ff ff       	jmp    804a920 <sglib___Tree_fix_right_deletion_discrepancy+0x60>
 804aad3:	8b 45 f0             	mov    0xfffffff0(%ebp),%eax
 804aad6:	85 c0                	test   %eax,%eax
 804aad8:	74 0d                	je     804aae7 <sglib___Tree_fix_right_deletion_discrepancy+0x227>
 804aada:	8b 45 f0             	mov    0xfffffff0(%ebp),%eax
 804aadd:	80 78 0c 01          	cmpb   $0x1,0xc(%eax)
 804aae1:	0f 84 88 00 00 00    	je     804ab6f <sglib___Tree_fix_right_deletion_discrepancy+0x2af>
 804aae7:	8b 45 f0             	mov    0xfffffff0(%ebp),%eax
 804aaea:	89 31                	mov    %esi,(%ecx)
 804aaec:	89 5e 10             	mov    %ebx,0x10(%esi)
 804aaef:	89 53 10             	mov    %edx,0x10(%ebx)
 804aaf2:	8b 55 e4             	mov    0xffffffe4(%ebp),%edx
 804aaf5:	89 47 10             	mov    %eax,0x10(%edi)
 804aaf8:	31 c0                	xor    %eax,%eax
 804aafa:	89 7e 14             	mov    %edi,0x14(%esi)
 804aafd:	c6 42 0c 00          	movb   $0x0,0xc(%edx)
 804ab01:	89 53 14             	mov    %edx,0x14(%ebx)
 804ab04:	e9 17 fe ff ff       	jmp    804a920 <sglib___Tree_fix_right_deletion_discrepancy+0x60>
 804ab09:	8b 45 e4             	mov    0xffffffe4(%ebp),%eax
 804ab0c:	85 c0                	test   %eax,%eax
 804ab0e:	74 0d                	je     804ab1d <sglib___Tree_fix_right_deletion_discrepancy+0x25d>
 804ab10:	8b 45 e4             	mov    0xffffffe4(%ebp),%eax
 804ab13:	80 78 0c 00          	cmpb   $0x0,0xc(%eax)
 804ab17:	0f 85 c6 00 00 00    	jne    804abe3 <sglib___Tree_fix_right_deletion_discrepancy+0x323>
 804ab1d:	8b 55 f0             	mov    0xfffffff0(%ebp),%edx
 804ab20:	8b 45 f0             	mov    0xfffffff0(%ebp),%eax
 804ab23:	8b 52 10             	mov    0x10(%edx),%edx
 804ab26:	89 55 e4             	mov    %edx,0xffffffe4(%ebp)
 804ab29:	8b 50 14             	mov    0x14(%eax),%edx
 804ab2c:	89 01                	mov    %eax,(%ecx)
 804ab2e:	c6 40 0c 00          	movb   $0x0,0xc(%eax)
 804ab32:	89 58 10             	mov    %ebx,0x10(%eax)
 804ab35:	8b 45 e4             	mov    0xffffffe4(%ebp),%eax
 804ab38:	89 57 10             	mov    %edx,0x10(%edi)
 804ab3b:	89 46 14             	mov    %eax,0x14(%esi)
 804ab3e:	8b 45 f0             	mov    0xfffffff0(%ebp),%eax
 804ab41:	89 78 14             	mov    %edi,0x14(%eax)
 804ab44:	31 c0                	xor    %eax,%eax
 804ab46:	e9 d5 fd ff ff       	jmp    804a920 <sglib___Tree_fix_right_deletion_discrepancy+0x60>
 804ab4b:	c7 44 24 0c 00 02 05 	movl   $0x8050200,0xc(%esp)
 804ab52:	08 
 804ab53:	c7 44 24 08 48 00 00 	movl   $0x48,0x8(%esp)
 804ab5a:	00 
 804ab5b:	c7 44 24 04 6c f5 04 	movl   $0x804f56c,0x4(%esp)
 804ab62:	08 
 804ab63:	c7 04 24 f1 f5 04 08 	movl   $0x804f5f1,(%esp)
 804ab6a:	e8 29 d9 ff ff       	call   8048498 <__assert_fail@plt>
 804ab6f:	8b 50 10             	mov    0x10(%eax),%edx
 804ab72:	89 55 e4             	mov    %edx,0xffffffe4(%ebp)
 804ab75:	eb b2                	jmp    804ab29 <sglib___Tree_fix_right_deletion_discrepancy+0x269>
 804ab77:	c7 44 24 0c 00 02 05 	movl   $0x8050200,0xc(%esp)
 804ab7e:	08 
 804ab7f:	c7 44 24 08 48 00 00 	movl   $0x48,0x8(%esp)
 804ab86:	00 
 804ab87:	c7 44 24 04 6c f5 04 	movl   $0x804f56c,0x4(%esp)
 804ab8e:	08 
 804ab8f:	c7 04 24 84 f8 04 08 	movl   $0x804f884,(%esp)
 804ab96:	e8 fd d8 ff ff       	call   8048498 <__assert_fail@plt>
 804ab9b:	c7 44 24 0c 00 02 05 	movl   $0x8050200,0xc(%esp)
 804aba2:	08 
 804aba3:	c7 44 24 08 48 00 00 	movl   $0x48,0x8(%esp)
 804abaa:	00 
 804abab:	c7 44 24 04 6c f5 04 	movl   $0x804f56c,0x4(%esp)
 804abb2:	08 
 804abb3:	c7 04 24 0a f6 04 08 	movl   $0x804f60a,(%esp)
 804abba:	e8 d9 d8 ff ff       	call   8048498 <__assert_fail@plt>
 804abbf:	c7 44 24 0c 00 02 05 	movl   $0x8050200,0xc(%esp)
 804abc6:	08 
 804abc7:	c7 44 24 08 48 00 00 	movl   $0x48,0x8(%esp)
 804abce:	00 
 804abcf:	c7 44 24 04 6c f5 04 	movl   $0x804f56c,0x4(%esp)
 804abd6:	08 
 804abd7:	c7 04 24 18 f6 04 08 	movl   $0x804f618,(%esp)
 804abde:	e8 b5 d8 ff ff       	call   8048498 <__assert_fail@plt>
 804abe3:	c7 44 24 0c 00 02 05 	movl   $0x8050200,0xc(%esp)
 804abea:	08 
 804abeb:	c7 44 24 08 48 00 00 	movl   $0x48,0x8(%esp)
 804abf2:	00 
 804abf3:	c7 44 24 04 6c f5 04 	movl   $0x804f56c,0x4(%esp)
 804abfa:	08 
 804abfb:	c7 04 24 a4 f8 04 08 	movl   $0x804f8a4,(%esp)
 804ac02:	e8 91 d8 ff ff       	call   8048498 <__assert_fail@plt>
 804ac07:	89 f6                	mov    %esi,%esi
 804ac09:	8d bc 27 00 00 00 00 	lea    0x0(%edi),%edi

0804ac10 <sglib___Tree_delete_rightmost_leaf>:
 804ac10:	55                   	push   %ebp
 804ac11:	89 e5                	mov    %esp,%ebp
 804ac13:	53                   	push   %ebx
 804ac14:	89 c3                	mov    %eax,%ebx
 804ac16:	83 ec 14             	sub    $0x14,%esp
 804ac19:	8b 00                	mov    (%eax),%eax
 804ac1b:	85 c0                	test   %eax,%eax
 804ac1d:	74 73                	je     804ac92 <sglib___Tree_delete_rightmost_leaf+0x82>
 804ac1f:	8b 48 14             	mov    0x14(%eax),%ecx
 804ac22:	85 c9                	test   %ecx,%ecx
 804ac24:	74 2a                	je     804ac50 <sglib___Tree_delete_rightmost_leaf+0x40>
 804ac26:	83 c0 14             	add    $0x14,%eax
 804ac29:	e8 e2 ff ff ff       	call   804ac10 <sglib___Tree_delete_rightmost_leaf>
 804ac2e:	31 c9                	xor    %ecx,%ecx
 804ac30:	85 c0                	test   %eax,%eax
 804ac32:	75 0c                	jne    804ac40 <sglib___Tree_delete_rightmost_leaf+0x30>
 804ac34:	83 c4 14             	add    $0x14,%esp
 804ac37:	89 c8                	mov    %ecx,%eax
 804ac39:	5b                   	pop    %ebx
 804ac3a:	5d                   	pop    %ebp
 804ac3b:	c3                   	ret    
 804ac3c:	8d 74 26 00          	lea    0x0(%esi),%esi
 804ac40:	83 c4 14             	add    $0x14,%esp
 804ac43:	89 d8                	mov    %ebx,%eax
 804ac45:	5b                   	pop    %ebx
 804ac46:	5d                   	pop    %ebp
 804ac47:	e9 74 fc ff ff       	jmp    804a8c0 <sglib___Tree_fix_right_deletion_discrepancy>
 804ac4c:	8d 74 26 00          	lea    0x0(%esi),%esi
 804ac50:	89 02                	mov    %eax,(%edx)
 804ac52:	8b 50 10             	mov    0x10(%eax),%edx
 804ac55:	85 d2                	test   %edx,%edx
 804ac57:	74 28                	je     804ac81 <sglib___Tree_delete_rightmost_leaf+0x71>
 804ac59:	31 c9                	xor    %ecx,%ecx
 804ac5b:	80 78 0c 00          	cmpb   $0x0,0xc(%eax)
 804ac5f:	74 0f                	je     804ac70 <sglib___Tree_delete_rightmost_leaf+0x60>
 804ac61:	c6 42 0c 00          	movb   $0x0,0xc(%edx)
 804ac65:	89 13                	mov    %edx,(%ebx)
 804ac67:	83 c4 14             	add    $0x14,%esp
 804ac6a:	89 c8                	mov    %ecx,%eax
 804ac6c:	5b                   	pop    %ebx
 804ac6d:	5d                   	pop    %ebp
 804ac6e:	c3                   	ret    
 804ac6f:	90                   	nop    
 804ac70:	31 c9                	xor    %ecx,%ecx
 804ac72:	80 7a 0c 00          	cmpb   $0x0,0xc(%edx)
 804ac76:	c6 42 0c 00          	movb   $0x0,0xc(%edx)
 804ac7a:	89 13                	mov    %edx,(%ebx)
 804ac7c:	0f 94 c1             	sete   %cl
 804ac7f:	eb e6                	jmp    804ac67 <sglib___Tree_delete_rightmost_leaf+0x57>
 804ac81:	31 c9                	xor    %ecx,%ecx
 804ac83:	c7 03 00 00 00 00    	movl   $0x0,(%ebx)
 804ac89:	80 78 0c 00          	cmpb   $0x0,0xc(%eax)
 804ac8d:	0f 94 c1             	sete   %cl
 804ac90:	eb a2                	jmp    804ac34 <sglib___Tree_delete_rightmost_leaf+0x24>
 804ac92:	c7 44 24 0c 40 02 05 	movl   $0x8050240,0xc(%esp)
 804ac99:	08 
 804ac9a:	c7 44 24 08 48 00 00 	movl   $0x48,0x8(%esp)
 804aca1:	00 
 804aca2:	c7 44 24 04 6c f5 04 	movl   $0x804f56c,0x4(%esp)
 804aca9:	08 
 804acaa:	c7 04 24 f1 f5 04 08 	movl   $0x804f5f1,(%esp)
 804acb1:	e8 e2 d7 ff ff       	call   8048498 <__assert_fail@plt>
 804acb6:	8d 76 00             	lea    0x0(%esi),%esi
 804acb9:	8d bc 27 00 00 00 00 	lea    0x0(%edi),%edi

0804acc0 <sglib___Tree_fix_left_deletion_discrepancy>:
 804acc0:	55                   	push   %ebp
 804acc1:	89 c1                	mov    %eax,%ecx
 804acc3:	89 e5                	mov    %esp,%ebp
 804acc5:	83 ec 38             	sub    $0x38,%esp
 804acc8:	89 5d f4             	mov    %ebx,0xfffffff4(%ebp)
 804accb:	89 75 f8             	mov    %esi,0xfffffff8(%ebp)
 804acce:	89 7d fc             	mov    %edi,0xfffffffc(%ebp)
 804acd1:	8b 38                	mov    (%eax),%edi
 804acd3:	85 ff                	test   %edi,%edi
 804acd5:	0f 84 70 02 00 00    	je     804af4b <sglib___Tree_fix_left_deletion_discrepancy+0x28b>
 804acdb:	8b 5f 14             	mov    0x14(%edi),%ebx
 804acde:	85 db                	test   %ebx,%ebx
 804ace0:	0f 84 62 01 00 00    	je     804ae48 <sglib___Tree_fix_left_deletion_discrepancy+0x188>
 804ace6:	80 7b 0c 01          	cmpb   $0x1,0xc(%ebx)
 804acea:	8b 53 14             	mov    0x14(%ebx),%edx
 804aced:	8b 73 10             	mov    0x10(%ebx),%esi
 804acf0:	74 7e                	je     804ad70 <sglib___Tree_fix_left_deletion_discrepancy+0xb0>
 804acf2:	85 d2                	test   %edx,%edx
 804acf4:	74 06                	je     804acfc <sglib___Tree_fix_left_deletion_discrepancy+0x3c>
 804acf6:	80 7a 0c 00          	cmpb   $0x0,0xc(%edx)
 804acfa:	75 38                	jne    804ad34 <sglib___Tree_fix_left_deletion_discrepancy+0x74>
 804acfc:	85 f6                	test   %esi,%esi
 804acfe:	66 90                	xchg   %ax,%ax
 804ad00:	74 06                	je     804ad08 <sglib___Tree_fix_left_deletion_discrepancy+0x48>
 804ad02:	80 7e 0c 00          	cmpb   $0x0,0xc(%esi)
 804ad06:	75 28                	jne    804ad30 <sglib___Tree_fix_left_deletion_discrepancy+0x70>
 804ad08:	31 c0                	xor    %eax,%eax
 804ad0a:	80 7f 0c 00          	cmpb   $0x0,0xc(%edi)
 804ad0e:	c6 47 0c 00          	movb   $0x0,0xc(%edi)
 804ad12:	c6 43 0c 01          	movb   $0x1,0xc(%ebx)
 804ad16:	0f 94 c0             	sete   %al
 804ad19:	8d b4 26 00 00 00 00 	lea    0x0(%esi),%esi
 804ad20:	8b 5d f4             	mov    0xfffffff4(%ebp),%ebx
 804ad23:	8b 75 f8             	mov    0xfffffff8(%ebp),%esi
 804ad26:	8b 7d fc             	mov    0xfffffffc(%ebp),%edi
 804ad29:	89 ec                	mov    %ebp,%esp
 804ad2b:	5d                   	pop    %ebp
 804ad2c:	c3                   	ret    
 804ad2d:	8d 76 00             	lea    0x0(%esi),%esi
 804ad30:	85 d2                	test   %edx,%edx
 804ad32:	74 0e                	je     804ad42 <sglib___Tree_fix_left_deletion_discrepancy+0x82>
 804ad34:	80 7a 0c 01          	cmpb   $0x1,0xc(%edx)
 804ad38:	0f 84 1f 01 00 00    	je     804ae5d <sglib___Tree_fix_left_deletion_discrepancy+0x19d>
 804ad3e:	85 f6                	test   %esi,%esi
 804ad40:	74 0a                	je     804ad4c <sglib___Tree_fix_left_deletion_discrepancy+0x8c>
 804ad42:	80 7e 0c 01          	cmpb   $0x1,0xc(%esi)
 804ad46:	0f 84 b9 00 00 00    	je     804ae05 <sglib___Tree_fix_left_deletion_discrepancy+0x145>
 804ad4c:	c7 44 24 0c 80 02 05 	movl   $0x8050280,0xc(%esp)
 804ad53:	08 
 804ad54:	c7 44 24 08 48 00 00 	movl   $0x48,0x8(%esp)
 804ad5b:	00 
 804ad5c:	c7 44 24 04 6c f5 04 	movl   $0x804f56c,0x4(%esp)
 804ad63:	08 
 804ad64:	c7 04 24 c8 f8 04 08 	movl   $0x804f8c8,(%esp)
 804ad6b:	e8 28 d7 ff ff       	call   8048498 <__assert_fail@plt>
 804ad70:	85 f6                	test   %esi,%esi
 804ad72:	0f 84 44 01 00 00    	je     804aebc <sglib___Tree_fix_left_deletion_discrepancy+0x1fc>
 804ad78:	80 7e 0c 00          	cmpb   $0x0,0xc(%esi)
 804ad7c:	0f 85 f5 01 00 00    	jne    804af77 <sglib___Tree_fix_left_deletion_discrepancy+0x2b7>
 804ad82:	8b 46 14             	mov    0x14(%esi),%eax
 804ad85:	89 45 e4             	mov    %eax,0xffffffe4(%ebp)
 804ad88:	8b 46 10             	mov    0x10(%esi),%eax
 804ad8b:	89 45 f0             	mov    %eax,0xfffffff0(%ebp)
 804ad8e:	8b 45 e4             	mov    0xffffffe4(%ebp),%eax
 804ad91:	85 c0                	test   %eax,%eax
 804ad93:	74 09                	je     804ad9e <sglib___Tree_fix_left_deletion_discrepancy+0xde>
 804ad95:	8b 45 e4             	mov    0xffffffe4(%ebp),%eax
 804ad98:	80 78 0c 00          	cmpb   $0x0,0xc(%eax)
 804ad9c:	75 22                	jne    804adc0 <sglib___Tree_fix_left_deletion_discrepancy+0x100>
 804ad9e:	8b 45 f0             	mov    0xfffffff0(%ebp),%eax
 804ada1:	85 c0                	test   %eax,%eax
 804ada3:	0f 84 88 00 00 00    	je     804ae31 <sglib___Tree_fix_left_deletion_discrepancy+0x171>
 804ada9:	8b 45 f0             	mov    0xfffffff0(%ebp),%eax
 804adac:	80 78 0c 00          	cmpb   $0x0,0xc(%eax)
 804adb0:	74 7f                	je     804ae31 <sglib___Tree_fix_left_deletion_discrepancy+0x171>
 804adb2:	8b 45 e4             	mov    0xffffffe4(%ebp),%eax
 804adb5:	85 c0                	test   %eax,%eax
 804adb7:	74 1b                	je     804add4 <sglib___Tree_fix_left_deletion_discrepancy+0x114>
 804adb9:	8d b4 26 00 00 00 00 	lea    0x0(%esi),%esi
 804adc0:	8b 45 e4             	mov    0xffffffe4(%ebp),%eax
 804adc3:	80 78 0c 01          	cmpb   $0x1,0xc(%eax)
 804adc7:	0f 84 06 01 00 00    	je     804aed3 <sglib___Tree_fix_left_deletion_discrepancy+0x213>
 804adcd:	8b 45 f0             	mov    0xfffffff0(%ebp),%eax
 804add0:	85 c0                	test   %eax,%eax
 804add2:	74 0d                	je     804ade1 <sglib___Tree_fix_left_deletion_discrepancy+0x121>
 804add4:	8b 55 f0             	mov    0xfffffff0(%ebp),%edx
 804add7:	80 7a 0c 01          	cmpb   $0x1,0xc(%edx)
 804addb:	0f 84 28 01 00 00    	je     804af09 <sglib___Tree_fix_left_deletion_discrepancy+0x249>
 804ade1:	c7 44 24 0c 80 02 05 	movl   $0x8050280,0xc(%esp)
 804ade8:	08 
 804ade9:	c7 44 24 08 48 00 00 	movl   $0x48,0x8(%esp)
 804adf0:	00 
 804adf1:	c7 44 24 04 6c f5 04 	movl   $0x804f56c,0x4(%esp)
 804adf8:	08 
 804adf9:	c7 04 24 c8 f5 04 08 	movl   $0x804f5c8,(%esp)
 804ae00:	e8 93 d6 ff ff       	call   8048498 <__assert_fail@plt>
 804ae05:	8b 56 10             	mov    0x10(%esi),%edx
 804ae08:	8b 46 14             	mov    0x14(%esi),%eax
 804ae0b:	89 31                	mov    %esi,(%ecx)
 804ae0d:	89 7e 10             	mov    %edi,0x10(%esi)
 804ae10:	89 55 e8             	mov    %edx,0xffffffe8(%ebp)
 804ae13:	0f b6 57 0c          	movzbl 0xc(%edi),%edx
 804ae17:	89 43 10             	mov    %eax,0x10(%ebx)
 804ae1a:	89 5e 14             	mov    %ebx,0x14(%esi)
 804ae1d:	88 56 0c             	mov    %dl,0xc(%esi)
 804ae20:	c6 47 0c 00          	movb   $0x0,0xc(%edi)
 804ae24:	8b 45 e8             	mov    0xffffffe8(%ebp),%eax
 804ae27:	89 47 14             	mov    %eax,0x14(%edi)
 804ae2a:	31 c0                	xor    %eax,%eax
 804ae2c:	e9 ef fe ff ff       	jmp    804ad20 <sglib___Tree_fix_left_deletion_discrepancy+0x60>
 804ae31:	31 c0                	xor    %eax,%eax
 804ae33:	89 19                	mov    %ebx,(%ecx)
 804ae35:	c6 43 0c 00          	movb   $0x0,0xc(%ebx)
 804ae39:	89 7b 10             	mov    %edi,0x10(%ebx)
 804ae3c:	89 77 14             	mov    %esi,0x14(%edi)
 804ae3f:	c6 46 0c 01          	movb   $0x1,0xc(%esi)
 804ae43:	e9 d8 fe ff ff       	jmp    804ad20 <sglib___Tree_fix_left_deletion_discrepancy+0x60>
 804ae48:	80 7f 0c 01          	cmpb   $0x1,0xc(%edi)
 804ae4c:	0f 85 49 01 00 00    	jne    804af9b <sglib___Tree_fix_left_deletion_discrepancy+0x2db>
 804ae52:	31 c0                	xor    %eax,%eax
 804ae54:	c6 47 0c 00          	movb   $0x0,0xc(%edi)
 804ae58:	e9 c3 fe ff ff       	jmp    804ad20 <sglib___Tree_fix_left_deletion_discrepancy+0x60>
 804ae5d:	85 f6                	test   %esi,%esi
 804ae5f:	90                   	nop    
 804ae60:	74 3c                	je     804ae9e <sglib___Tree_fix_left_deletion_discrepancy+0x1de>
 804ae62:	0f b6 46 0c          	movzbl 0xc(%esi),%eax
 804ae66:	84 c0                	test   %al,%al
 804ae68:	74 34                	je     804ae9e <sglib___Tree_fix_left_deletion_discrepancy+0x1de>
 804ae6a:	2c 01                	sub    $0x1,%al
 804ae6c:	0f 85 4d 01 00 00    	jne    804afbf <sglib___Tree_fix_left_deletion_discrepancy+0x2ff>
 804ae72:	8b 56 10             	mov    0x10(%esi),%edx
 804ae75:	8b 46 14             	mov    0x14(%esi),%eax
 804ae78:	89 31                	mov    %esi,(%ecx)
 804ae7a:	89 7e 10             	mov    %edi,0x10(%esi)
 804ae7d:	89 55 ec             	mov    %edx,0xffffffec(%ebp)
 804ae80:	0f b6 57 0c          	movzbl 0xc(%edi),%edx
 804ae84:	89 43 10             	mov    %eax,0x10(%ebx)
 804ae87:	89 5e 14             	mov    %ebx,0x14(%esi)
 804ae8a:	88 56 0c             	mov    %dl,0xc(%esi)
 804ae8d:	c6 47 0c 00          	movb   $0x0,0xc(%edi)
 804ae91:	8b 45 ec             	mov    0xffffffec(%ebp),%eax
 804ae94:	89 47 14             	mov    %eax,0x14(%edi)
 804ae97:	31 c0                	xor    %eax,%eax
 804ae99:	e9 82 fe ff ff       	jmp    804ad20 <sglib___Tree_fix_left_deletion_discrepancy+0x60>
 804ae9e:	89 19                	mov    %ebx,(%ecx)
 804aea0:	0f b6 47 0c          	movzbl 0xc(%edi),%eax
 804aea4:	89 7b 10             	mov    %edi,0x10(%ebx)
 804aea7:	89 77 14             	mov    %esi,0x14(%edi)
 804aeaa:	88 43 0c             	mov    %al,0xc(%ebx)
 804aead:	31 c0                	xor    %eax,%eax
 804aeaf:	c6 47 0c 00          	movb   $0x0,0xc(%edi)
 804aeb3:	c6 42 0c 00          	movb   $0x0,0xc(%edx)
 804aeb7:	e9 64 fe ff ff       	jmp    804ad20 <sglib___Tree_fix_left_deletion_discrepancy+0x60>
 804aebc:	89 18                	mov    %ebx,(%eax)
 804aebe:	31 c0                	xor    %eax,%eax
 804aec0:	c6 43 0c 00          	movb   $0x0,0xc(%ebx)
 804aec4:	89 7b 10             	mov    %edi,0x10(%ebx)
 804aec7:	c7 47 14 00 00 00 00 	movl   $0x0,0x14(%edi)
 804aece:	e9 4d fe ff ff       	jmp    804ad20 <sglib___Tree_fix_left_deletion_discrepancy+0x60>
 804aed3:	8b 45 f0             	mov    0xfffffff0(%ebp),%eax
 804aed6:	85 c0                	test   %eax,%eax
 804aed8:	74 0d                	je     804aee7 <sglib___Tree_fix_left_deletion_discrepancy+0x227>
 804aeda:	8b 45 f0             	mov    0xfffffff0(%ebp),%eax
 804aedd:	80 78 0c 01          	cmpb   $0x1,0xc(%eax)
 804aee1:	0f 84 88 00 00 00    	je     804af6f <sglib___Tree_fix_left_deletion_discrepancy+0x2af>
 804aee7:	8b 45 f0             	mov    0xfffffff0(%ebp),%eax
 804aeea:	89 31                	mov    %esi,(%ecx)
 804aeec:	89 5e 14             	mov    %ebx,0x14(%esi)
 804aeef:	89 53 14             	mov    %edx,0x14(%ebx)
 804aef2:	8b 55 e4             	mov    0xffffffe4(%ebp),%edx
 804aef5:	89 47 14             	mov    %eax,0x14(%edi)
 804aef8:	31 c0                	xor    %eax,%eax
 804aefa:	89 7e 10             	mov    %edi,0x10(%esi)
 804aefd:	c6 42 0c 00          	movb   $0x0,0xc(%edx)
 804af01:	89 53 10             	mov    %edx,0x10(%ebx)
 804af04:	e9 17 fe ff ff       	jmp    804ad20 <sglib___Tree_fix_left_deletion_discrepancy+0x60>
 804af09:	8b 45 e4             	mov    0xffffffe4(%ebp),%eax
 804af0c:	85 c0                	test   %eax,%eax
 804af0e:	74 0d                	je     804af1d <sglib___Tree_fix_left_deletion_discrepancy+0x25d>
 804af10:	8b 45 e4             	mov    0xffffffe4(%ebp),%eax
 804af13:	80 78 0c 00          	cmpb   $0x0,0xc(%eax)
 804af17:	0f 85 c6 00 00 00    	jne    804afe3 <sglib___Tree_fix_left_deletion_discrepancy+0x323>
 804af1d:	8b 55 f0             	mov    0xfffffff0(%ebp),%edx
 804af20:	8b 45 f0             	mov    0xfffffff0(%ebp),%eax
 804af23:	8b 52 14             	mov    0x14(%edx),%edx
 804af26:	89 55 e4             	mov    %edx,0xffffffe4(%ebp)
 804af29:	8b 50 10             	mov    0x10(%eax),%edx
 804af2c:	89 01                	mov    %eax,(%ecx)
 804af2e:	c6 40 0c 00          	movb   $0x0,0xc(%eax)
 804af32:	89 58 14             	mov    %ebx,0x14(%eax)
 804af35:	8b 45 e4             	mov    0xffffffe4(%ebp),%eax
 804af38:	89 57 14             	mov    %edx,0x14(%edi)
 804af3b:	89 46 10             	mov    %eax,0x10(%esi)
 804af3e:	8b 45 f0             	mov    0xfffffff0(%ebp),%eax
 804af41:	89 78 10             	mov    %edi,0x10(%eax)
 804af44:	31 c0                	xor    %eax,%eax
 804af46:	e9 d5 fd ff ff       	jmp    804ad20 <sglib___Tree_fix_left_deletion_discrepancy+0x60>
 804af4b:	c7 44 24 0c 80 02 05 	movl   $0x8050280,0xc(%esp)
 804af52:	08 
 804af53:	c7 44 24 08 48 00 00 	movl   $0x48,0x8(%esp)
 804af5a:	00 
 804af5b:	c7 44 24 04 6c f5 04 	movl   $0x804f56c,0x4(%esp)
 804af62:	08 
 804af63:	c7 04 24 f1 f5 04 08 	movl   $0x804f5f1,(%esp)
 804af6a:	e8 29 d5 ff ff       	call   8048498 <__assert_fail@plt>
 804af6f:	8b 50 14             	mov    0x14(%eax),%edx
 804af72:	89 55 e4             	mov    %edx,0xffffffe4(%ebp)
 804af75:	eb b2                	jmp    804af29 <sglib___Tree_fix_left_deletion_discrepancy+0x269>
 804af77:	c7 44 24 0c 80 02 05 	movl   $0x8050280,0xc(%esp)
 804af7e:	08 
 804af7f:	c7 44 24 08 48 00 00 	movl   $0x48,0x8(%esp)
 804af86:	00 
 804af87:	c7 44 24 04 6c f5 04 	movl   $0x804f56c,0x4(%esp)
 804af8e:	08 
 804af8f:	c7 04 24 84 f8 04 08 	movl   $0x804f884,(%esp)
 804af96:	e8 fd d4 ff ff       	call   8048498 <__assert_fail@plt>
 804af9b:	c7 44 24 0c 80 02 05 	movl   $0x8050280,0xc(%esp)
 804afa2:	08 
 804afa3:	c7 44 24 08 48 00 00 	movl   $0x48,0x8(%esp)
 804afaa:	00 
 804afab:	c7 44 24 04 6c f5 04 	movl   $0x804f56c,0x4(%esp)
 804afb2:	08 
 804afb3:	c7 04 24 0a f6 04 08 	movl   $0x804f60a,(%esp)
 804afba:	e8 d9 d4 ff ff       	call   8048498 <__assert_fail@plt>
 804afbf:	c7 44 24 0c 80 02 05 	movl   $0x8050280,0xc(%esp)
 804afc6:	08 
 804afc7:	c7 44 24 08 48 00 00 	movl   $0x48,0x8(%esp)
 804afce:	00 
 804afcf:	c7 44 24 04 6c f5 04 	movl   $0x804f56c,0x4(%esp)
 804afd6:	08 
 804afd7:	c7 04 24 18 f6 04 08 	movl   $0x804f618,(%esp)
 804afde:	e8 b5 d4 ff ff       	call   8048498 <__assert_fail@plt>
 804afe3:	c7 44 24 0c 80 02 05 	movl   $0x8050280,0xc(%esp)
 804afea:	08 
 804afeb:	c7 44 24 08 48 00 00 	movl   $0x48,0x8(%esp)
 804aff2:	00 
 804aff3:	c7 44 24 04 6c f5 04 	movl   $0x804f56c,0x4(%esp)
 804affa:	08 
 804affb:	c7 04 24 a4 f8 04 08 	movl   $0x804f8a4,(%esp)
 804b002:	e8 91 d4 ff ff       	call   8048498 <__assert_fail@plt>
 804b007:	89 f6                	mov    %esi,%esi
 804b009:	8d bc 27 00 00 00 00 	lea    0x0(%edi),%edi

0804b010 <sglib___Tree_delete_recursive>:
 804b010:	55                   	push   %ebp
 804b011:	89 e5                	mov    %esp,%ebp
 804b013:	83 ec 38             	sub    $0x38,%esp
 804b016:	89 7d fc             	mov    %edi,0xfffffffc(%ebp)
 804b019:	8b 7d 08             	mov    0x8(%ebp),%edi
 804b01c:	89 75 f8             	mov    %esi,0xfffffff8(%ebp)
 804b01f:	8b 75 0c             	mov    0xc(%ebp),%esi
 804b022:	89 5d f4             	mov    %ebx,0xfffffff4(%ebp)
 804b025:	8b 1f                	mov    (%edi),%ebx
 804b027:	85 db                	test   %ebx,%ebx
 804b029:	0f 84 ed 00 00 00    	je     804b11c <sglib___Tree_delete_recursive+0x10c>
 804b02f:	89 5c 24 04          	mov    %ebx,0x4(%esp)
 804b033:	89 34 24             	mov    %esi,(%esp)
 804b036:	e8 d5 d5 ff ff       	call   8048610 <myListCmp>
 804b03b:	83 f8 00             	cmp    $0x0,%eax
 804b03e:	7c 0b                	jl     804b04b <sglib___Tree_delete_recursive+0x3b>
 804b040:	0f 94 c2             	sete   %dl
 804b043:	84 d2                	test   %dl,%dl
 804b045:	74 29                	je     804b070 <sglib___Tree_delete_recursive+0x60>
 804b047:	39 de                	cmp    %ebx,%esi
 804b049:	73 25                	jae    804b070 <sglib___Tree_delete_recursive+0x60>
 804b04b:	8d 43 10             	lea    0x10(%ebx),%eax
 804b04e:	89 74 24 04          	mov    %esi,0x4(%esp)
 804b052:	89 04 24             	mov    %eax,(%esp)
 804b055:	e8 b6 ff ff ff       	call   804b010 <sglib___Tree_delete_recursive>
 804b05a:	85 c0                	test   %eax,%eax
 804b05c:	75 59                	jne    804b0b7 <sglib___Tree_delete_recursive+0xa7>
 804b05e:	31 c0                	xor    %eax,%eax
 804b060:	8b 5d f4             	mov    0xfffffff4(%ebp),%ebx
 804b063:	8b 75 f8             	mov    0xfffffff8(%ebp),%esi
 804b066:	8b 7d fc             	mov    0xfffffffc(%ebp),%edi
 804b069:	89 ec                	mov    %ebp,%esp
 804b06b:	5d                   	pop    %ebp
 804b06c:	c3                   	ret    
 804b06d:	8d 76 00             	lea    0x0(%esi),%esi
 804b070:	85 c0                	test   %eax,%eax
 804b072:	75 4c                	jne    804b0c0 <sglib___Tree_delete_recursive+0xb0>
 804b074:	84 d2                	test   %dl,%dl
 804b076:	74 04                	je     804b07c <sglib___Tree_delete_recursive+0x6c>
 804b078:	39 de                	cmp    %ebx,%esi
 804b07a:	77 44                	ja     804b0c0 <sglib___Tree_delete_recursive+0xb0>
 804b07c:	39 de                	cmp    %ebx,%esi
 804b07e:	66 90                	xchg   %ax,%ax
 804b080:	0f 85 ba 00 00 00    	jne    804b140 <sglib___Tree_delete_recursive+0x130>
 804b086:	8b 56 10             	mov    0x10(%esi),%edx
 804b089:	85 d2                	test   %edx,%edx
 804b08b:	74 53                	je     804b0e0 <sglib___Tree_delete_recursive+0xd0>
 804b08d:	8d 55 f0             	lea    0xfffffff0(%ebp),%edx
 804b090:	8d 46 10             	lea    0x10(%esi),%eax
 804b093:	e8 78 fb ff ff       	call   804ac10 <sglib___Tree_delete_rightmost_leaf>
 804b098:	8b 4d f0             	mov    0xfffffff0(%ebp),%ecx
 804b09b:	8b 56 10             	mov    0x10(%esi),%edx
 804b09e:	89 51 10             	mov    %edx,0x10(%ecx)
 804b0a1:	8b 56 14             	mov    0x14(%esi),%edx
 804b0a4:	85 c0                	test   %eax,%eax
 804b0a6:	89 51 14             	mov    %edx,0x14(%ecx)
 804b0a9:	0f b6 56 0c          	movzbl 0xc(%esi),%edx
 804b0ad:	88 51 0c             	mov    %dl,0xc(%ecx)
 804b0b0:	8b 55 f0             	mov    0xfffffff0(%ebp),%edx
 804b0b3:	89 17                	mov    %edx,(%edi)
 804b0b5:	74 a7                	je     804b05e <sglib___Tree_delete_recursive+0x4e>
 804b0b7:	89 f8                	mov    %edi,%eax
 804b0b9:	e8 02 fc ff ff       	call   804acc0 <sglib___Tree_fix_left_deletion_discrepancy>
 804b0be:	eb a0                	jmp    804b060 <sglib___Tree_delete_recursive+0x50>
 804b0c0:	8d 43 14             	lea    0x14(%ebx),%eax
 804b0c3:	89 74 24 04          	mov    %esi,0x4(%esp)
 804b0c7:	89 04 24             	mov    %eax,(%esp)
 804b0ca:	e8 41 ff ff ff       	call   804b010 <sglib___Tree_delete_recursive>
 804b0cf:	85 c0                	test   %eax,%eax
 804b0d1:	74 8b                	je     804b05e <sglib___Tree_delete_recursive+0x4e>
 804b0d3:	89 f8                	mov    %edi,%eax
 804b0d5:	e8 e6 f7 ff ff       	call   804a8c0 <sglib___Tree_fix_right_deletion_discrepancy>
 804b0da:	eb 84                	jmp    804b060 <sglib___Tree_delete_recursive+0x50>
 804b0dc:	8d 74 26 00          	lea    0x0(%esi),%esi
 804b0e0:	8b 56 14             	mov    0x14(%esi),%edx
 804b0e3:	85 d2                	test   %edx,%edx
 804b0e5:	74 21                	je     804b108 <sglib___Tree_delete_recursive+0xf8>
 804b0e7:	31 c0                	xor    %eax,%eax
 804b0e9:	80 7e 0c 00          	cmpb   $0x0,0xc(%esi)
 804b0ed:	8d 76 00             	lea    0x0(%esi),%esi
 804b0f0:	74 0b                	je     804b0fd <sglib___Tree_delete_recursive+0xed>
 804b0f2:	c6 42 0c 00          	movb   $0x0,0xc(%edx)
 804b0f6:	89 17                	mov    %edx,(%edi)
 804b0f8:	e9 63 ff ff ff       	jmp    804b060 <sglib___Tree_delete_recursive+0x50>
 804b0fd:	31 c0                	xor    %eax,%eax
 804b0ff:	80 7a 0c 00          	cmpb   $0x0,0xc(%edx)
 804b103:	0f 94 c0             	sete   %al
 804b106:	eb ea                	jmp    804b0f2 <sglib___Tree_delete_recursive+0xe2>
 804b108:	31 c0                	xor    %eax,%eax
 804b10a:	c7 07 00 00 00 00    	movl   $0x0,(%edi)
 804b110:	80 7e 0c 00          	cmpb   $0x0,0xc(%esi)
 804b114:	0f 94 c0             	sete   %al
 804b117:	e9 44 ff ff ff       	jmp    804b060 <sglib___Tree_delete_recursive+0x50>
 804b11c:	c7 44 24 0c e1 01 05 	movl   $0x80501e1,0xc(%esp)
 804b123:	08 
 804b124:	c7 44 24 08 48 00 00 	movl   $0x48,0x8(%esp)
 804b12b:	00 
 804b12c:	c7 44 24 04 6c f5 04 	movl   $0x804f56c,0x4(%esp)
 804b133:	08 
 804b134:	c7 04 24 ec f8 04 08 	movl   $0x804f8ec,(%esp)
 804b13b:	e8 58 d3 ff ff       	call   8048498 <__assert_fail@plt>
 804b140:	c7 44 24 0c e1 01 05 	movl   $0x80501e1,0xc(%esp)
 804b147:	08 
 804b148:	c7 44 24 08 48 00 00 	movl   $0x48,0x8(%esp)
 804b14f:	00 
 804b150:	c7 44 24 04 6c f5 04 	movl   $0x804f56c,0x4(%esp)
 804b157:	08 
 804b158:	c7 04 24 48 f9 04 08 	movl   $0x804f948,(%esp)
 804b15f:	e8 34 d3 ff ff       	call   8048498 <__assert_fail@plt>
 804b164:	8d b6 00 00 00 00    	lea    0x0(%esi),%esi
 804b16a:	8d bf 00 00 00 00    	lea    0x0(%edi),%edi

0804b170 <sglib_Tree_delete>:
 804b170:	55                   	push   %ebp
 804b171:	89 e5                	mov    %esp,%ebp
 804b173:	53                   	push   %ebx
 804b174:	83 ec 14             	sub    $0x14,%esp
 804b177:	8b 5d 08             	mov    0x8(%ebp),%ebx
 804b17a:	8b 45 0c             	mov    0xc(%ebp),%eax
 804b17d:	89 1c 24             	mov    %ebx,(%esp)
 804b180:	89 44 24 04          	mov    %eax,0x4(%esp)
 804b184:	e8 87 fe ff ff       	call   804b010 <sglib___Tree_delete_recursive>
 804b189:	8b 03                	mov    (%ebx),%eax
 804b18b:	85 c0                	test   %eax,%eax
 804b18d:	74 04                	je     804b193 <sglib_Tree_delete+0x23>
 804b18f:	c6 40 0c 00          	movb   $0x0,0xc(%eax)
 804b193:	83 c4 14             	add    $0x14,%esp
 804b196:	5b                   	pop    %ebx
 804b197:	5d                   	pop    %ebp
 804b198:	c3                   	ret    
 804b199:	8d b4 26 00 00 00 00 	lea    0x0(%esi),%esi

0804b1a0 <sglib_Tree_delete_if_member>:
 804b1a0:	55                   	push   %ebp
 804b1a1:	89 e5                	mov    %esp,%ebp
 804b1a3:	53                   	push   %ebx
 804b1a4:	83 ec 14             	sub    $0x14,%esp
 804b1a7:	8b 45 0c             	mov    0xc(%ebp),%eax
 804b1aa:	8b 5d 08             	mov    0x8(%ebp),%ebx
 804b1ad:	89 44 24 04          	mov    %eax,0x4(%esp)
 804b1b1:	8b 03                	mov    (%ebx),%eax
 804b1b3:	89 04 24             	mov    %eax,(%esp)
 804b1b6:	e8 45 eb ff ff       	call   8049d00 <sglib_Tree_find_member>
 804b1bb:	89 c2                	mov    %eax,%edx
 804b1bd:	8b 45 10             	mov    0x10(%ebp),%eax
 804b1c0:	89 10                	mov    %edx,(%eax)
 804b1c2:	31 c0                	xor    %eax,%eax
 804b1c4:	85 d2                	test   %edx,%edx
 804b1c6:	74 11                	je     804b1d9 <sglib_Tree_delete_if_member+0x39>
 804b1c8:	89 54 24 04          	mov    %edx,0x4(%esp)
 804b1cc:	89 1c 24             	mov    %ebx,(%esp)
 804b1cf:	e8 9c ff ff ff       	call   804b170 <sglib_Tree_delete>
 804b1d4:	b8 01 00 00 00       	mov    $0x1,%eax
 804b1d9:	83 c4 14             	add    $0x14,%esp
 804b1dc:	5b                   	pop    %ebx
 804b1dd:	5d                   	pop    %ebp
 804b1de:	c3                   	ret    
 804b1df:	90                   	nop    

0804b1e0 <sglib_ReverseSortedList_delete>:
 804b1e0:	55                   	push   %ebp
 804b1e1:	89 e5                	mov    %esp,%ebp
 804b1e3:	83 ec 18             	sub    $0x18,%esp
 804b1e6:	8b 55 08             	mov    0x8(%ebp),%edx
 804b1e9:	8b 4d 0c             	mov    0xc(%ebp),%ecx
 804b1ec:	8b 02                	mov    (%edx),%eax
 804b1ee:	85 c0                	test   %eax,%eax
 804b1f0:	75 0c                	jne    804b1fe <sglib_ReverseSortedList_delete+0x1e>
 804b1f2:	eb 19                	jmp    804b20d <sglib_ReverseSortedList_delete+0x2d>
 804b1f4:	8d 50 04             	lea    0x4(%eax),%edx
 804b1f7:	8b 40 04             	mov    0x4(%eax),%eax
 804b1fa:	85 c0                	test   %eax,%eax
 804b1fc:	74 0f                	je     804b20d <sglib_ReverseSortedList_delete+0x2d>
 804b1fe:	39 c8                	cmp    %ecx,%eax
 804b200:	75 f2                	jne    804b1f4 <sglib_ReverseSortedList_delete+0x14>
 804b202:	85 c9                	test   %ecx,%ecx
 804b204:	74 07                	je     804b20d <sglib_ReverseSortedList_delete+0x2d>
 804b206:	8b 41 04             	mov    0x4(%ecx),%eax
 804b209:	89 02                	mov    %eax,(%edx)
 804b20b:	c9                   	leave  
 804b20c:	c3                   	ret    
 804b20d:	c7 44 24 0c ac 02 05 	movl   $0x80502ac,0xc(%esp)
 804b214:	08 
 804b215:	c7 44 24 08 46 00 00 	movl   $0x46,0x8(%esp)
 804b21c:	00 
 804b21d:	c7 44 24 04 6c f5 04 	movl   $0x804f56c,0x4(%esp)
 804b224:	08 
 804b225:	c7 04 24 b0 f9 04 08 	movl   $0x804f9b0,(%esp)
 804b22c:	e8 67 d2 ff ff       	call   8048498 <__assert_fail@plt>
 804b231:	eb 0d                	jmp    804b240 <sglib_SortedList_delete>
 804b233:	90                   	nop    
 804b234:	90                   	nop    
 804b235:	90                   	nop    
 804b236:	90                   	nop    
 804b237:	90                   	nop    
 804b238:	90                   	nop    
 804b239:	90                   	nop    
 804b23a:	90                   	nop    
 804b23b:	90                   	nop    
 804b23c:	90                   	nop    
 804b23d:	90                   	nop    
 804b23e:	90                   	nop    
 804b23f:	90                   	nop    

0804b240 <sglib_SortedList_delete>:
 804b240:	55                   	push   %ebp
 804b241:	89 e5                	mov    %esp,%ebp
 804b243:	83 ec 18             	sub    $0x18,%esp
 804b246:	8b 55 08             	mov    0x8(%ebp),%edx
 804b249:	8b 4d 0c             	mov    0xc(%ebp),%ecx
 804b24c:	8b 02                	mov    (%edx),%eax
 804b24e:	85 c0                	test   %eax,%eax
 804b250:	75 0c                	jne    804b25e <sglib_SortedList_delete+0x1e>
 804b252:	eb 19                	jmp    804b26d <sglib_SortedList_delete+0x2d>
 804b254:	8d 50 04             	lea    0x4(%eax),%edx
 804b257:	8b 40 04             	mov    0x4(%eax),%eax
 804b25a:	85 c0                	test   %eax,%eax
 804b25c:	74 0f                	je     804b26d <sglib_SortedList_delete+0x2d>
 804b25e:	39 c8                	cmp    %ecx,%eax
 804b260:	75 f2                	jne    804b254 <sglib_SortedList_delete+0x14>
 804b262:	85 c9                	test   %ecx,%ecx
 804b264:	74 07                	je     804b26d <sglib_SortedList_delete+0x2d>
 804b266:	8b 41 04             	mov    0x4(%ecx),%eax
 804b269:	89 02                	mov    %eax,(%edx)
 804b26b:	c9                   	leave  
 804b26c:	c3                   	ret    
 804b26d:	c7 44 24 0c cb 02 05 	movl   $0x80502cb,0xc(%esp)
 804b274:	08 
 804b275:	c7 44 24 08 44 00 00 	movl   $0x44,0x8(%esp)
 804b27c:	00 
 804b27d:	c7 44 24 04 6c f5 04 	movl   $0x804f56c,0x4(%esp)
 804b284:	08 
 804b285:	c7 04 24 b0 f9 04 08 	movl   $0x804f9b0,(%esp)
 804b28c:	e8 07 d2 ff ff       	call   8048498 <__assert_fail@plt>
 804b291:	eb 0d                	jmp    804b2a0 <sglib_SimpleList_delete>
 804b293:	90                   	nop    
 804b294:	90                   	nop    
 804b295:	90                   	nop    
 804b296:	90                   	nop    
 804b297:	90                   	nop    
 804b298:	90                   	nop    
 804b299:	90                   	nop    
 804b29a:	90                   	nop    
 804b29b:	90                   	nop    
 804b29c:	90                   	nop    
 804b29d:	90                   	nop    
 804b29e:	90                   	nop    
 804b29f:	90                   	nop    

0804b2a0 <sglib_SimpleList_delete>:
 804b2a0:	55                   	push   %ebp
 804b2a1:	89 e5                	mov    %esp,%ebp
 804b2a3:	83 ec 18             	sub    $0x18,%esp
 804b2a6:	8b 55 08             	mov    0x8(%ebp),%edx
 804b2a9:	8b 4d 0c             	mov    0xc(%ebp),%ecx
 804b2ac:	8b 02                	mov    (%edx),%eax
 804b2ae:	85 c0                	test   %eax,%eax
 804b2b0:	75 0c                	jne    804b2be <sglib_SimpleList_delete+0x1e>
 804b2b2:	eb 19                	jmp    804b2cd <sglib_SimpleList_delete+0x2d>
 804b2b4:	8d 50 04             	lea    0x4(%eax),%edx
 804b2b7:	8b 40 04             	mov    0x4(%eax),%eax
 804b2ba:	85 c0                	test   %eax,%eax
 804b2bc:	74 0f                	je     804b2cd <sglib_SimpleList_delete+0x2d>
 804b2be:	39 c8                	cmp    %ecx,%eax
 804b2c0:	75 f2                	jne    804b2b4 <sglib_SimpleList_delete+0x14>
 804b2c2:	85 c9                	test   %ecx,%ecx
 804b2c4:	74 07                	je     804b2cd <sglib_SimpleList_delete+0x2d>
 804b2c6:	8b 41 04             	mov    0x4(%ecx),%eax
 804b2c9:	89 02                	mov    %eax,(%edx)
 804b2cb:	c9                   	leave  
 804b2cc:	c3                   	ret    
 804b2cd:	c7 44 24 0c e3 02 05 	movl   $0x80502e3,0xc(%esp)
 804b2d4:	08 
 804b2d5:	c7 44 24 08 40 00 00 	movl   $0x40,0x8(%esp)
 804b2dc:	00 
 804b2dd:	c7 44 24 04 6c f5 04 	movl   $0x804f56c,0x4(%esp)
 804b2e4:	08 
 804b2e5:	c7 04 24 b0 f9 04 08 	movl   $0x804f9b0,(%esp)
 804b2ec:	e8 a7 d1 ff ff       	call   8048498 <__assert_fail@plt>
 804b2f1:	eb 0d                	jmp    804b300 <sglib_hashed_SimpleList_delete>
 804b2f3:	90                   	nop    
 804b2f4:	90                   	nop    
 804b2f5:	90                   	nop    
 804b2f6:	90                   	nop    
 804b2f7:	90                   	nop    
 804b2f8:	90                   	nop    
 804b2f9:	90                   	nop    
 804b2fa:	90                   	nop    
 804b2fb:	90                   	nop    
 804b2fc:	90                   	nop    
 804b2fd:	90                   	nop    
 804b2fe:	90                   	nop    
 804b2ff:	90                   	nop    

0804b300 <sglib_hashed_SimpleList_delete>:
 804b300:	55                   	push   %ebp
 804b301:	89 e5                	mov    %esp,%ebp
 804b303:	53                   	push   %ebx
 804b304:	83 ec 04             	sub    $0x4,%esp
 804b307:	8b 5d 0c             	mov    0xc(%ebp),%ebx
 804b30a:	89 1c 24             	mov    %ebx,(%esp)
 804b30d:	e8 0e d3 ff ff       	call   8048620 <slistHashFunction>
 804b312:	ba 1f 85 eb 51       	mov    $0x51eb851f,%edx
 804b317:	89 c1                	mov    %eax,%ecx
 804b319:	f7 e2                	mul    %edx
 804b31b:	c1 ea 05             	shr    $0x5,%edx
 804b31e:	6b d2 64             	imul   $0x64,%edx,%edx
 804b321:	29 d1                	sub    %edx,%ecx
 804b323:	8b 55 08             	mov    0x8(%ebp),%edx
 804b326:	8d 04 8a             	lea    (%edx,%ecx,4),%eax
 804b329:	89 45 08             	mov    %eax,0x8(%ebp)
 804b32c:	83 c4 04             	add    $0x4,%esp
 804b32f:	5b                   	pop    %ebx
 804b330:	5d                   	pop    %ebp
 804b331:	e9 6a ff ff ff       	jmp    804b2a0 <sglib_SimpleList_delete>
 804b336:	8d 76 00             	lea    0x0(%esi),%esi
 804b339:	8d bc 27 00 00 00 00 	lea    0x0(%edi),%edi

0804b340 <sglib_Tree_dump_rec>:
 804b340:	55                   	push   %ebp
 804b341:	89 e5                	mov    %esp,%ebp
 804b343:	53                   	push   %ebx
 804b344:	83 ec 14             	sub    $0x14,%esp
 804b347:	8b 5d 08             	mov    0x8(%ebp),%ebx
 804b34a:	85 db                	test   %ebx,%ebx
 804b34c:	0f 84 85 00 00 00    	je     804b3d7 <sglib_Tree_dump_rec+0x97>
 804b352:	c7 04 24 28 00 00 00 	movl   $0x28,(%esp)
 804b359:	e8 0a d1 ff ff       	call   8048468 <putchar@plt>
 804b35e:	a1 a4 14 05 08       	mov    0x80514a4,%eax
 804b363:	89 04 24             	mov    %eax,(%esp)
 804b366:	e8 4d d1 ff ff       	call   80484b8 <fflush@plt>
 804b36b:	8b 43 10             	mov    0x10(%ebx),%eax
 804b36e:	89 04 24             	mov    %eax,(%esp)
 804b371:	e8 ca ff ff ff       	call   804b340 <sglib_Tree_dump_rec>
 804b376:	8b 03                	mov    (%ebx),%eax
 804b378:	ba 27 f6 04 08       	mov    $0x804f627,%edx
 804b37d:	80 7b 0c 00          	cmpb   $0x0,0xc(%ebx)
 804b381:	75 4d                	jne    804b3d0 <sglib_Tree_dump_rec+0x90>
 804b383:	89 54 24 04          	mov    %edx,0x4(%esp)
 804b387:	89 44 24 08          	mov    %eax,0x8(%esp)
 804b38b:	c7 04 24 2b f6 04 08 	movl   $0x804f62b,(%esp)
 804b392:	e8 31 d1 ff ff       	call   80484c8 <printf@plt>
 804b397:	a1 a4 14 05 08       	mov    0x80514a4,%eax
 804b39c:	89 04 24             	mov    %eax,(%esp)
 804b39f:	e8 14 d1 ff ff       	call   80484b8 <fflush@plt>
 804b3a4:	8b 43 14             	mov    0x14(%ebx),%eax
 804b3a7:	89 04 24             	mov    %eax,(%esp)
 804b3aa:	e8 91 ff ff ff       	call   804b340 <sglib_Tree_dump_rec>
 804b3af:	c7 04 24 29 00 00 00 	movl   $0x29,(%esp)
 804b3b6:	e8 ad d0 ff ff       	call   8048468 <putchar@plt>
 804b3bb:	a1 a4 14 05 08       	mov    0x80514a4,%eax
 804b3c0:	89 45 08             	mov    %eax,0x8(%ebp)
 804b3c3:	83 c4 14             	add    $0x14,%esp
 804b3c6:	5b                   	pop    %ebx
 804b3c7:	5d                   	pop    %ebp
 804b3c8:	e9 eb d0 ff ff       	jmp    80484b8 <fflush@plt>
 804b3cd:	8d 76 00             	lea    0x0(%esi),%esi
 804b3d0:	ba 29 f6 04 08       	mov    $0x804f629,%edx
 804b3d5:	eb ac                	jmp    804b383 <sglib_Tree_dump_rec+0x43>
 804b3d7:	83 c4 14             	add    $0x14,%esp
 804b3da:	5b                   	pop    %ebx
 804b3db:	5d                   	pop    %ebp
 804b3dc:	c3                   	ret    
 804b3dd:	8d 76 00             	lea    0x0(%esi),%esi

0804b3e0 <sglib_Tree_dump>:
 804b3e0:	55                   	push   %ebp
 804b3e1:	89 e5                	mov    %esp,%ebp
 804b3e3:	53                   	push   %ebx
 804b3e4:	83 ec 04             	sub    $0x4,%esp
 804b3e7:	8b 5d 08             	mov    0x8(%ebp),%ebx
 804b3ea:	c7 04 24 0a 00 00 00 	movl   $0xa,(%esp)
 804b3f1:	e8 72 d0 ff ff       	call   8048468 <putchar@plt>
 804b3f6:	a1 a4 14 05 08       	mov    0x80514a4,%eax
 804b3fb:	89 04 24             	mov    %eax,(%esp)
 804b3fe:	e8 b5 d0 ff ff       	call   80484b8 <fflush@plt>
 804b403:	89 1c 24             	mov    %ebx,(%esp)
 804b406:	e8 35 ff ff ff       	call   804b340 <sglib_Tree_dump_rec>
 804b40b:	c7 04 24 0a 00 00 00 	movl   $0xa,(%esp)
 804b412:	e8 51 d0 ff ff       	call   8048468 <putchar@plt>
 804b417:	a1 a4 14 05 08       	mov    0x80514a4,%eax
 804b41c:	89 45 08             	mov    %eax,0x8(%ebp)
 804b41f:	83 c4 04             	add    $0x4,%esp
 804b422:	5b                   	pop    %ebx
 804b423:	5d                   	pop    %ebp
 804b424:	e9 8f d0 ff ff       	jmp    80484b8 <fflush@plt>
 804b429:	8d b4 26 00 00 00 00 	lea    0x0(%esi),%esi

0804b430 <check_that_int_list_is_reverse_sorted>:
 804b430:	55                   	push   %ebp
 804b431:	89 e5                	mov    %esp,%ebp
 804b433:	83 ec 18             	sub    $0x18,%esp
 804b436:	8b 45 08             	mov    0x8(%ebp),%eax
 804b439:	85 c0                	test   %eax,%eax
 804b43b:	75 0b                	jne    804b448 <check_that_int_list_is_reverse_sorted+0x18>
 804b43d:	eb 10                	jmp    804b44f <check_that_int_list_is_reverse_sorted+0x1f>
 804b43f:	90                   	nop    
 804b440:	8b 00                	mov    (%eax),%eax
 804b442:	3b 02                	cmp    (%edx),%eax
 804b444:	72 0b                	jb     804b451 <check_that_int_list_is_reverse_sorted+0x21>
 804b446:	89 d0                	mov    %edx,%eax
 804b448:	8b 50 04             	mov    0x4(%eax),%edx
 804b44b:	85 d2                	test   %edx,%edx
 804b44d:	75 f1                	jne    804b440 <check_that_int_list_is_reverse_sorted+0x10>
 804b44f:	c9                   	leave  
 804b450:	c3                   	ret    
 804b451:	a1 a0 14 05 08       	mov    0x80514a0,%eax
 804b456:	c7 44 24 08 26 00 00 	movl   $0x26,0x8(%esp)
 804b45d:	00 
 804b45e:	c7 44 24 04 01 00 00 	movl   $0x1,0x4(%esp)
 804b465:	00 
 804b466:	c7 04 24 1c fa 04 08 	movl   $0x804fa1c,(%esp)
 804b46d:	89 44 24 0c          	mov    %eax,0xc(%esp)
 804b471:	e8 72 d0 ff ff       	call   80484e8 <fwrite@plt>
 804b476:	c7 44 24 0c 80 00 05 	movl   $0x8050080,0xc(%esp)
 804b47d:	08 
 804b47e:	c7 44 24 08 d6 00 00 	movl   $0xd6,0x8(%esp)
 804b485:	00 
 804b486:	c7 44 24 04 6c f5 04 	movl   $0x804f56c,0x4(%esp)
 804b48d:	08 
 804b48e:	c7 04 24 c8 f5 04 08 	movl   $0x804f5c8,(%esp)
 804b495:	e8 fe cf ff ff       	call   8048498 <__assert_fail@plt>
 804b49a:	8d b6 00 00 00 00    	lea    0x0(%esi),%esi

0804b4a0 <check_that_int_list_is_sorted>:
 804b4a0:	55                   	push   %ebp
 804b4a1:	89 e5                	mov    %esp,%ebp
 804b4a3:	83 ec 18             	sub    $0x18,%esp
 804b4a6:	8b 45 08             	mov    0x8(%ebp),%eax
 804b4a9:	85 c0                	test   %eax,%eax
 804b4ab:	75 0b                	jne    804b4b8 <check_that_int_list_is_sorted+0x18>
 804b4ad:	eb 10                	jmp    804b4bf <check_that_int_list_is_sorted+0x1f>
 804b4af:	90                   	nop    
 804b4b0:	8b 00                	mov    (%eax),%eax
 804b4b2:	3b 02                	cmp    (%edx),%eax
 804b4b4:	77 0b                	ja     804b4c1 <check_that_int_list_is_sorted+0x21>
 804b4b6:	89 d0                	mov    %edx,%eax
 804b4b8:	8b 50 04             	mov    0x4(%eax),%edx
 804b4bb:	85 d2                	test   %edx,%edx
 804b4bd:	75 f1                	jne    804b4b0 <check_that_int_list_is_sorted+0x10>
 804b4bf:	c9                   	leave  
 804b4c0:	c3                   	ret    
 804b4c1:	a1 a0 14 05 08       	mov    0x80514a0,%eax
 804b4c6:	c7 44 24 08 26 00 00 	movl   $0x26,0x8(%esp)
 804b4cd:	00 
 804b4ce:	c7 44 24 04 01 00 00 	movl   $0x1,0x4(%esp)
 804b4d5:	00 
 804b4d6:	c7 04 24 1c fa 04 08 	movl   $0x804fa1c,(%esp)
 804b4dd:	89 44 24 0c          	mov    %eax,0xc(%esp)
 804b4e1:	e8 02 d0 ff ff       	call   80484e8 <fwrite@plt>
 804b4e6:	c7 44 24 0c a6 00 05 	movl   $0x80500a6,0xc(%esp)
 804b4ed:	08 
 804b4ee:	c7 44 24 08 ca 00 00 	movl   $0xca,0x8(%esp)
 804b4f5:	00 
 804b4f6:	c7 44 24 04 6c f5 04 	movl   $0x804f56c,0x4(%esp)
 804b4fd:	08 
 804b4fe:	c7 04 24 c8 f5 04 08 	movl   $0x804f5c8,(%esp)
 804b505:	e8 8e cf ff ff       	call   8048498 <__assert_fail@plt>
 804b50a:	8d b6 00 00 00 00    	lea    0x0(%esi),%esi

0804b510 <check_that_int_array_is_sorted>:
 804b510:	55                   	push   %ebp
 804b511:	89 e5                	mov    %esp,%ebp
 804b513:	53                   	push   %ebx
 804b514:	83 ec 14             	sub    $0x14,%esp
 804b517:	8b 5d 0c             	mov    0xc(%ebp),%ebx
 804b51a:	8b 4d 08             	mov    0x8(%ebp),%ecx
 804b51d:	83 eb 01             	sub    $0x1,%ebx
 804b520:	85 db                	test   %ebx,%ebx
 804b522:	7e 1d                	jle    804b541 <check_that_int_array_is_sorted+0x31>
 804b524:	8b 01                	mov    (%ecx),%eax
 804b526:	31 d2                	xor    %edx,%edx
 804b528:	3b 41 04             	cmp    0x4(%ecx),%eax
 804b52b:	7f 1a                	jg     804b547 <check_that_int_array_is_sorted+0x37>
 804b52d:	31 d2                	xor    %edx,%edx
 804b52f:	eb 09                	jmp    804b53a <check_that_int_array_is_sorted+0x2a>
 804b531:	8b 04 91             	mov    (%ecx,%edx,4),%eax
 804b534:	3b 44 91 04          	cmp    0x4(%ecx,%edx,4),%eax
 804b538:	7f 0d                	jg     804b547 <check_that_int_array_is_sorted+0x37>
 804b53a:	83 c2 01             	add    $0x1,%edx
 804b53d:	39 da                	cmp    %ebx,%edx
 804b53f:	75 f0                	jne    804b531 <check_that_int_array_is_sorted+0x21>
 804b541:	83 c4 14             	add    $0x14,%esp
 804b544:	5b                   	pop    %ebx
 804b545:	5d                   	pop    %ebp
 804b546:	c3                   	ret    
 804b547:	a1 a0 14 05 08       	mov    0x80514a0,%eax
 804b54c:	89 54 24 08          	mov    %edx,0x8(%esp)
 804b550:	c7 44 24 04 44 fa 04 	movl   $0x804fa44,0x4(%esp)
 804b557:	08 
